
rust-unstripped-v3:	file format mach-o arm64

Disassembly of section __TEXT,__text:

00000001000008f0 <__ZN3std2rt10lang_start28_$u7b$$u7b$closure$u7d$$u7d$17h73d1023e636b57beE>:
1000008f0: a9bf7bfd    	stp	x29, x30, [sp, #-0x10]!
1000008f4: 910003fd    	mov	x29, sp
1000008f8: f9400000    	ldr	x0, [x0]
1000008fc: 94000004    	bl	0x10000090c <__ZN3std3sys9backtrace28__rust_begin_short_backtrace17h7a97a91748ed76a7E>
100000900: 52800000    	mov	w0, #0x0                ; =0
100000904: a8c17bfd    	ldp	x29, x30, [sp], #0x10
100000908: d65f03c0    	ret

000000010000090c <__ZN3std3sys9backtrace28__rust_begin_short_backtrace17h7a97a91748ed76a7E>:
10000090c: a9bf7bfd    	stp	x29, x30, [sp, #-0x10]!
100000910: 910003fd    	mov	x29, sp
100000914: d63f0000    	blr	x0
100000918: a8c17bfd    	ldp	x29, x30, [sp], #0x10
10000091c: d65f03c0    	ret

0000000100000920 <__ZN4core3ops8function6FnOnce40call_once$u7b$$u7b$vtable.shim$u7d$$u7d$17h480e58d2659ea0f9E>:
100000920: a9bf7bfd    	stp	x29, x30, [sp, #-0x10]!
100000924: 910003fd    	mov	x29, sp
100000928: f9400000    	ldr	x0, [x0]
10000092c: 97fffff8    	bl	0x10000090c <__ZN3std3sys9backtrace28__rust_begin_short_backtrace17h7a97a91748ed76a7E>
100000930: 52800000    	mov	w0, #0x0                ; =0
100000934: a8c17bfd    	ldp	x29, x30, [sp], #0x10
100000938: d65f03c0    	ret

000000010000093c <__ZN18rust_unstripped_v34main17hba8473d8ba46dadcE>:
10000093c: d10103ff    	sub	sp, sp, #0x40
100000940: a9037bfd    	stp	x29, x30, [sp, #0x30]
100000944: 9100c3fd    	add	x29, sp, #0x30
100000948: 90000228    	adrp	x8, 0x100044000 <dyld_stub_binder+0x100044000>
10000094c: 91010108    	add	x8, x8, #0x40
100000950: 52800029    	mov	w9, #0x1                ; =1
100000954: a90027e8    	stp	x8, x9, [sp]
100000958: 52800108    	mov	w8, #0x8                ; =8
10000095c: a901ffff    	stp	xzr, xzr, [sp, #0x18]
100000960: f9000be8    	str	x8, [sp, #0x10]
100000964: 910003e0    	mov	x0, sp
100000968: 94006bc4    	bl	0x10001b878 <__ZN3std2io5stdio6_print17h9989baa6d5472142E>
10000096c: a9437bfd    	ldp	x29, x30, [sp, #0x30]
100000970: 910103ff    	add	sp, sp, #0x40
100000974: d65f03c0    	ret

0000000100000978 <_main>:
100000978: d10083ff    	sub	sp, sp, #0x20
10000097c: a9017bfd    	stp	x29, x30, [sp, #0x10]
100000980: 910043fd    	add	x29, sp, #0x10
100000984: aa0103e3    	mov	x3, x1
100000988: 93407c02    	sxtw	x2, w0
10000098c: 90000008    	adrp	x8, 0x100000000 <dyld_stub_binder+0x100000000>
100000990: 9124f108    	add	x8, x8, #0x93c
100000994: f90007e8    	str	x8, [sp, #0x8]
100000998: 90000221    	adrp	x1, 0x100044000 <dyld_stub_binder+0x100044000>
10000099c: 91004021    	add	x1, x1, #0x10
1000009a0: 910023e0    	add	x0, sp, #0x8
1000009a4: 52800004    	mov	w4, #0x0                ; =0
1000009a8: 940063f7    	bl	0x100019984 <__ZN3std2rt19lang_start_internal17hacda2dedffd2edb4E>
1000009ac: a9417bfd    	ldp	x29, x30, [sp, #0x10]
1000009b0: 910083ff    	add	sp, sp, #0x20
1000009b4: d65f03c0    	ret

00000001000009b8 <___rust_alloc>:
1000009b8: 14007516    	b	0x10001de10 <___rdl_alloc>

00000001000009bc <___rust_dealloc>:
1000009bc: 14007530    	b	0x10001de7c <___rdl_dealloc>

00000001000009c0 <___rust_realloc>:
1000009c0: 14007533    	b	0x10001de8c <___rdl_realloc>

00000001000009c4 <___rust_alloc_zeroed>:
1000009c4: 1400755e    	b	0x10001df3c <___rdl_alloc_zeroed>

00000001000009c8 <___rust_alloc_error_handler>:
1000009c8: 140081fe    	b	0x1000211c0 <___rg_oom>

00000001000009cc <__ZN36_$LT$T$u20$as$u20$core..any..Any$GT$7type_id17h231d3d557948a87cE>:
1000009cc: a9bf7bfd    	stp	x29, x30, [sp, #-0x10]!
1000009d0: 910003fd    	mov	x29, sp
1000009d4: d29d94a0    	mov	x0, #0xeca5             ; =60581
1000009d8: f2bf7060    	movk	x0, #0xfb83, lsl #16
1000009dc: f2d23fa0    	movk	x0, #0x91fd, lsl #32
1000009e0: f2ec4380    	movk	x0, #0x621c, lsl #48
1000009e4: d2946f81    	mov	x1, #0xa37c             ; =41852
1000009e8: f2a9d641    	movk	x1, #0x4eb2, lsl #16
1000009ec: f2d99cc1    	movk	x1, #0xcce6, lsl #32
1000009f0: f2e3d781    	movk	x1, #0x1ebc, lsl #48
1000009f4: a8c17bfd    	ldp	x29, x30, [sp], #0x10
1000009f8: d65f03c0    	ret

00000001000009fc <__ZN36_$LT$T$u20$as$u20$core..any..Any$GT$7type_id17h9573d4b1ab3f1e9eE>:
1000009fc: a9bf7bfd    	stp	x29, x30, [sp, #-0x10]!
100000a00: 910003fd    	mov	x29, sp
100000a04: d2882f00    	mov	x0, #0x4178             ; =16760
100000a08: f2aaf4c0    	movk	x0, #0x57a6, lsl #16
100000a0c: f2c36e20    	movk	x0, #0x1b71, lsl #32
100000a10: f2f73160    	movk	x0, #0xb98b, lsl #48
100000a14: d28bada1    	mov	x1, #0x5d6d             ; =23917
100000a18: f2bad961    	movk	x1, #0xd6cb, lsl #16
100000a1c: f2ca0581    	movk	x1, #0x502c, lsl #32
100000a20: f2ec7d61    	movk	x1, #0x63eb, lsl #48
100000a24: a8c17bfd    	ldp	x29, x30, [sp], #0x10
100000a28: d65f03c0    	ret

0000000100000a2c <__ZN42_$LT$$RF$T$u20$as$u20$core..fmt..Debug$GT$3fmt17h3b4b3b0e7d1d7e59E>:
100000a2c: a9bf7bfd    	stp	x29, x30, [sp, #-0x10]!
100000a30: 910003fd    	mov	x29, sp
100000a34: f9400000    	ldr	x0, [x0]
100000a38: b9403428    	ldr	w8, [x1, #0x34]
100000a3c: 37200088    	tbnz	w8, #0x4, 0x100000a4c <__ZN42_$LT$$RF$T$u20$as$u20$core..fmt..Debug$GT$3fmt17h3b4b3b0e7d1d7e59E+0x20>
100000a40: 372800a8    	tbnz	w8, #0x5, 0x100000a54 <__ZN42_$LT$$RF$T$u20$as$u20$core..fmt..Debug$GT$3fmt17h3b4b3b0e7d1d7e59E+0x28>
100000a44: a8c17bfd    	ldp	x29, x30, [sp], #0x10
100000a48: 1400d025    	b	0x100034adc <__ZN4core3fmt3num3imp54_$LT$impl$u20$core..fmt..Display$u20$for$u20$usize$GT$3fmt17h485cbe4e5bac7941E>
100000a4c: a8c17bfd    	ldp	x29, x30, [sp], #0x10
100000a50: 1400ce55    	b	0x1000343a4 <__ZN4core3fmt3num55_$LT$impl$u20$core..fmt..LowerHex$u20$for$u20$usize$GT$3fmt17h9e52fdd0b58461c9E>
100000a54: a8c17bfd    	ldp	x29, x30, [sp], #0x10
100000a58: 1400ce73    	b	0x100034424 <__ZN4core3fmt3num55_$LT$impl$u20$core..fmt..UpperHex$u20$for$u20$usize$GT$3fmt17hf1df99222575ec9fE>

0000000100000a5c <__ZN42_$LT$$RF$T$u20$as$u20$core..fmt..Debug$GT$3fmt17h82e69c79eb6b4fbdE>:
100000a5c: a9bf7bfd    	stp	x29, x30, [sp, #-0x10]!
100000a60: 910003fd    	mov	x29, sp
100000a64: aa0103e2    	mov	x2, x1
100000a68: a9400408    	ldp	x8, x1, [x0]
100000a6c: aa0803e0    	mov	x0, x8
100000a70: a8c17bfd    	ldp	x29, x30, [sp], #0x10
100000a74: 1400c46b    	b	0x100031c20 <__ZN40_$LT$str$u20$as$u20$core..fmt..Debug$GT$3fmt17h3dcc837cd1fde19aE>

0000000100000a78 <__ZN42_$LT$$RF$T$u20$as$u20$core..fmt..Debug$GT$3fmt17hb01ec662a4c81d8dE>:
100000a78: a9bf7bfd    	stp	x29, x30, [sp, #-0x10]!
100000a7c: 910003fd    	mov	x29, sp
100000a80: f9400008    	ldr	x8, [x0]
100000a84: a9402100    	ldp	x0, x8, [x8]
100000a88: f9400d02    	ldr	x2, [x8, #0x18]
100000a8c: a8c17bfd    	ldp	x29, x30, [sp], #0x10
100000a90: d61f0040    	br	x2

0000000100000a94 <__ZN44_$LT$$RF$T$u20$as$u20$core..fmt..Display$GT$3fmt17h16da4b9537ee597dE>:
100000a94: d101c3ff    	sub	sp, sp, #0x70
100000a98: a9067bfd    	stp	x29, x30, [sp, #0x60]
100000a9c: 910183fd    	add	x29, sp, #0x60
100000aa0: f9400008    	ldr	x8, [x0]
100000aa4: a9420420    	ldp	x0, x1, [x1, #0x20]
100000aa8: 91004109    	add	x9, x8, #0x10
100000aac: 9000000a    	adrp	x10, 0x100000000 <dyld_stub_binder+0x100000000>
100000ab0: 912bf14a    	add	x10, x10, #0xafc
100000ab4: 9100510b    	add	x11, x8, #0x14
100000ab8: a9032be8    	stp	x8, x10, [sp, #0x30]
100000abc: 900001a8    	adrp	x8, 0x100034000 <__ZN4core7unicode9printable12is_printable17h89a2852ebad2034eE+0x11c>
100000ac0: 91268108    	add	x8, x8, #0x9a0
100000ac4: a90423e9    	stp	x9, x8, [sp, #0x40]
100000ac8: a90523eb    	stp	x11, x8, [sp, #0x50]
100000acc: 90000228    	adrp	x8, 0x100044000 <dyld_stub_binder+0x100044000>
100000ad0: 910ec108    	add	x8, x8, #0x3b0
100000ad4: 52800069    	mov	w9, #0x3                ; =3
100000ad8: a90027e8    	stp	x8, x9, [sp]
100000adc: a901ffe9    	stp	x9, xzr, [sp, #0x18]
100000ae0: 9100c3e8    	add	x8, sp, #0x30
100000ae4: f9000be8    	str	x8, [sp, #0x10]
100000ae8: 910003e2    	mov	x2, sp
100000aec: 9400c121    	bl	0x100030f70 <__ZN4core3fmt5write17h5358bd20891469bcE>
100000af0: a9467bfd    	ldp	x29, x30, [sp, #0x60]
100000af4: 9101c3ff    	add	sp, sp, #0x70
100000af8: d65f03c0    	ret

0000000100000afc <__ZN44_$LT$$RF$T$u20$as$u20$core..fmt..Display$GT$3fmt17he64e691fd0b809c8E>:
100000afc: a9bf7bfd    	stp	x29, x30, [sp, #-0x10]!
100000b00: 910003fd    	mov	x29, sp
100000b04: aa0103e2    	mov	x2, x1
100000b08: a9400408    	ldp	x8, x1, [x0]
100000b0c: aa0803e0    	mov	x0, x8
100000b10: a8c17bfd    	ldp	x29, x30, [sp], #0x10
100000b14: 1400c520    	b	0x100031f94 <__ZN42_$LT$str$u20$as$u20$core..fmt..Display$GT$3fmt17h986fd1aa04e1c566E>

0000000100000b18 <__ZN4core3fmt3num50_$LT$impl$u20$core..fmt..Debug$u20$for$u20$i32$GT$3fmt17h203f981ecfe3a45fE>:
100000b18: a9bf7bfd    	stp	x29, x30, [sp, #-0x10]!
100000b1c: 910003fd    	mov	x29, sp
100000b20: b9403428    	ldr	w8, [x1, #0x34]
100000b24: 37200088    	tbnz	w8, #0x4, 0x100000b34 <__ZN4core3fmt3num50_$LT$impl$u20$core..fmt..Debug$u20$for$u20$i32$GT$3fmt17h203f981ecfe3a45fE+0x1c>
100000b28: 372800a8    	tbnz	w8, #0x5, 0x100000b3c <__ZN4core3fmt3num50_$LT$impl$u20$core..fmt..Debug$u20$for$u20$i32$GT$3fmt17h203f981ecfe3a45fE+0x24>
100000b2c: a8c17bfd    	ldp	x29, x30, [sp], #0x10
100000b30: 1400cf04    	b	0x100034740 <__ZN4core3fmt3num3imp52_$LT$impl$u20$core..fmt..Display$u20$for$u20$i32$GT$3fmt17hd9d44aaaacb4f573E>
100000b34: a8c17bfd    	ldp	x29, x30, [sp], #0x10
100000b38: 1400cddb    	b	0x1000342a4 <__ZN4core3fmt3num53_$LT$impl$u20$core..fmt..LowerHex$u20$for$u20$u32$GT$3fmt17h16045e40d9632e11E>
100000b3c: a8c17bfd    	ldp	x29, x30, [sp], #0x10
100000b40: 1400cdf9    	b	0x100034324 <__ZN4core3fmt3num53_$LT$impl$u20$core..fmt..UpperHex$u20$for$u20$u32$GT$3fmt17h833dba0b47459fd8E>

0000000100000b44 <__ZN4core3fmt5Write10write_char17h5d53dadac8735cc1E>:
100000b44: d10103ff    	sub	sp, sp, #0x40
100000b48: a90157f6    	stp	x22, x21, [sp, #0x10]
100000b4c: a9024ff4    	stp	x20, x19, [sp, #0x20]
100000b50: a9037bfd    	stp	x29, x30, [sp, #0x30]
100000b54: 9100c3fd    	add	x29, sp, #0x30
100000b58: aa0003f3    	mov	x19, x0
100000b5c: b9000fff    	str	wzr, [sp, #0xc]
100000b60: 7102003f    	cmp	w1, #0x80
100000b64: 54000082    	b.hs	0x100000b74 <__ZN4core3fmt5Write10write_char17h5d53dadac8735cc1E+0x30>
100000b68: 390033e1    	strb	w1, [sp, #0xc]
100000b6c: 52800034    	mov	w20, #0x1               ; =1
100000b70: 14000025    	b	0x100000c04 <__ZN4core3fmt5Write10write_char17h5d53dadac8735cc1E+0xc0>
100000b74: 7120003f    	cmp	w1, #0x800
100000b78: 54000122    	b.hs	0x100000b9c <__ZN4core3fmt5Write10write_char17h5d53dadac8735cc1E+0x58>
100000b7c: 53067c28    	lsr	w8, w1, #6
100000b80: 321a0508    	orr	w8, w8, #0xc0
100000b84: 390033e8    	strb	w8, [sp, #0xc]
100000b88: 52801008    	mov	w8, #0x80               ; =128
100000b8c: 33001428    	bfxil	w8, w1, #0, #6
100000b90: 390037e8    	strb	w8, [sp, #0xd]
100000b94: 52800054    	mov	w20, #0x2               ; =2
100000b98: 1400001b    	b	0x100000c04 <__ZN4core3fmt5Write10write_char17h5d53dadac8735cc1E+0xc0>
100000b9c: 7140403f    	cmp	w1, #0x10, lsl #12      ; =0x10000
100000ba0: 54000182    	b.hs	0x100000bd0 <__ZN4core3fmt5Write10write_char17h5d53dadac8735cc1E+0x8c>
100000ba4: 530c7c28    	lsr	w8, w1, #12
100000ba8: 321b0908    	orr	w8, w8, #0xe0
100000bac: 390033e8    	strb	w8, [sp, #0xc]
100000bb0: 52801008    	mov	w8, #0x80               ; =128
100000bb4: 52801009    	mov	w9, #0x80               ; =128
100000bb8: 33062c29    	bfxil	w9, w1, #6, #6
100000bbc: 390037e9    	strb	w9, [sp, #0xd]
100000bc0: 33001428    	bfxil	w8, w1, #0, #6
100000bc4: 39003be8    	strb	w8, [sp, #0xe]
100000bc8: 52800074    	mov	w20, #0x3               ; =3
100000bcc: 1400000e    	b	0x100000c04 <__ZN4core3fmt5Write10write_char17h5d53dadac8735cc1E+0xc0>
100000bd0: 53127c28    	lsr	w8, w1, #18
100000bd4: 321c0d08    	orr	w8, w8, #0xf0
100000bd8: 390033e8    	strb	w8, [sp, #0xc]
100000bdc: 52801008    	mov	w8, #0x80               ; =128
100000be0: 52801009    	mov	w9, #0x80               ; =128
100000be4: 330c4429    	bfxil	w9, w1, #12, #6
100000be8: 390037e9    	strb	w9, [sp, #0xd]
100000bec: 52801009    	mov	w9, #0x80               ; =128
100000bf0: 33062c29    	bfxil	w9, w1, #6, #6
100000bf4: 39003be9    	strb	w9, [sp, #0xe]
100000bf8: 33001428    	bfxil	w8, w1, #0, #6
100000bfc: 39003fe8    	strb	w8, [sp, #0xf]
100000c00: 52800094    	mov	w20, #0x4               ; =4
100000c04: 910033f5    	add	x21, sp, #0xc
100000c08: 321f77f6    	mov	w22, #0x7ffffffe        ; =2147483646
100000c0c: 14000006    	b	0x100000c24 <__ZN4core3fmt5Write10write_char17h5d53dadac8735cc1E+0xe0>
100000c10: 9400d552    	bl	0x100036158 <dyld_stub_binder+0x100036158>
100000c14: b9800008    	ldrsw	x8, [x0]
100000c18: 7100111f    	cmp	w8, #0x4
100000c1c: 540002c1    	b.ne	0x100000c74 <__ZN4core3fmt5Write10write_char17h5d53dadac8735cc1E+0x130>
100000c20: b40001d4    	cbz	x20, 0x100000c58 <__ZN4core3fmt5Write10write_char17h5d53dadac8735cc1E+0x114>
100000c24: eb16029f    	cmp	x20, x22
100000c28: 9a963282    	csel	x2, x20, x22, lo
100000c2c: 52800040    	mov	w0, #0x2                ; =2
100000c30: aa1503e1    	mov	x1, x21
100000c34: 9400d5e2    	bl	0x1000363bc <dyld_stub_binder+0x1000363bc>
100000c38: b100041f    	cmn	x0, #0x1
100000c3c: 54fffea0    	b.eq	0x100000c10 <__ZN4core3fmt5Write10write_char17h5d53dadac8735cc1E+0xcc>
100000c40: b4000100    	cbz	x0, 0x100000c60 <__ZN4core3fmt5Write10write_char17h5d53dadac8735cc1E+0x11c>
100000c44: eb000288    	subs	x8, x20, x0
100000c48: 54000303    	b.lo	0x100000ca8 <__ZN4core3fmt5Write10write_char17h5d53dadac8735cc1E+0x164>
100000c4c: 8b0002b5    	add	x21, x21, x0
100000c50: aa0803f4    	mov	x20, x8
100000c54: b5fffe88    	cbnz	x8, 0x100000c24 <__ZN4core3fmt5Write10write_char17h5d53dadac8735cc1E+0xe0>
100000c58: 52800000    	mov	w0, #0x0                ; =0
100000c5c: 1400000e    	b	0x100000c94 <__ZN4core3fmt5Write10write_char17h5d53dadac8735cc1E+0x150>
100000c60: 90000234    	adrp	x20, 0x100044000 <dyld_stub_binder+0x100044000>
100000c64: 9127c294    	add	x20, x20, #0x9f0
100000c68: f8408e68    	ldr	x8, [x19, #0x8]!
100000c6c: b50000c8    	cbnz	x8, 0x100000c84 <__ZN4core3fmt5Write10write_char17h5d53dadac8735cc1E+0x140>
100000c70: 14000007    	b	0x100000c8c <__ZN4core3fmt5Write10write_char17h5d53dadac8735cc1E+0x148>
100000c74: 52800049    	mov	w9, #0x2                ; =2
100000c78: aa088134    	orr	x20, x9, x8, lsl #32
100000c7c: f8408e68    	ldr	x8, [x19, #0x8]!
100000c80: b4000068    	cbz	x8, 0x100000c8c <__ZN4core3fmt5Write10write_char17h5d53dadac8735cc1E+0x148>
100000c84: aa1303e0    	mov	x0, x19
100000c88: 94000521    	bl	0x10000210c <__ZN4core3ptr42drop_in_place$LT$std..io..error..Error$GT$17h36811cc168898e97E>
100000c8c: f9000274    	str	x20, [x19]
100000c90: 52800020    	mov	w0, #0x1                ; =1
100000c94: a9437bfd    	ldp	x29, x30, [sp, #0x30]
100000c98: a9424ff4    	ldp	x20, x19, [sp, #0x20]
100000c9c: a94157f6    	ldp	x22, x21, [sp, #0x10]
100000ca0: 910103ff    	add	sp, sp, #0x40
100000ca4: d65f03c0    	ret
100000ca8: 90000222    	adrp	x2, 0x100044000 <dyld_stub_binder+0x100044000>
100000cac: 91282042    	add	x2, x2, #0xa08
100000cb0: aa1403e1    	mov	x1, x20
100000cb4: 9400d4d2    	bl	0x100035ffc <__ZN4core5slice5index26slice_start_index_len_fail17hb941cdec3696e1afE>
100000cb8: f9000274    	str	x20, [x19]
100000cbc: 9400d51e    	bl	0x100036134 <dyld_stub_binder+0x100036134>

0000000100000cc0 <__ZN4core3fmt5Write10write_char17ha7bccd0c0120d52cE>:
100000cc0: d100c3ff    	sub	sp, sp, #0x30
100000cc4: a9014ff4    	stp	x20, x19, [sp, #0x10]
100000cc8: a9027bfd    	stp	x29, x30, [sp, #0x20]
100000ccc: 910083fd    	add	x29, sp, #0x20
100000cd0: aa0003f3    	mov	x19, x0
100000cd4: b9000fff    	str	wzr, [sp, #0xc]
100000cd8: 7102003f    	cmp	w1, #0x80
100000cdc: 54000122    	b.hs	0x100000d00 <__ZN4core3fmt5Write10write_char17ha7bccd0c0120d52cE+0x40>
100000ce0: 390033e1    	strb	w1, [sp, #0xc]
100000ce4: 52800022    	mov	w2, #0x1                ; =1
100000ce8: f9400260    	ldr	x0, [x19]
100000cec: 910033e1    	add	x1, sp, #0xc
100000cf0: 94006952    	bl	0x10001b238 <__ZN61_$LT$std..io..stdio..StdoutLock$u20$as$u20$std..io..Write$GT$9write_all17hc4f838c13c7521f1E>
100000cf4: aa0003f4    	mov	x20, x0
100000cf8: b50006a0    	cbnz	x0, 0x100000dcc <__ZN4core3fmt5Write10write_char17ha7bccd0c0120d52cE+0x10c>
100000cfc: 14000039    	b	0x100000de0 <__ZN4core3fmt5Write10write_char17ha7bccd0c0120d52cE+0x120>
100000d00: 7120003f    	cmp	w1, #0x800
100000d04: 540001c2    	b.hs	0x100000d3c <__ZN4core3fmt5Write10write_char17ha7bccd0c0120d52cE+0x7c>
100000d08: 53067c28    	lsr	w8, w1, #6
100000d0c: 321a0508    	orr	w8, w8, #0xc0
100000d10: 390033e8    	strb	w8, [sp, #0xc]
100000d14: 52801008    	mov	w8, #0x80               ; =128
100000d18: 33001428    	bfxil	w8, w1, #0, #6
100000d1c: 390037e8    	strb	w8, [sp, #0xd]
100000d20: 52800042    	mov	w2, #0x2                ; =2
100000d24: f9400260    	ldr	x0, [x19]
100000d28: 910033e1    	add	x1, sp, #0xc
100000d2c: 94006943    	bl	0x10001b238 <__ZN61_$LT$std..io..stdio..StdoutLock$u20$as$u20$std..io..Write$GT$9write_all17hc4f838c13c7521f1E>
100000d30: aa0003f4    	mov	x20, x0
100000d34: b50004c0    	cbnz	x0, 0x100000dcc <__ZN4core3fmt5Write10write_char17ha7bccd0c0120d52cE+0x10c>
100000d38: 1400002a    	b	0x100000de0 <__ZN4core3fmt5Write10write_char17ha7bccd0c0120d52cE+0x120>
100000d3c: 7140403f    	cmp	w1, #0x10, lsl #12      ; =0x10000
100000d40: 54000222    	b.hs	0x100000d84 <__ZN4core3fmt5Write10write_char17ha7bccd0c0120d52cE+0xc4>
100000d44: 530c7c28    	lsr	w8, w1, #12
100000d48: 321b0908    	orr	w8, w8, #0xe0
100000d4c: 390033e8    	strb	w8, [sp, #0xc]
100000d50: 52801008    	mov	w8, #0x80               ; =128
100000d54: 52801009    	mov	w9, #0x80               ; =128
100000d58: 33062c29    	bfxil	w9, w1, #6, #6
100000d5c: 390037e9    	strb	w9, [sp, #0xd]
100000d60: 33001428    	bfxil	w8, w1, #0, #6
100000d64: 39003be8    	strb	w8, [sp, #0xe]
100000d68: 52800062    	mov	w2, #0x3                ; =3
100000d6c: f9400260    	ldr	x0, [x19]
100000d70: 910033e1    	add	x1, sp, #0xc
100000d74: 94006931    	bl	0x10001b238 <__ZN61_$LT$std..io..stdio..StdoutLock$u20$as$u20$std..io..Write$GT$9write_all17hc4f838c13c7521f1E>
100000d78: aa0003f4    	mov	x20, x0
100000d7c: b5000280    	cbnz	x0, 0x100000dcc <__ZN4core3fmt5Write10write_char17ha7bccd0c0120d52cE+0x10c>
100000d80: 14000018    	b	0x100000de0 <__ZN4core3fmt5Write10write_char17ha7bccd0c0120d52cE+0x120>
100000d84: 53127c28    	lsr	w8, w1, #18
100000d88: 321c0d08    	orr	w8, w8, #0xf0
100000d8c: 390033e8    	strb	w8, [sp, #0xc]
100000d90: 52801008    	mov	w8, #0x80               ; =128
100000d94: 52801009    	mov	w9, #0x80               ; =128
100000d98: 330c4429    	bfxil	w9, w1, #12, #6
100000d9c: 390037e9    	strb	w9, [sp, #0xd]
100000da0: 52801009    	mov	w9, #0x80               ; =128
100000da4: 33062c29    	bfxil	w9, w1, #6, #6
100000da8: 39003be9    	strb	w9, [sp, #0xe]
100000dac: 33001428    	bfxil	w8, w1, #0, #6
100000db0: 39003fe8    	strb	w8, [sp, #0xf]
100000db4: 52800082    	mov	w2, #0x4                ; =4
100000db8: f9400260    	ldr	x0, [x19]
100000dbc: 910033e1    	add	x1, sp, #0xc
100000dc0: 9400691e    	bl	0x10001b238 <__ZN61_$LT$std..io..stdio..StdoutLock$u20$as$u20$std..io..Write$GT$9write_all17hc4f838c13c7521f1E>
100000dc4: aa0003f4    	mov	x20, x0
100000dc8: b40000c0    	cbz	x0, 0x100000de0 <__ZN4core3fmt5Write10write_char17ha7bccd0c0120d52cE+0x120>
100000dcc: f8408e68    	ldr	x8, [x19, #0x8]!
100000dd0: b4000068    	cbz	x8, 0x100000ddc <__ZN4core3fmt5Write10write_char17ha7bccd0c0120d52cE+0x11c>
100000dd4: aa1303e0    	mov	x0, x19
100000dd8: 940004cd    	bl	0x10000210c <__ZN4core3ptr42drop_in_place$LT$std..io..error..Error$GT$17h36811cc168898e97E>
100000ddc: f9000274    	str	x20, [x19]
100000de0: f100029f    	cmp	x20, #0x0
100000de4: 1a9f07e0    	cset	w0, ne
100000de8: a9427bfd    	ldp	x29, x30, [sp, #0x20]
100000dec: a9414ff4    	ldp	x20, x19, [sp, #0x10]
100000df0: 9100c3ff    	add	sp, sp, #0x30
100000df4: d65f03c0    	ret
100000df8: f9000274    	str	x20, [x19]
100000dfc: 9400d4ce    	bl	0x100036134 <dyld_stub_binder+0x100036134>

0000000100000e00 <__ZN4core3fmt5Write10write_char17hda083bece576cabeE>:
100000e00: d10103ff    	sub	sp, sp, #0x40
100000e04: a90157f6    	stp	x22, x21, [sp, #0x10]
100000e08: a9024ff4    	stp	x20, x19, [sp, #0x20]
100000e0c: a9037bfd    	stp	x29, x30, [sp, #0x30]
100000e10: 9100c3fd    	add	x29, sp, #0x30
100000e14: b9000fff    	str	wzr, [sp, #0xc]
100000e18: 7102003f    	cmp	w1, #0x80
100000e1c: 54000082    	b.hs	0x100000e2c <__ZN4core3fmt5Write10write_char17hda083bece576cabeE+0x2c>
100000e20: 390033e1    	strb	w1, [sp, #0xc]
100000e24: 52800033    	mov	w19, #0x1               ; =1
100000e28: 14000025    	b	0x100000ebc <__ZN4core3fmt5Write10write_char17hda083bece576cabeE+0xbc>
100000e2c: 7120003f    	cmp	w1, #0x800
100000e30: 54000122    	b.hs	0x100000e54 <__ZN4core3fmt5Write10write_char17hda083bece576cabeE+0x54>
100000e34: 53067c28    	lsr	w8, w1, #6
100000e38: 321a0508    	orr	w8, w8, #0xc0
100000e3c: 390033e8    	strb	w8, [sp, #0xc]
100000e40: 52801008    	mov	w8, #0x80               ; =128
100000e44: 33001428    	bfxil	w8, w1, #0, #6
100000e48: 390037e8    	strb	w8, [sp, #0xd]
100000e4c: 52800053    	mov	w19, #0x2               ; =2
100000e50: 1400001b    	b	0x100000ebc <__ZN4core3fmt5Write10write_char17hda083bece576cabeE+0xbc>
100000e54: 7140403f    	cmp	w1, #0x10, lsl #12      ; =0x10000
100000e58: 54000182    	b.hs	0x100000e88 <__ZN4core3fmt5Write10write_char17hda083bece576cabeE+0x88>
100000e5c: 530c7c28    	lsr	w8, w1, #12
100000e60: 321b0908    	orr	w8, w8, #0xe0
100000e64: 390033e8    	strb	w8, [sp, #0xc]
100000e68: 52801008    	mov	w8, #0x80               ; =128
100000e6c: 52801009    	mov	w9, #0x80               ; =128
100000e70: 33062c29    	bfxil	w9, w1, #6, #6
100000e74: 390037e9    	strb	w9, [sp, #0xd]
100000e78: 33001428    	bfxil	w8, w1, #0, #6
100000e7c: 39003be8    	strb	w8, [sp, #0xe]
100000e80: 52800073    	mov	w19, #0x3               ; =3
100000e84: 1400000e    	b	0x100000ebc <__ZN4core3fmt5Write10write_char17hda083bece576cabeE+0xbc>
100000e88: 53127c28    	lsr	w8, w1, #18
100000e8c: 321c0d08    	orr	w8, w8, #0xf0
100000e90: 390033e8    	strb	w8, [sp, #0xc]
100000e94: 52801008    	mov	w8, #0x80               ; =128
100000e98: 52801009    	mov	w9, #0x80               ; =128
100000e9c: 330c4429    	bfxil	w9, w1, #12, #6
100000ea0: 390037e9    	strb	w9, [sp, #0xd]
100000ea4: 52801009    	mov	w9, #0x80               ; =128
100000ea8: 33062c29    	bfxil	w9, w1, #6, #6
100000eac: 39003be9    	strb	w9, [sp, #0xe]
100000eb0: 33001428    	bfxil	w8, w1, #0, #6
100000eb4: 39003fe8    	strb	w8, [sp, #0xf]
100000eb8: 52800093    	mov	w19, #0x4               ; =4
100000ebc: f9400014    	ldr	x20, [x0]
100000ec0: f9400a95    	ldr	x21, [x20, #0x10]
100000ec4: f9400288    	ldr	x8, [x20]
100000ec8: cb150108    	sub	x8, x8, x21
100000ecc: eb13011f    	cmp	x8, x19
100000ed0: 540001c3    	b.lo	0x100000f08 <__ZN4core3fmt5Write10write_char17hda083bece576cabeE+0x108>
100000ed4: f9400688    	ldr	x8, [x20, #0x8]
100000ed8: 8b150100    	add	x0, x8, x21
100000edc: 910033e1    	add	x1, sp, #0xc
100000ee0: aa1303e2    	mov	x2, x19
100000ee4: 9400d4e2    	bl	0x10003626c <dyld_stub_binder+0x10003626c>
100000ee8: 8b1302a8    	add	x8, x21, x19
100000eec: f9000a88    	str	x8, [x20, #0x10]
100000ef0: 52800000    	mov	w0, #0x0                ; =0
100000ef4: a9437bfd    	ldp	x29, x30, [sp, #0x30]
100000ef8: a9424ff4    	ldp	x20, x19, [sp, #0x20]
100000efc: a94157f6    	ldp	x22, x21, [sp, #0x10]
100000f00: 910103ff    	add	sp, sp, #0x40
100000f04: d65f03c0    	ret
100000f08: aa1403e0    	mov	x0, x20
100000f0c: aa1503e1    	mov	x1, x21
100000f10: aa1303e2    	mov	x2, x19
100000f14: 52800023    	mov	w3, #0x1                ; =1
100000f18: 52800024    	mov	w4, #0x1                ; =1
100000f1c: 9400d044    	bl	0x10003502c <__ZN5alloc7raw_vec20RawVecInner$LT$A$GT$7reserve21do_reserve_and_handle17h403724e8b0ca20deE>
100000f20: f9400a95    	ldr	x21, [x20, #0x10]
100000f24: 17ffffec    	b	0x100000ed4 <__ZN4core3fmt5Write10write_char17hda083bece576cabeE+0xd4>

0000000100000f28 <__ZN4core3fmt5Write9write_fmt17h56be54d14ba94a16E>:
100000f28: a9bf7bfd    	stp	x29, x30, [sp, #-0x10]!
100000f2c: 910003fd    	mov	x29, sp
100000f30: aa0103e2    	mov	x2, x1
100000f34: 90000221    	adrp	x1, 0x100044000 <dyld_stub_binder+0x100044000>
100000f38: 9111c021    	add	x1, x1, #0x470
100000f3c: a8c17bfd    	ldp	x29, x30, [sp], #0x10
100000f40: 1400c00c    	b	0x100030f70 <__ZN4core3fmt5write17h5358bd20891469bcE>

0000000100000f44 <__ZN4core3fmt5Write9write_fmt17h5bf1c5b5c05bbc85E>:
100000f44: a9bf7bfd    	stp	x29, x30, [sp, #-0x10]!
100000f48: 910003fd    	mov	x29, sp
100000f4c: aa0103e2    	mov	x2, x1
100000f50: 90000221    	adrp	x1, 0x100044000 <dyld_stub_binder+0x100044000>
100000f54: 91104021    	add	x1, x1, #0x410
100000f58: a8c17bfd    	ldp	x29, x30, [sp], #0x10
100000f5c: 1400c005    	b	0x100030f70 <__ZN4core3fmt5write17h5358bd20891469bcE>

0000000100000f60 <__ZN4core3fmt5Write9write_fmt17h9724364339f7d01aE>:
100000f60: a9bf7bfd    	stp	x29, x30, [sp, #-0x10]!
100000f64: 910003fd    	mov	x29, sp
100000f68: aa0103e2    	mov	x2, x1
100000f6c: 90000221    	adrp	x1, 0x100044000 <dyld_stub_binder+0x100044000>
100000f70: 91110021    	add	x1, x1, #0x440
100000f74: a8c17bfd    	ldp	x29, x30, [sp], #0x10
100000f78: 1400bffe    	b	0x100030f70 <__ZN4core3fmt5write17h5358bd20891469bcE>

0000000100000f7c <__ZN4core3fmt5Write9write_fmt17ha80adcbef64cf89bE>:
100000f7c: a9bf7bfd    	stp	x29, x30, [sp, #-0x10]!
100000f80: 910003fd    	mov	x29, sp
100000f84: aa0103e2    	mov	x2, x1
100000f88: 90000221    	adrp	x1, 0x100044000 <dyld_stub_binder+0x100044000>
100000f8c: 910f8021    	add	x1, x1, #0x3e0
100000f90: a8c17bfd    	ldp	x29, x30, [sp], #0x10
100000f94: 1400bff7    	b	0x100030f70 <__ZN4core3fmt5write17h5358bd20891469bcE>

0000000100000f98 <__ZN4core3ops8function6FnOnce40call_once$u7b$$u7b$vtable.shim$u7d$$u7d$17h13a6b0c24e9e6903E>:
100000f98: d10143ff    	sub	sp, sp, #0x50
100000f9c: a90257f6    	stp	x22, x21, [sp, #0x20]
100000fa0: a9034ff4    	stp	x20, x19, [sp, #0x30]
100000fa4: a9047bfd    	stp	x29, x30, [sp, #0x40]
100000fa8: 910103fd    	add	x29, sp, #0x40
100000fac: aa0103e8    	mov	x8, x1
100000fb0: aa0003f3    	mov	x19, x0
100000fb4: f90003e1    	str	x1, [sp]
100000fb8: 910003e9    	mov	x9, sp
100000fbc: 3dc00040    	ldr	q0, [x2]
100000fc0: 3c8083e0    	stur	q0, [sp, #0x8]
100000fc4: f940084a    	ldr	x10, [x2, #0x10]
100000fc8: f9000fea    	str	x10, [sp, #0x18]
100000fcc: 39406002    	ldrb	w2, [x0, #0x18]
100000fd0: f9400014    	ldr	x20, [x0]
100000fd4: d2f00015    	mov	x21, #-0x8000000000000000 ; =-9223372036854775808
100000fd8: eb15029f    	cmp	x20, x21
100000fdc: 9a8003e3    	csel	x3, xzr, x0, eq
100000fe0: 91002121    	add	x1, x9, #0x8
100000fe4: aa0803e0    	mov	x0, x8
100000fe8: 940072fc    	bl	0x10001dbd8 <__ZN3std3sys9backtrace15output_filename17hfd79fce78f0057b9E>
100000fec: b2410288    	orr	x8, x20, #0x8000000000000000
100000ff0: eb15011f    	cmp	x8, x21
100000ff4: 54000100    	b.eq	0x100001014 <__ZN4core3ops8function6FnOnce40call_once$u7b$$u7b$vtable.shim$u7d$$u7d$17h13a6b0c24e9e6903E+0x7c>
100000ff8: f9400668    	ldr	x8, [x19, #0x8]
100000ffc: aa0003f3    	mov	x19, x0
100001000: aa0803e0    	mov	x0, x8
100001004: aa1403e1    	mov	x1, x20
100001008: 52800022    	mov	w2, #0x1                ; =1
10000100c: 97fffe6c    	bl	0x1000009bc <___rust_dealloc>
100001010: aa1303e0    	mov	x0, x19
100001014: a9447bfd    	ldp	x29, x30, [sp, #0x40]
100001018: a9434ff4    	ldp	x20, x19, [sp, #0x30]
10000101c: a94257f6    	ldp	x22, x21, [sp, #0x20]
100001020: 910143ff    	add	sp, sp, #0x50
100001024: d65f03c0    	ret
100001028: aa0003f4    	mov	x20, x0
10000102c: aa1303e0    	mov	x0, x19
100001030: 94000674    	bl	0x100002a00 <__ZN4core3ptr77drop_in_place$LT$std..panicking..begin_panic_handler..FormatStringPayload$GT$17h67bb243b7260168aE>
100001034: aa1403e0    	mov	x0, x20
100001038: 9400d43f    	bl	0x100036134 <dyld_stub_binder+0x100036134>

000000010000103c <__ZN4core3ops8function6FnOnce40call_once$u7b$$u7b$vtable.shim$u7d$$u7d$17h3ca1fa5ba0473184E>:
10000103c: d10083ff    	sub	sp, sp, #0x20
100001040: a9017bfd    	stp	x29, x30, [sp, #0x10]
100001044: 910043fd    	add	x29, sp, #0x10
100001048: f9400008    	ldr	x8, [x0]
10000104c: f90007e8    	str	x8, [sp, #0x8]
100001050: 910023e0    	add	x0, sp, #0x8
100001054: 9400700c    	bl	0x10001d084 <__ZN3std4sync4once4Once9call_once28_$u7b$$u7b$closure$u7d$$u7d$17h2b940b2ff2ff2ed8E>
100001058: a9417bfd    	ldp	x29, x30, [sp, #0x10]
10000105c: 910083ff    	add	sp, sp, #0x20
100001060: d65f03c0    	ret

0000000100001064 <__ZN4core3ops8function6FnOnce40call_once$u7b$$u7b$vtable.shim$u7d$$u7d$17h44c88cc727d64614E>:
100001064: a9bf7bfd    	stp	x29, x30, [sp, #-0x10]!
100001068: 910003fd    	mov	x29, sp
10000106c: f9400008    	ldr	x8, [x0]
100001070: f9400100    	ldr	x0, [x8]
100001074: a8c17bfd    	ldp	x29, x30, [sp], #0x10
100001078: 1400d41a    	b	0x1000360e0 <dyld_stub_binder+0x1000360e0>

000000010000107c <__ZN4core3ops8function6FnOnce40call_once$u7b$$u7b$vtable.shim$u7d$$u7d$17h5a78c0822ea9f29bE>:
10000107c: a9bf7bfd    	stp	x29, x30, [sp, #-0x10]!
100001080: 910003fd    	mov	x29, sp
100001084: a8c17bfd    	ldp	x29, x30, [sp], #0x10
100001088: 14007236    	b	0x10001d960 <__ZN3std3sys9backtrace10_print_fmt28_$u7b$$u7b$closure$u7d$$u7d$28_$u7b$$u7b$closure$u7d$$u7d$17hfd24c91e32ae12ccE>

000000010000108c <__ZN4core3ops8function6FnOnce40call_once$u7b$$u7b$vtable.shim$u7d$$u7d$17h87161ec4028be573E>:
10000108c: a9bf7bfd    	stp	x29, x30, [sp, #-0x10]!
100001090: 910003fd    	mov	x29, sp
100001094: f9400008    	ldr	x8, [x0]
100001098: f9400100    	ldr	x0, [x8]
10000109c: a8c17bfd    	ldp	x29, x30, [sp], #0x10
1000010a0: 1400d41f    	b	0x10003611c <dyld_stub_binder+0x10003611c>

00000001000010a4 <__ZN4core3ops8function6FnOnce40call_once$u7b$$u7b$vtable.shim$u7d$$u7d$17h8aaebce9ea58e4a1E>:
1000010a4: a9be4ff4    	stp	x20, x19, [sp, #-0x20]!
1000010a8: a9017bfd    	stp	x29, x30, [sp, #0x10]
1000010ac: 910043fd    	add	x29, sp, #0x10
1000010b0: f9400008    	ldr	x8, [x0]
1000010b4: f9400113    	ldr	x19, [x8]
1000010b8: f900011f    	str	xzr, [x8]
1000010bc: b4000253    	cbz	x19, 0x100001104 <__ZN4core3ops8function6FnOnce40call_once$u7b$$u7b$vtable.shim$u7d$$u7d$17h8aaebce9ea58e4a1E+0x60>
1000010c0: f0000228    	adrp	x8, 0x100048000 <dyld_stub_binder+0x100048000>
1000010c4: 910e0508    	add	x8, x8, #0x381
1000010c8: 3940011f    	ldrb	wzr, [x8]
1000010cc: 52808000    	mov	w0, #0x400              ; =1024
1000010d0: 52800021    	mov	w1, #0x1                ; =1
1000010d4: 97fffe39    	bl	0x1000009b8 <___rust_alloc>
1000010d8: b40001c0    	cbz	x0, 0x100001110 <__ZN4core3ops8function6FnOnce40call_once$u7b$$u7b$vtable.shim$u7d$$u7d$17h8aaebce9ea58e4a1E+0x6c>
1000010dc: a9007e7f    	stp	xzr, xzr, [x19]
1000010e0: b900127f    	str	wzr, [x19, #0x10]
1000010e4: b00001a8    	adrp	x8, 0x100036000 <__ZN4core5slice5index26slice_start_index_len_fail17hb941cdec3696e1afE+0x4>
1000010e8: 3dc1bd00    	ldr	q0, [x8, #0x6f0]
1000010ec: 3c818260    	stur	q0, [x19, #0x18]
1000010f0: a902fe60    	stp	x0, xzr, [x19, #0x28]
1000010f4: 3900e27f    	strb	wzr, [x19, #0x38]
1000010f8: a9417bfd    	ldp	x29, x30, [sp, #0x10]
1000010fc: a8c24ff4    	ldp	x20, x19, [sp], #0x20
100001100: d65f03c0    	ret
100001104: f0000200    	adrp	x0, 0x100044000 <dyld_stub_binder+0x100044000>
100001108: 9130a000    	add	x0, x0, #0xc28
10000110c: 9400d2da    	bl	0x100035c74 <__ZN4core6option13unwrap_failed17hb903c8fd63cd2e84E>
100001110: f0000202    	adrp	x2, 0x100044000 <dyld_stub_binder+0x100044000>
100001114: 9121c042    	add	x2, x2, #0x870
100001118: 52800020    	mov	w0, #0x1                ; =1
10000111c: 52808001    	mov	w1, #0x400              ; =1024
100001120: 9400d2b8    	bl	0x100035c00 <__ZN5alloc7raw_vec12handle_error17h601d29026320c7bcE>

0000000100001124 <__ZN4core3ops8function6FnOnce40call_once$u7b$$u7b$vtable.shim$u7d$$u7d$17hd30a77ad8b790f71E>:
100001124: a9bf7bfd    	stp	x29, x30, [sp, #-0x10]!
100001128: 910003fd    	mov	x29, sp
10000112c: a8c17bfd    	ldp	x29, x30, [sp], #0x10
100001130: 140071bf    	b	0x10001d82c <__ZN3std3sys9backtrace10_print_fmt28_$u7b$$u7b$closure$u7d$$u7d$17h30c2699f8cdc8fc2E>

0000000100001134 <__ZN4core3ops8function6FnOnce40call_once$u7b$$u7b$vtable.shim$u7d$$u7d$17hfefd2e74806635a8E>:
100001134: d10103ff    	sub	sp, sp, #0x40
100001138: a9037bfd    	stp	x29, x30, [sp, #0x30]
10000113c: 9100c3fd    	add	x29, sp, #0x30
100001140: f940000a    	ldr	x10, [x0]
100001144: a9402149    	ldp	x9, x8, [x10]
100001148: f900015f    	str	xzr, [x10]
10000114c: b40001e9    	cbz	x9, 0x100001188 <__ZN4core3ops8function6FnOnce40call_once$u7b$$u7b$vtable.shim$u7d$$u7d$17hfefd2e74806635a8E+0x54>
100001150: 5280002a    	mov	w10, #0x1               ; =1
100001154: 3900012a    	strb	w10, [x9]
100001158: a900ffff    	stp	xzr, xzr, [sp, #0x8]
10000115c: b9001bff    	str	wzr, [sp, #0x18]
100001160: f90013ff    	str	xzr, [sp, #0x20]
100001164: 3cc083e0    	ldur	q0, [sp, #0x8]
100001168: 3cc183e1    	ldur	q1, [sp, #0x18]
10000116c: ad000500    	stp	q0, q1, [x8]
100001170: a902291f    	stp	xzr, x10, [x8, #0x20]
100001174: f900191f    	str	xzr, [x8, #0x30]
100001178: 3900e11f    	strb	wzr, [x8, #0x38]
10000117c: a9437bfd    	ldp	x29, x30, [sp, #0x30]
100001180: 910103ff    	add	sp, sp, #0x40
100001184: d65f03c0    	ret
100001188: f0000200    	adrp	x0, 0x100044000 <dyld_stub_binder+0x100044000>
10000118c: 9130a000    	add	x0, x0, #0xc28
100001190: 9400d2b9    	bl	0x100035c74 <__ZN4core6option13unwrap_failed17hb903c8fd63cd2e84E>

0000000100001194 <__ZN4core3ptr101drop_in_place$LT$alloc..sync..Arc$LT$std..sync..mutex..Mutex$LT$alloc..vec..Vec$LT$u8$GT$$GT$$GT$$GT$17ha6b44a26b121ba49E>:
100001194: a9bf7bfd    	stp	x29, x30, [sp, #-0x10]!
100001198: 910003fd    	mov	x29, sp
10000119c: f9400008    	ldr	x8, [x0]
1000011a0: 92800009    	mov	x9, #-0x1               ; =-1
1000011a4: f8690108    	ldaddl	x9, x8, [x8]
1000011a8: f100051f    	cmp	x8, #0x1
1000011ac: 54000081    	b.ne	0x1000011bc <__ZN4core3ptr101drop_in_place$LT$alloc..sync..Arc$LT$std..sync..mutex..Mutex$LT$alloc..vec..Vec$LT$u8$GT$$GT$$GT$$GT$17ha6b44a26b121ba49E+0x28>
1000011b0: d50339bf    	dmb	ishld
1000011b4: a8c17bfd    	ldp	x29, x30, [sp], #0x10
1000011b8: 14002b0a    	b	0x10000bde0 <__ZN5alloc4sync16Arc$LT$T$C$A$GT$9drop_slow17h861c99df7480a512E>
1000011bc: a8c17bfd    	ldp	x29, x30, [sp], #0x10
1000011c0: d65f03c0    	ret

00000001000011c4 <__ZN4core3ptr104drop_in_place$LT$alloc..vec..Vec$LT$$LP$usize$C$std..backtrace_rs..symbolize..gimli..Mapping$RP$$GT$$GT$17h554cd8b212a3dc73E>:
1000011c4: a9bc5ff8    	stp	x24, x23, [sp, #-0x40]!
1000011c8: a90157f6    	stp	x22, x21, [sp, #0x10]
1000011cc: a9024ff4    	stp	x20, x19, [sp, #0x20]
1000011d0: a9037bfd    	stp	x29, x30, [sp, #0x30]
1000011d4: 9100c3fd    	add	x29, sp, #0x30
1000011d8: aa0003f4    	mov	x20, x0
1000011dc: a940a013    	ldp	x19, x8, [x0, #0x8]
1000011e0: 91002260    	add	x0, x19, #0x8
1000011e4: 91000517    	add	x23, x8, #0x1
1000011e8: f10006f7    	subs	x23, x23, #0x1
1000011ec: 540000a0    	b.eq	0x100001200 <__ZN4core3ptr104drop_in_place$LT$alloc..vec..Vec$LT$$LP$usize$C$std..backtrace_rs..symbolize..gimli..Mapping$RP$$GT$$GT$17h554cd8b212a3dc73E+0x3c>
1000011f0: 91094016    	add	x22, x0, #0x250
1000011f4: 940004d2    	bl	0x10000253c <__ZN4core3ptr65drop_in_place$LT$std..backtrace_rs..symbolize..gimli..Mapping$GT$17h4bdffbb391e18304E>
1000011f8: aa1603e0    	mov	x0, x22
1000011fc: 17fffffb    	b	0x1000011e8 <__ZN4core3ptr104drop_in_place$LT$alloc..vec..Vec$LT$$LP$usize$C$std..backtrace_rs..symbolize..gimli..Mapping$RP$$GT$$GT$17h554cd8b212a3dc73E+0x24>
100001200: f9400288    	ldr	x8, [x20]
100001204: b4000148    	cbz	x8, 0x10000122c <__ZN4core3ptr104drop_in_place$LT$alloc..vec..Vec$LT$$LP$usize$C$std..backtrace_rs..symbolize..gimli..Mapping$RP$$GT$$GT$17h554cd8b212a3dc73E+0x68>
100001208: 52804a09    	mov	w9, #0x250              ; =592
10000120c: 9b097d01    	mul	x1, x8, x9
100001210: aa1303e0    	mov	x0, x19
100001214: 52800102    	mov	w2, #0x8                ; =8
100001218: a9437bfd    	ldp	x29, x30, [sp, #0x30]
10000121c: a9424ff4    	ldp	x20, x19, [sp, #0x20]
100001220: a94157f6    	ldp	x22, x21, [sp, #0x10]
100001224: a8c45ff8    	ldp	x24, x23, [sp], #0x40
100001228: 17fffde5    	b	0x1000009bc <___rust_dealloc>
10000122c: a9437bfd    	ldp	x29, x30, [sp, #0x30]
100001230: a9424ff4    	ldp	x20, x19, [sp, #0x20]
100001234: a94157f6    	ldp	x22, x21, [sp, #0x10]
100001238: a8c45ff8    	ldp	x24, x23, [sp], #0x40
10000123c: d65f03c0    	ret
100001240: aa0003f5    	mov	x21, x0
100001244: f10006f7    	subs	x23, x23, #0x1
100001248: 540000c0    	b.eq	0x100001260 <__ZN4core3ptr104drop_in_place$LT$alloc..vec..Vec$LT$$LP$usize$C$std..backtrace_rs..symbolize..gimli..Mapping$RP$$GT$$GT$17h554cd8b212a3dc73E+0x9c>
10000124c: 910942d8    	add	x24, x22, #0x250
100001250: aa1603e0    	mov	x0, x22
100001254: 940004ba    	bl	0x10000253c <__ZN4core3ptr65drop_in_place$LT$std..backtrace_rs..symbolize..gimli..Mapping$GT$17h4bdffbb391e18304E>
100001258: aa1803f6    	mov	x22, x24
10000125c: 17fffffa    	b	0x100001244 <__ZN4core3ptr104drop_in_place$LT$alloc..vec..Vec$LT$$LP$usize$C$std..backtrace_rs..symbolize..gimli..Mapping$RP$$GT$$GT$17h554cd8b212a3dc73E+0x80>
100001260: f9400288    	ldr	x8, [x20]
100001264: b40000c8    	cbz	x8, 0x10000127c <__ZN4core3ptr104drop_in_place$LT$alloc..vec..Vec$LT$$LP$usize$C$std..backtrace_rs..symbolize..gimli..Mapping$RP$$GT$$GT$17h554cd8b212a3dc73E+0xb8>
100001268: 52804a09    	mov	w9, #0x250              ; =592
10000126c: 9b097d01    	mul	x1, x8, x9
100001270: aa1303e0    	mov	x0, x19
100001274: 52800102    	mov	w2, #0x8                ; =8
100001278: 97fffdd1    	bl	0x1000009bc <___rust_dealloc>
10000127c: aa1503e0    	mov	x0, x21
100001280: 9400d3ad    	bl	0x100036134 <dyld_stub_binder+0x100036134>
100001284: 9400d2f1    	bl	0x100035e48 <__ZN4core9panicking16panic_in_cleanup17h08fe812c23ada610E>

0000000100001288 <__ZN4core3ptr108drop_in_place$LT$alloc..collections..btree..map..BTreeMap$LT$u64$C$gimli..read..abbrev..Abbreviation$GT$$GT$17h20b9ddf2029b81c7E>:
100001288: d10203ff    	sub	sp, sp, #0x80
10000128c: a9064ff4    	stp	x20, x19, [sp, #0x60]
100001290: a9077bfd    	stp	x29, x30, [sp, #0x70]
100001294: 9101c3fd    	add	x29, sp, #0x70
100001298: f9400009    	ldr	x9, [x0]
10000129c: b4000109    	cbz	x9, 0x1000012bc <__ZN4core3ptr108drop_in_place$LT$alloc..collections..btree..map..BTreeMap$LT$u64$C$gimli..read..abbrev..Abbreviation$GT$$GT$17h20b9ddf2029b81c7E+0x34>
1000012a0: a940a00a    	ldp	x10, x8, [x0, #0x8]
1000012a4: a900a7ff    	stp	xzr, x9, [sp, #0x8]
1000012a8: f9000fea    	str	x10, [sp, #0x18]
1000012ac: a902a7ff    	stp	xzr, x9, [sp, #0x28]
1000012b0: f9001fea    	str	x10, [sp, #0x38]
1000012b4: 52800029    	mov	w9, #0x1                ; =1
1000012b8: 14000002    	b	0x1000012c0 <__ZN4core3ptr108drop_in_place$LT$alloc..collections..btree..map..BTreeMap$LT$u64$C$gimli..read..abbrev..Abbreviation$GT$$GT$17h20b9ddf2029b81c7E+0x38>
1000012bc: d2800008    	mov	x8, #0x0                ; =0
1000012c0: f90003e9    	str	x9, [sp]
1000012c4: f90013e9    	str	x9, [sp, #0x20]
1000012c8: f90023e8    	str	x8, [sp, #0x40]
1000012cc: d100a3a0    	sub	x0, x29, #0x28
1000012d0: 910003e1    	mov	x1, sp
1000012d4: 9400292f    	bl	0x10000b790 <__ZN5alloc11collections5btree3map25IntoIter$LT$K$C$V$C$A$GT$10dying_next17h7e0f2f08bf203829E>
1000012d8: f85d83a8    	ldur	x8, [x29, #-0x28]
1000012dc: b4000268    	cbz	x8, 0x100001328 <__ZN4core3ptr108drop_in_place$LT$alloc..collections..btree..map..BTreeMap$LT$u64$C$gimli..read..abbrev..Abbreviation$GT$$GT$17h20b9ddf2029b81c7E+0xa0>
1000012e0: 52800e13    	mov	w19, #0x70              ; =112
1000012e4: 14000006    	b	0x1000012fc <__ZN4core3ptr108drop_in_place$LT$alloc..collections..btree..map..BTreeMap$LT$u64$C$gimli..read..abbrev..Abbreviation$GT$$GT$17h20b9ddf2029b81c7E+0x74>
1000012e8: d100a3a0    	sub	x0, x29, #0x28
1000012ec: 910003e1    	mov	x1, sp
1000012f0: 94002928    	bl	0x10000b790 <__ZN5alloc11collections5btree3map25IntoIter$LT$K$C$V$C$A$GT$10dying_next17h7e0f2f08bf203829E>
1000012f4: f85d83a8    	ldur	x8, [x29, #-0x28]
1000012f8: b4000188    	cbz	x8, 0x100001328 <__ZN4core3ptr108drop_in_place$LT$alloc..collections..btree..map..BTreeMap$LT$u64$C$gimli..read..abbrev..Abbreviation$GT$$GT$17h20b9ddf2029b81c7E+0xa0>
1000012fc: f85e83a9    	ldur	x9, [x29, #-0x18]
100001300: 9b132128    	madd	x8, x9, x19, x8
100001304: f9400109    	ldr	x9, [x8]
100001308: b4ffff09    	cbz	x9, 0x1000012e8 <__ZN4core3ptr108drop_in_place$LT$alloc..collections..btree..map..BTreeMap$LT$u64$C$gimli..read..abbrev..Abbreviation$GT$$GT$17h20b9ddf2029b81c7E+0x60>
10000130c: f9400509    	ldr	x9, [x8, #0x8]
100001310: b4fffec9    	cbz	x9, 0x1000012e8 <__ZN4core3ptr108drop_in_place$LT$alloc..collections..btree..map..BTreeMap$LT$u64$C$gimli..read..abbrev..Abbreviation$GT$$GT$17h20b9ddf2029b81c7E+0x60>
100001314: f9400900    	ldr	x0, [x8, #0x10]
100001318: d37ced21    	lsl	x1, x9, #4
10000131c: 52800102    	mov	w2, #0x8                ; =8
100001320: 97fffda7    	bl	0x1000009bc <___rust_dealloc>
100001324: 17fffff1    	b	0x1000012e8 <__ZN4core3ptr108drop_in_place$LT$alloc..collections..btree..map..BTreeMap$LT$u64$C$gimli..read..abbrev..Abbreviation$GT$$GT$17h20b9ddf2029b81c7E+0x60>
100001328: a9477bfd    	ldp	x29, x30, [sp, #0x70]
10000132c: a9464ff4    	ldp	x20, x19, [sp, #0x60]
100001330: 910203ff    	add	sp, sp, #0x80
100001334: d65f03c0    	ret

0000000100001338 <__ZN4core3ptr123drop_in_place$LT$addr2line..Context$LT$gimli..read..endian_slice..EndianSlice$LT$gimli..endianity..LittleEndian$GT$$GT$$GT$17h6b865e36f3642250E>:
100001338: a9bb67fa    	stp	x26, x25, [sp, #-0x50]!
10000133c: a9015ff8    	stp	x24, x23, [sp, #0x10]
100001340: a90257f6    	stp	x22, x21, [sp, #0x20]
100001344: a9034ff4    	stp	x20, x19, [sp, #0x30]
100001348: a9047bfd    	stp	x29, x30, [sp, #0x40]
10000134c: 910103fd    	add	x29, sp, #0x40
100001350: aa0003f3    	mov	x19, x0
100001354: f9400008    	ldr	x8, [x0]
100001358: 92800009    	mov	x9, #-0x1               ; =-1
10000135c: f8690108    	ldaddl	x9, x8, [x8]
100001360: f100051f    	cmp	x8, #0x1
100001364: 54000081    	b.ne	0x100001374 <__ZN4core3ptr123drop_in_place$LT$addr2line..Context$LT$gimli..read..endian_slice..EndianSlice$LT$gimli..endianity..LittleEndian$GT$$GT$$GT$17h6b865e36f3642250E+0x3c>
100001368: d50339bf    	dmb	ishld
10000136c: aa1303e0    	mov	x0, x19
100001370: 94002a1a    	bl	0x10000bbd8 <__ZN5alloc4sync16Arc$LT$T$C$A$GT$9drop_slow17h3b5114797d849af5E>
100001374: f9400a68    	ldr	x8, [x19, #0x10]
100001378: b40000a8    	cbz	x8, 0x10000138c <__ZN4core3ptr123drop_in_place$LT$addr2line..Context$LT$gimli..read..endian_slice..EndianSlice$LT$gimli..endianity..LittleEndian$GT$$GT$$GT$17h6b865e36f3642250E+0x54>
10000137c: f9400660    	ldr	x0, [x19, #0x8]
100001380: d37be901    	lsl	x1, x8, #5
100001384: 52800102    	mov	w2, #0x8                ; =8
100001388: 97fffd8d    	bl	0x1000009bc <___rust_dealloc>
10000138c: a941de75    	ldp	x21, x23, [x19, #0x18]
100001390: 910006f8    	add	x24, x23, #0x1
100001394: aa1503e0    	mov	x0, x21
100001398: f1000718    	subs	x24, x24, #0x1
10000139c: 540000a0    	b.eq	0x1000013b0 <__ZN4core3ptr123drop_in_place$LT$addr2line..Context$LT$gimli..read..endian_slice..EndianSlice$LT$gimli..endianity..LittleEndian$GT$$GT$$GT$17h6b865e36f3642250E+0x78>
1000013a0: 91086016    	add	x22, x0, #0x218
1000013a4: 9400002d    	bl	0x100001458 <__ZN4core3ptr123drop_in_place$LT$addr2line..ResUnit$LT$gimli..read..endian_slice..EndianSlice$LT$gimli..endianity..LittleEndian$GT$$GT$$GT$17he18909544a0a550fE>
1000013a8: aa1603e0    	mov	x0, x22
1000013ac: 17fffffb    	b	0x100001398 <__ZN4core3ptr123drop_in_place$LT$addr2line..Context$LT$gimli..read..endian_slice..EndianSlice$LT$gimli..endianity..LittleEndian$GT$$GT$$GT$17h6b865e36f3642250E+0x60>
1000013b0: b40000d7    	cbz	x23, 0x1000013c8 <__ZN4core3ptr123drop_in_place$LT$addr2line..Context$LT$gimli..read..endian_slice..EndianSlice$LT$gimli..endianity..LittleEndian$GT$$GT$$GT$17h6b865e36f3642250E+0x90>
1000013b4: 52804308    	mov	w8, #0x218              ; =536
1000013b8: 9b087ee1    	mul	x1, x23, x8
1000013bc: aa1503e0    	mov	x0, x21
1000013c0: 52800102    	mov	w2, #0x8                ; =8
1000013c4: 97fffd7e    	bl	0x1000009bc <___rust_dealloc>
1000013c8: 9100a260    	add	x0, x19, #0x28
1000013cc: a9447bfd    	ldp	x29, x30, [sp, #0x40]
1000013d0: a9434ff4    	ldp	x20, x19, [sp, #0x30]
1000013d4: a94257f6    	ldp	x22, x21, [sp, #0x20]
1000013d8: a9415ff8    	ldp	x24, x23, [sp, #0x10]
1000013dc: a8c567fa    	ldp	x26, x25, [sp], #0x50
1000013e0: 14000185    	b	0x1000019f4 <__ZN4core3ptr158drop_in_place$LT$alloc..boxed..Box$LT$$u5b$addr2line..SupUnit$LT$gimli..read..endian_slice..EndianSlice$LT$gimli..endianity..LittleEndian$GT$$GT$$u5d$$GT$$GT$17hb21356a44753dd9bE>
1000013e4: aa0003f4    	mov	x20, x0
1000013e8: f9400a68    	ldr	x8, [x19, #0x10]
1000013ec: b40000a8    	cbz	x8, 0x100001400 <__ZN4core3ptr123drop_in_place$LT$addr2line..Context$LT$gimli..read..endian_slice..EndianSlice$LT$gimli..endianity..LittleEndian$GT$$GT$$GT$17h6b865e36f3642250E+0xc8>
1000013f0: f9400660    	ldr	x0, [x19, #0x8]
1000013f4: d37be901    	lsl	x1, x8, #5
1000013f8: 52800102    	mov	w2, #0x8                ; =8
1000013fc: 97fffd70    	bl	0x1000009bc <___rust_dealloc>
100001400: a9418660    	ldp	x0, x1, [x19, #0x18]
100001404: 9400014f    	bl	0x100001940 <__ZN4core3ptr158drop_in_place$LT$alloc..boxed..Box$LT$$u5b$addr2line..ResUnit$LT$gimli..read..endian_slice..EndianSlice$LT$gimli..endianity..LittleEndian$GT$$GT$$u5d$$GT$$GT$17h89cf861b8fa0265dE>
100001408: 1400000e    	b	0x100001440 <__ZN4core3ptr123drop_in_place$LT$addr2line..Context$LT$gimli..read..endian_slice..EndianSlice$LT$gimli..endianity..LittleEndian$GT$$GT$$GT$17h6b865e36f3642250E+0x108>
10000140c: aa0003f4    	mov	x20, x0
100001410: f1000718    	subs	x24, x24, #0x1
100001414: 540000c0    	b.eq	0x10000142c <__ZN4core3ptr123drop_in_place$LT$addr2line..Context$LT$gimli..read..endian_slice..EndianSlice$LT$gimli..endianity..LittleEndian$GT$$GT$$GT$17h6b865e36f3642250E+0xf4>
100001418: 910862d9    	add	x25, x22, #0x218
10000141c: aa1603e0    	mov	x0, x22
100001420: 9400000e    	bl	0x100001458 <__ZN4core3ptr123drop_in_place$LT$addr2line..ResUnit$LT$gimli..read..endian_slice..EndianSlice$LT$gimli..endianity..LittleEndian$GT$$GT$$GT$17he18909544a0a550fE>
100001424: aa1903f6    	mov	x22, x25
100001428: 17fffffa    	b	0x100001410 <__ZN4core3ptr123drop_in_place$LT$addr2line..Context$LT$gimli..read..endian_slice..EndianSlice$LT$gimli..endianity..LittleEndian$GT$$GT$$GT$17h6b865e36f3642250E+0xd8>
10000142c: 52804308    	mov	w8, #0x218              ; =536
100001430: 9b087ee1    	mul	x1, x23, x8
100001434: aa1503e0    	mov	x0, x21
100001438: 52800102    	mov	w2, #0x8                ; =8
10000143c: 97fffd60    	bl	0x1000009bc <___rust_dealloc>
100001440: 9100a260    	add	x0, x19, #0x28
100001444: 9400016c    	bl	0x1000019f4 <__ZN4core3ptr158drop_in_place$LT$alloc..boxed..Box$LT$$u5b$addr2line..SupUnit$LT$gimli..read..endian_slice..EndianSlice$LT$gimli..endianity..LittleEndian$GT$$GT$$u5d$$GT$$GT$17hb21356a44753dd9bE>
100001448: aa1403e0    	mov	x0, x20
10000144c: 9400d33a    	bl	0x100036134 <dyld_stub_binder+0x100036134>
100001450: 9400d27e    	bl	0x100035e48 <__ZN4core9panicking16panic_in_cleanup17h08fe812c23ada610E>
100001454: 9400d27d    	bl	0x100035e48 <__ZN4core9panicking16panic_in_cleanup17h08fe812c23ada610E>

0000000100001458 <__ZN4core3ptr123drop_in_place$LT$addr2line..ResUnit$LT$gimli..read..endian_slice..EndianSlice$LT$gimli..endianity..LittleEndian$GT$$GT$$GT$17he18909544a0a550fE>:
100001458: a9be4ff4    	stp	x20, x19, [sp, #-0x20]!
10000145c: a9017bfd    	stp	x29, x30, [sp, #0x10]
100001460: 910043fd    	add	x29, sp, #0x10
100001464: aa0003f3    	mov	x19, x0
100001468: f940ac08    	ldr	x8, [x0, #0x158]
10000146c: 92800009    	mov	x9, #-0x1               ; =-1
100001470: f8690108    	ldaddl	x9, x8, [x8]
100001474: f100051f    	cmp	x8, #0x1
100001478: 54000081    	b.ne	0x100001488 <__ZN4core3ptr123drop_in_place$LT$addr2line..ResUnit$LT$gimli..read..endian_slice..EndianSlice$LT$gimli..endianity..LittleEndian$GT$$GT$$GT$17he18909544a0a550fE+0x30>
10000147c: d50339bf    	dmb	ishld
100001480: 91056260    	add	x0, x19, #0x158
100001484: 94002a90    	bl	0x10000bec4 <__ZN5alloc4sync16Arc$LT$T$C$A$GT$9drop_slow17hdcf65d86251390ebE>
100001488: 91018260    	add	x0, x19, #0x60
10000148c: 940001ba    	bl	0x100001b74 <__ZN4core3ptr181drop_in_place$LT$core..option..Option$LT$gimli..read..line..IncompleteLineProgram$LT$gimli..read..endian_slice..EndianSlice$LT$gimli..endianity..LittleEndian$GT$$C$usize$GT$$GT$$GT$17hb82c814630029841E>
100001490: f940da68    	ldr	x8, [x19, #0x1b0]
100001494: b4000068    	cbz	x8, 0x1000014a0 <__ZN4core3ptr123drop_in_place$LT$addr2line..ResUnit$LT$gimli..read..endian_slice..EndianSlice$LT$gimli..endianity..LittleEndian$GT$$GT$$GT$17he18909544a0a550fE+0x48>
100001498: 9106e260    	add	x0, x19, #0x1b8
10000149c: 9400058f    	bl	0x100002ad8 <__ZN4core3ptr86drop_in_place$LT$core..result..Result$LT$addr2line..Lines$C$gimli..read..Error$GT$$GT$17h8300cc809c3f3f8aE>
1000014a0: f940ee68    	ldr	x8, [x19, #0x1d8]
1000014a4: b4000068    	cbz	x8, 0x1000014b0 <__ZN4core3ptr123drop_in_place$LT$addr2line..ResUnit$LT$gimli..read..endian_slice..EndianSlice$LT$gimli..endianity..LittleEndian$GT$$GT$$GT$17he18909544a0a550fE+0x58>
1000014a8: 91078260    	add	x0, x19, #0x1e0
1000014ac: 940001d7    	bl	0x100001c08 <__ZN4core3ptr184drop_in_place$LT$core..result..Result$LT$addr2line..function..Functions$LT$gimli..read..endian_slice..EndianSlice$LT$gimli..endianity..LittleEndian$GT$$GT$$C$gimli..read..Error$GT$$GT$17hadbc1bd966e7dcd9E>
1000014b0: 39480260    	ldrb	w0, [x19, #0x200]
1000014b4: 7101301f    	cmp	w0, #0x4c
1000014b8: 54000081    	b.ne	0x1000014c8 <__ZN4core3ptr123drop_in_place$LT$addr2line..ResUnit$LT$gimli..read..endian_slice..EndianSlice$LT$gimli..endianity..LittleEndian$GT$$GT$$GT$17he18909544a0a550fE+0x70>
1000014bc: a9417bfd    	ldp	x29, x30, [sp, #0x10]
1000014c0: a8c24ff4    	ldp	x20, x19, [sp], #0x20
1000014c4: d65f03c0    	ret
1000014c8: f9410661    	ldr	x1, [x19, #0x208]
1000014cc: a9417bfd    	ldp	x29, x30, [sp, #0x10]
1000014d0: a8c24ff4    	ldp	x20, x19, [sp], #0x20
1000014d4: 140002c1    	b	0x100001fd8 <__ZN4core3ptr383drop_in_place$LT$core..result..Result$LT$core..option..Option$LT$alloc..boxed..Box$LT$$LP$alloc..sync..Arc$LT$gimli..read..dwarf..Dwarf$LT$gimli..read..endian_slice..EndianSlice$LT$gimli..endianity..LittleEndian$GT$$GT$$GT$$C$gimli..read..dwarf..Unit$LT$gimli..read..endian_slice..EndianSlice$LT$gimli..endianity..LittleEndian$GT$$C$usize$GT$$RP$$GT$$GT$$C$gimli..read..Error$GT$$GT$17h989c3caa13670887E>
1000014d8: aa0003f4    	mov	x20, x0
1000014dc: 91018260    	add	x0, x19, #0x60
1000014e0: 940001a5    	bl	0x100001b74 <__ZN4core3ptr181drop_in_place$LT$core..option..Option$LT$gimli..read..line..IncompleteLineProgram$LT$gimli..read..endian_slice..EndianSlice$LT$gimli..endianity..LittleEndian$GT$$C$usize$GT$$GT$$GT$17hb82c814630029841E>
1000014e4: f940da68    	ldr	x8, [x19, #0x1b0]
1000014e8: b50000e8    	cbnz	x8, 0x100001504 <__ZN4core3ptr123drop_in_place$LT$addr2line..ResUnit$LT$gimli..read..endian_slice..EndianSlice$LT$gimli..endianity..LittleEndian$GT$$GT$$GT$17he18909544a0a550fE+0xac>
1000014ec: f940ee68    	ldr	x8, [x19, #0x1d8]
1000014f0: b5000128    	cbnz	x8, 0x100001514 <__ZN4core3ptr123drop_in_place$LT$addr2line..ResUnit$LT$gimli..read..endian_slice..EndianSlice$LT$gimli..endianity..LittleEndian$GT$$GT$$GT$17he18909544a0a550fE+0xbc>
1000014f4: 39480260    	ldrb	w0, [x19, #0x200]
1000014f8: 7101301f    	cmp	w0, #0x4c
1000014fc: 54000161    	b.ne	0x100001528 <__ZN4core3ptr123drop_in_place$LT$addr2line..ResUnit$LT$gimli..read..endian_slice..EndianSlice$LT$gimli..endianity..LittleEndian$GT$$GT$$GT$17he18909544a0a550fE+0xd0>
100001500: 1400000c    	b	0x100001530 <__ZN4core3ptr123drop_in_place$LT$addr2line..ResUnit$LT$gimli..read..endian_slice..EndianSlice$LT$gimli..endianity..LittleEndian$GT$$GT$$GT$17he18909544a0a550fE+0xd8>
100001504: 9106e260    	add	x0, x19, #0x1b8
100001508: 94000574    	bl	0x100002ad8 <__ZN4core3ptr86drop_in_place$LT$core..result..Result$LT$addr2line..Lines$C$gimli..read..Error$GT$$GT$17h8300cc809c3f3f8aE>
10000150c: f940ee68    	ldr	x8, [x19, #0x1d8]
100001510: b4ffff28    	cbz	x8, 0x1000014f4 <__ZN4core3ptr123drop_in_place$LT$addr2line..ResUnit$LT$gimli..read..endian_slice..EndianSlice$LT$gimli..endianity..LittleEndian$GT$$GT$$GT$17he18909544a0a550fE+0x9c>
100001514: 91078260    	add	x0, x19, #0x1e0
100001518: 940001bc    	bl	0x100001c08 <__ZN4core3ptr184drop_in_place$LT$core..result..Result$LT$addr2line..function..Functions$LT$gimli..read..endian_slice..EndianSlice$LT$gimli..endianity..LittleEndian$GT$$GT$$C$gimli..read..Error$GT$$GT$17hadbc1bd966e7dcd9E>
10000151c: 39480260    	ldrb	w0, [x19, #0x200]
100001520: 7101301f    	cmp	w0, #0x4c
100001524: 54000060    	b.eq	0x100001530 <__ZN4core3ptr123drop_in_place$LT$addr2line..ResUnit$LT$gimli..read..endian_slice..EndianSlice$LT$gimli..endianity..LittleEndian$GT$$GT$$GT$17he18909544a0a550fE+0xd8>
100001528: f9410661    	ldr	x1, [x19, #0x208]
10000152c: 940002ab    	bl	0x100001fd8 <__ZN4core3ptr383drop_in_place$LT$core..result..Result$LT$core..option..Option$LT$alloc..boxed..Box$LT$$LP$alloc..sync..Arc$LT$gimli..read..dwarf..Dwarf$LT$gimli..read..endian_slice..EndianSlice$LT$gimli..endianity..LittleEndian$GT$$GT$$GT$$C$gimli..read..dwarf..Unit$LT$gimli..read..endian_slice..EndianSlice$LT$gimli..endianity..LittleEndian$GT$$C$usize$GT$$RP$$GT$$GT$$C$gimli..read..Error$GT$$GT$17h989c3caa13670887E>
100001530: aa1403e0    	mov	x0, x20
100001534: 9400d300    	bl	0x100036134 <dyld_stub_binder+0x100036134>
100001538: 9400d244    	bl	0x100035e48 <__ZN4core9panicking16panic_in_cleanup17h08fe812c23ada610E>

000000010000153c <__ZN4core3ptr123drop_in_place$LT$addr2line..SupUnit$LT$gimli..read..endian_slice..EndianSlice$LT$gimli..endianity..LittleEndian$GT$$GT$$GT$17h9c35e925daea645fE>:
10000153c: a9be4ff4    	stp	x20, x19, [sp, #-0x20]!
100001540: a9017bfd    	stp	x29, x30, [sp, #0x10]
100001544: 910043fd    	add	x29, sp, #0x10
100001548: aa0003f3    	mov	x19, x0
10000154c: f940ac08    	ldr	x8, [x0, #0x158]
100001550: 92800009    	mov	x9, #-0x1               ; =-1
100001554: f8690108    	ldaddl	x9, x8, [x8]
100001558: f100051f    	cmp	x8, #0x1
10000155c: 54000081    	b.ne	0x10000156c <__ZN4core3ptr123drop_in_place$LT$addr2line..SupUnit$LT$gimli..read..endian_slice..EndianSlice$LT$gimli..endianity..LittleEndian$GT$$GT$$GT$17h9c35e925daea645fE+0x30>
100001560: d50339bf    	dmb	ishld
100001564: 91056260    	add	x0, x19, #0x158
100001568: 94002a57    	bl	0x10000bec4 <__ZN5alloc4sync16Arc$LT$T$C$A$GT$9drop_slow17hdcf65d86251390ebE>
10000156c: 91018260    	add	x0, x19, #0x60
100001570: a9417bfd    	ldp	x29, x30, [sp, #0x10]
100001574: a8c24ff4    	ldp	x20, x19, [sp], #0x20
100001578: 1400017f    	b	0x100001b74 <__ZN4core3ptr181drop_in_place$LT$core..option..Option$LT$gimli..read..line..IncompleteLineProgram$LT$gimli..read..endian_slice..EndianSlice$LT$gimli..endianity..LittleEndian$GT$$C$usize$GT$$GT$$GT$17hb82c814630029841E>
10000157c: aa0003f4    	mov	x20, x0
100001580: 91018260    	add	x0, x19, #0x60
100001584: 9400017c    	bl	0x100001b74 <__ZN4core3ptr181drop_in_place$LT$core..option..Option$LT$gimli..read..line..IncompleteLineProgram$LT$gimli..read..endian_slice..EndianSlice$LT$gimli..endianity..LittleEndian$GT$$C$usize$GT$$GT$$GT$17hb82c814630029841E>
100001588: aa1403e0    	mov	x0, x20
10000158c: 9400d2ea    	bl	0x100036134 <dyld_stub_binder+0x100036134>

0000000100001590 <__ZN4core3ptr128drop_in_place$LT$core..result..Result$LT$$RF$std..thread..Thread$C$$LP$$RF$std..thread..Thread$C$std..thread..Thread$RP$$GT$$GT$17h322cf4ddef680bd1E>:
100001590: a9bf7bfd    	stp	x29, x30, [sp, #-0x10]!
100001594: 910003fd    	mov	x29, sp
100001598: f9400408    	ldr	x8, [x0, #0x8]
10000159c: f100091f    	cmp	x8, #0x2
1000015a0: fa401904    	ccmp	x8, #0x0, #0x4, ne
1000015a4: 54000061    	b.ne	0x1000015b0 <__ZN4core3ptr128drop_in_place$LT$core..result..Result$LT$$RF$std..thread..Thread$C$$LP$$RF$std..thread..Thread$C$std..thread..Thread$RP$$GT$$GT$17h322cf4ddef680bd1E+0x20>
1000015a8: a8c17bfd    	ldp	x29, x30, [sp], #0x10
1000015ac: d65f03c0    	ret
1000015b0: f8410c08    	ldr	x8, [x0, #0x10]!
1000015b4: 92800009    	mov	x9, #-0x1               ; =-1
1000015b8: f8690108    	ldaddl	x9, x8, [x8]
1000015bc: f100051f    	cmp	x8, #0x1
1000015c0: 54ffff41    	b.ne	0x1000015a8 <__ZN4core3ptr128drop_in_place$LT$core..result..Result$LT$$RF$std..thread..Thread$C$$LP$$RF$std..thread..Thread$C$std..thread..Thread$RP$$GT$$GT$17h322cf4ddef680bd1E+0x18>
1000015c4: d50339bf    	dmb	ishld
1000015c8: a8c17bfd    	ldp	x29, x30, [sp], #0x10
1000015cc: 140029b7    	b	0x10000bca8 <__ZN5alloc4sync16Arc$LT$T$C$A$GT$9drop_slow17h74a4a87c028edebcE>

00000001000015d0 <__ZN4core3ptr130drop_in_place$LT$gimli..read..dwarf..Dwarf$LT$gimli..read..endian_slice..EndianSlice$LT$gimli..endianity..LittleEndian$GT$$GT$$GT$17h3180f50105ad683eE>:
1000015d0: a9be4ff4    	stp	x20, x19, [sp, #-0x20]!
1000015d4: a9017bfd    	stp	x29, x30, [sp, #0x10]
1000015d8: 910043fd    	add	x29, sp, #0x10
1000015dc: aa0003f3    	mov	x19, x0
1000015e0: f84d0c08    	ldr	x8, [x0, #0xd0]!
1000015e4: b40000e8    	cbz	x8, 0x100001600 <__ZN4core3ptr130drop_in_place$LT$gimli..read..dwarf..Dwarf$LT$gimli..read..endian_slice..EndianSlice$LT$gimli..endianity..LittleEndian$GT$$GT$$GT$17h3180f50105ad683eE+0x30>
1000015e8: 92800009    	mov	x9, #-0x1               ; =-1
1000015ec: f8690108    	ldaddl	x9, x8, [x8]
1000015f0: f100051f    	cmp	x8, #0x1
1000015f4: 54000061    	b.ne	0x100001600 <__ZN4core3ptr130drop_in_place$LT$gimli..read..dwarf..Dwarf$LT$gimli..read..endian_slice..EndianSlice$LT$gimli..endianity..LittleEndian$GT$$GT$$GT$17h3180f50105ad683eE+0x30>
1000015f8: d50339bf    	dmb	ishld
1000015fc: 94002977    	bl	0x10000bbd8 <__ZN5alloc4sync16Arc$LT$T$C$A$GT$9drop_slow17h3b5114797d849af5E>
100001600: 91036260    	add	x0, x19, #0xd8
100001604: a9417bfd    	ldp	x29, x30, [sp, #0x10]
100001608: a8c24ff4    	ldp	x20, x19, [sp], #0x20
10000160c: 14000368    	b	0x1000023ac <__ZN4core3ptr60drop_in_place$LT$gimli..read..abbrev..AbbreviationsCache$GT$17hf0b637549a58e629E>
100001610: aa0003f4    	mov	x20, x0
100001614: 91036260    	add	x0, x19, #0xd8
100001618: 94000365    	bl	0x1000023ac <__ZN4core3ptr60drop_in_place$LT$gimli..read..abbrev..AbbreviationsCache$GT$17hf0b637549a58e629E>
10000161c: aa1403e0    	mov	x0, x20
100001620: 9400d2c5    	bl	0x100036134 <dyld_stub_binder+0x100036134>
100001624: 9400d209    	bl	0x100035e48 <__ZN4core9panicking16panic_in_cleanup17h08fe812c23ada610E>

0000000100001628 <__ZN4core3ptr137drop_in_place$LT$gimli..read..dwarf..Unit$LT$gimli..read..endian_slice..EndianSlice$LT$gimli..endianity..LittleEndian$GT$$C$usize$GT$$GT$17h7644a65d7e203baeE>:
100001628: a9be4ff4    	stp	x20, x19, [sp, #-0x20]!
10000162c: a9017bfd    	stp	x29, x30, [sp, #0x10]
100001630: 910043fd    	add	x29, sp, #0x10
100001634: aa0003f3    	mov	x19, x0
100001638: f940ac08    	ldr	x8, [x0, #0x158]
10000163c: 92800009    	mov	x9, #-0x1               ; =-1
100001640: f8690108    	ldaddl	x9, x8, [x8]
100001644: f100051f    	cmp	x8, #0x1
100001648: 54000081    	b.ne	0x100001658 <__ZN4core3ptr137drop_in_place$LT$gimli..read..dwarf..Unit$LT$gimli..read..endian_slice..EndianSlice$LT$gimli..endianity..LittleEndian$GT$$C$usize$GT$$GT$17h7644a65d7e203baeE+0x30>
10000164c: d50339bf    	dmb	ishld
100001650: 91056260    	add	x0, x19, #0x158
100001654: 94002a1c    	bl	0x10000bec4 <__ZN5alloc4sync16Arc$LT$T$C$A$GT$9drop_slow17hdcf65d86251390ebE>
100001658: 91018260    	add	x0, x19, #0x60
10000165c: a9417bfd    	ldp	x29, x30, [sp, #0x10]
100001660: a8c24ff4    	ldp	x20, x19, [sp], #0x20
100001664: 14000144    	b	0x100001b74 <__ZN4core3ptr181drop_in_place$LT$core..option..Option$LT$gimli..read..line..IncompleteLineProgram$LT$gimli..read..endian_slice..EndianSlice$LT$gimli..endianity..LittleEndian$GT$$C$usize$GT$$GT$$GT$17hb82c814630029841E>
100001668: aa0003f4    	mov	x20, x0
10000166c: 91018260    	add	x0, x19, #0x60
100001670: 94000141    	bl	0x100001b74 <__ZN4core3ptr181drop_in_place$LT$core..option..Option$LT$gimli..read..line..IncompleteLineProgram$LT$gimli..read..endian_slice..EndianSlice$LT$gimli..endianity..LittleEndian$GT$$C$usize$GT$$GT$$GT$17hb82c814630029841E>
100001674: aa1403e0    	mov	x0, x20
100001678: 9400d2af    	bl	0x100036134 <dyld_stub_binder+0x100036134>

000000010000167c <__ZN4core3ptr144drop_in_place$LT$alloc..vec..Vec$LT$core..option..Option$LT$core..option..Option$LT$std..backtrace_rs..symbolize..gimli..Mapping$GT$$GT$$GT$$GT$17h15ba45d154702d72E>:
10000167c: a9bc5ff8    	stp	x24, x23, [sp, #-0x40]!
100001680: a90157f6    	stp	x22, x21, [sp, #0x10]
100001684: a9024ff4    	stp	x20, x19, [sp, #0x20]
100001688: a9037bfd    	stp	x29, x30, [sp, #0x30]
10000168c: 9100c3fd    	add	x29, sp, #0x30
100001690: aa0003f4    	mov	x20, x0
100001694: a940a013    	ldp	x19, x8, [x0, #0x8]
100001698: b4000228    	cbz	x8, 0x1000016dc <__ZN4core3ptr144drop_in_place$LT$alloc..vec..Vec$LT$core..option..Option$LT$core..option..Option$LT$std..backtrace_rs..symbolize..gimli..Mapping$GT$$GT$$GT$$GT$17h15ba45d154702d72E+0x60>
10000169c: d2800016    	mov	x22, #0x0               ; =0
1000016a0: d2800057    	mov	x23, #0x2               ; =2
1000016a4: f2f00017    	movk	x23, #0x8000, lsl #48
1000016a8: 52800029    	mov	w9, #0x1                ; =1
1000016ac: cb080135    	sub	x21, x9, x8
1000016b0: 14000005    	b	0x1000016c4 <__ZN4core3ptr144drop_in_place$LT$alloc..vec..Vec$LT$core..option..Option$LT$core..option..Option$LT$std..backtrace_rs..symbolize..gimli..Mapping$GT$$GT$$GT$$GT$17h15ba45d154702d72E+0x48>
1000016b4: 910922d6    	add	x22, x22, #0x248
1000016b8: 910006b5    	add	x21, x21, #0x1
1000016bc: f10006bf    	cmp	x21, #0x1
1000016c0: 540000e0    	b.eq	0x1000016dc <__ZN4core3ptr144drop_in_place$LT$alloc..vec..Vec$LT$core..option..Option$LT$core..option..Option$LT$std..backtrace_rs..symbolize..gimli..Mapping$GT$$GT$$GT$$GT$17h15ba45d154702d72E+0x60>
1000016c4: f8766a68    	ldr	x8, [x19, x22]
1000016c8: eb17011f    	cmp	x8, x23
1000016cc: 54ffff4b    	b.lt	0x1000016b4 <__ZN4core3ptr144drop_in_place$LT$alloc..vec..Vec$LT$core..option..Option$LT$core..option..Option$LT$std..backtrace_rs..symbolize..gimli..Mapping$GT$$GT$$GT$$GT$17h15ba45d154702d72E+0x38>
1000016d0: 8b160260    	add	x0, x19, x22
1000016d4: 9400039a    	bl	0x10000253c <__ZN4core3ptr65drop_in_place$LT$std..backtrace_rs..symbolize..gimli..Mapping$GT$17h4bdffbb391e18304E>
1000016d8: 17fffff7    	b	0x1000016b4 <__ZN4core3ptr144drop_in_place$LT$alloc..vec..Vec$LT$core..option..Option$LT$core..option..Option$LT$std..backtrace_rs..symbolize..gimli..Mapping$GT$$GT$$GT$$GT$17h15ba45d154702d72E+0x38>
1000016dc: f9400288    	ldr	x8, [x20]
1000016e0: b4000148    	cbz	x8, 0x100001708 <__ZN4core3ptr144drop_in_place$LT$alloc..vec..Vec$LT$core..option..Option$LT$core..option..Option$LT$std..backtrace_rs..symbolize..gimli..Mapping$GT$$GT$$GT$$GT$17h15ba45d154702d72E+0x8c>
1000016e4: 52804909    	mov	w9, #0x248              ; =584
1000016e8: 9b097d01    	mul	x1, x8, x9
1000016ec: aa1303e0    	mov	x0, x19
1000016f0: 52800102    	mov	w2, #0x8                ; =8
1000016f4: a9437bfd    	ldp	x29, x30, [sp, #0x30]
1000016f8: a9424ff4    	ldp	x20, x19, [sp, #0x20]
1000016fc: a94157f6    	ldp	x22, x21, [sp, #0x10]
100001700: a8c45ff8    	ldp	x24, x23, [sp], #0x40
100001704: 17fffcae    	b	0x1000009bc <___rust_dealloc>
100001708: a9437bfd    	ldp	x29, x30, [sp, #0x30]
10000170c: a9424ff4    	ldp	x20, x19, [sp, #0x20]
100001710: a94157f6    	ldp	x22, x21, [sp, #0x10]
100001714: a8c45ff8    	ldp	x24, x23, [sp], #0x40
100001718: d65f03c0    	ret
10000171c: aa1503e9    	mov	x9, x21
100001720: aa0003f5    	mov	x21, x0
100001724: b5000149    	cbnz	x9, 0x10000174c <__ZN4core3ptr144drop_in_place$LT$alloc..vec..Vec$LT$core..option..Option$LT$core..option..Option$LT$std..backtrace_rs..symbolize..gimli..Mapping$GT$$GT$$GT$$GT$17h15ba45d154702d72E+0xd0>
100001728: f9400288    	ldr	x8, [x20]
10000172c: b40000c8    	cbz	x8, 0x100001744 <__ZN4core3ptr144drop_in_place$LT$alloc..vec..Vec$LT$core..option..Option$LT$core..option..Option$LT$std..backtrace_rs..symbolize..gimli..Mapping$GT$$GT$$GT$$GT$17h15ba45d154702d72E+0xc8>
100001730: 52804909    	mov	w9, #0x248              ; =584
100001734: 9b097d01    	mul	x1, x8, x9
100001738: aa1303e0    	mov	x0, x19
10000173c: 52800102    	mov	w2, #0x8                ; =8
100001740: 97fffc9f    	bl	0x1000009bc <___rust_dealloc>
100001744: aa1503e0    	mov	x0, x21
100001748: 9400d27b    	bl	0x100036134 <dyld_stub_binder+0x100036134>
10000174c: aa0903e8    	mov	x8, x9
100001750: 8b160269    	add	x9, x19, x22
100001754: 91092136    	add	x22, x9, #0x248
100001758: cb0803f8    	neg	x24, x8
10000175c: 14000004    	b	0x10000176c <__ZN4core3ptr144drop_in_place$LT$alloc..vec..Vec$LT$core..option..Option$LT$core..option..Option$LT$std..backtrace_rs..symbolize..gimli..Mapping$GT$$GT$$GT$$GT$17h15ba45d154702d72E+0xf0>
100001760: 910922d6    	add	x22, x22, #0x248
100001764: f1000718    	subs	x24, x24, #0x1
100001768: 54fffe00    	b.eq	0x100001728 <__ZN4core3ptr144drop_in_place$LT$alloc..vec..Vec$LT$core..option..Option$LT$core..option..Option$LT$std..backtrace_rs..symbolize..gimli..Mapping$GT$$GT$$GT$$GT$17h15ba45d154702d72E+0xac>
10000176c: f94002c8    	ldr	x8, [x22]
100001770: eb17011f    	cmp	x8, x23
100001774: 54ffff6b    	b.lt	0x100001760 <__ZN4core3ptr144drop_in_place$LT$alloc..vec..Vec$LT$core..option..Option$LT$core..option..Option$LT$std..backtrace_rs..symbolize..gimli..Mapping$GT$$GT$$GT$$GT$17h15ba45d154702d72E+0xe4>
100001778: aa1603e0    	mov	x0, x22
10000177c: 94000370    	bl	0x10000253c <__ZN4core3ptr65drop_in_place$LT$std..backtrace_rs..symbolize..gimli..Mapping$GT$17h4bdffbb391e18304E>
100001780: 17fffff8    	b	0x100001760 <__ZN4core3ptr144drop_in_place$LT$alloc..vec..Vec$LT$core..option..Option$LT$core..option..Option$LT$std..backtrace_rs..symbolize..gimli..Mapping$GT$$GT$$GT$$GT$17h15ba45d154702d72E+0xe4>
100001784: 9400d1b1    	bl	0x100035e48 <__ZN4core9panicking16panic_in_cleanup17h08fe812c23ada610E>

0000000100001788 <__ZN4core3ptr146drop_in_place$LT$alloc..vec..Vec$LT$addr2line..ResUnit$LT$gimli..read..endian_slice..EndianSlice$LT$gimli..endianity..LittleEndian$GT$$GT$$GT$$GT$17h5b45cb3f300a8562E>:
100001788: a9bc5ff8    	stp	x24, x23, [sp, #-0x40]!
10000178c: a90157f6    	stp	x22, x21, [sp, #0x10]
100001790: a9024ff4    	stp	x20, x19, [sp, #0x20]
100001794: a9037bfd    	stp	x29, x30, [sp, #0x30]
100001798: 9100c3fd    	add	x29, sp, #0x30
10000179c: aa0003f4    	mov	x20, x0
1000017a0: a940a013    	ldp	x19, x8, [x0, #0x8]
1000017a4: 91000517    	add	x23, x8, #0x1
1000017a8: aa1303e0    	mov	x0, x19
1000017ac: f10006f7    	subs	x23, x23, #0x1
1000017b0: 540000a0    	b.eq	0x1000017c4 <__ZN4core3ptr146drop_in_place$LT$alloc..vec..Vec$LT$addr2line..ResUnit$LT$gimli..read..endian_slice..EndianSlice$LT$gimli..endianity..LittleEndian$GT$$GT$$GT$$GT$17h5b45cb3f300a8562E+0x3c>
1000017b4: 91086016    	add	x22, x0, #0x218
1000017b8: 97ffff28    	bl	0x100001458 <__ZN4core3ptr123drop_in_place$LT$addr2line..ResUnit$LT$gimli..read..endian_slice..EndianSlice$LT$gimli..endianity..LittleEndian$GT$$GT$$GT$17he18909544a0a550fE>
1000017bc: aa1603e0    	mov	x0, x22
1000017c0: 17fffffb    	b	0x1000017ac <__ZN4core3ptr146drop_in_place$LT$alloc..vec..Vec$LT$addr2line..ResUnit$LT$gimli..read..endian_slice..EndianSlice$LT$gimli..endianity..LittleEndian$GT$$GT$$GT$$GT$17h5b45cb3f300a8562E+0x24>
1000017c4: f9400288    	ldr	x8, [x20]
1000017c8: b4000148    	cbz	x8, 0x1000017f0 <__ZN4core3ptr146drop_in_place$LT$alloc..vec..Vec$LT$addr2line..ResUnit$LT$gimli..read..endian_slice..EndianSlice$LT$gimli..endianity..LittleEndian$GT$$GT$$GT$$GT$17h5b45cb3f300a8562E+0x68>
1000017cc: 52804309    	mov	w9, #0x218              ; =536
1000017d0: 9b097d01    	mul	x1, x8, x9
1000017d4: aa1303e0    	mov	x0, x19
1000017d8: 52800102    	mov	w2, #0x8                ; =8
1000017dc: a9437bfd    	ldp	x29, x30, [sp, #0x30]
1000017e0: a9424ff4    	ldp	x20, x19, [sp, #0x20]
1000017e4: a94157f6    	ldp	x22, x21, [sp, #0x10]
1000017e8: a8c45ff8    	ldp	x24, x23, [sp], #0x40
1000017ec: 17fffc74    	b	0x1000009bc <___rust_dealloc>
1000017f0: a9437bfd    	ldp	x29, x30, [sp, #0x30]
1000017f4: a9424ff4    	ldp	x20, x19, [sp, #0x20]
1000017f8: a94157f6    	ldp	x22, x21, [sp, #0x10]
1000017fc: a8c45ff8    	ldp	x24, x23, [sp], #0x40
100001800: d65f03c0    	ret
100001804: aa0003f5    	mov	x21, x0
100001808: f10006f7    	subs	x23, x23, #0x1
10000180c: 540000c0    	b.eq	0x100001824 <__ZN4core3ptr146drop_in_place$LT$alloc..vec..Vec$LT$addr2line..ResUnit$LT$gimli..read..endian_slice..EndianSlice$LT$gimli..endianity..LittleEndian$GT$$GT$$GT$$GT$17h5b45cb3f300a8562E+0x9c>
100001810: 910862d8    	add	x24, x22, #0x218
100001814: aa1603e0    	mov	x0, x22
100001818: 97ffff10    	bl	0x100001458 <__ZN4core3ptr123drop_in_place$LT$addr2line..ResUnit$LT$gimli..read..endian_slice..EndianSlice$LT$gimli..endianity..LittleEndian$GT$$GT$$GT$17he18909544a0a550fE>
10000181c: aa1803f6    	mov	x22, x24
100001820: 17fffffa    	b	0x100001808 <__ZN4core3ptr146drop_in_place$LT$alloc..vec..Vec$LT$addr2line..ResUnit$LT$gimli..read..endian_slice..EndianSlice$LT$gimli..endianity..LittleEndian$GT$$GT$$GT$$GT$17h5b45cb3f300a8562E+0x80>
100001824: f9400288    	ldr	x8, [x20]
100001828: b40000c8    	cbz	x8, 0x100001840 <__ZN4core3ptr146drop_in_place$LT$alloc..vec..Vec$LT$addr2line..ResUnit$LT$gimli..read..endian_slice..EndianSlice$LT$gimli..endianity..LittleEndian$GT$$GT$$GT$$GT$17h5b45cb3f300a8562E+0xb8>
10000182c: 52804309    	mov	w9, #0x218              ; =536
100001830: 9b097d01    	mul	x1, x8, x9
100001834: aa1303e0    	mov	x0, x19
100001838: 52800102    	mov	w2, #0x8                ; =8
10000183c: 97fffc60    	bl	0x1000009bc <___rust_dealloc>
100001840: aa1503e0    	mov	x0, x21
100001844: 9400d23c    	bl	0x100036134 <dyld_stub_binder+0x100036134>
100001848: 9400d180    	bl	0x100035e48 <__ZN4core9panicking16panic_in_cleanup17h08fe812c23ada610E>

000000010000184c <__ZN4core3ptr146drop_in_place$LT$alloc..vec..Vec$LT$addr2line..SupUnit$LT$gimli..read..endian_slice..EndianSlice$LT$gimli..endianity..LittleEndian$GT$$GT$$GT$$GT$17h822805e3d6073577E>:
10000184c: a9bc5ff8    	stp	x24, x23, [sp, #-0x40]!
100001850: a90157f6    	stp	x22, x21, [sp, #0x10]
100001854: a9024ff4    	stp	x20, x19, [sp, #0x20]
100001858: a9037bfd    	stp	x29, x30, [sp, #0x30]
10000185c: 9100c3fd    	add	x29, sp, #0x30
100001860: aa0003f4    	mov	x20, x0
100001864: a940d813    	ldp	x19, x22, [x0, #0x8]
100001868: b4000236    	cbz	x22, 0x1000018ac <__ZN4core3ptr146drop_in_place$LT$alloc..vec..Vec$LT$addr2line..SupUnit$LT$gimli..read..endian_slice..EndianSlice$LT$gimli..endianity..LittleEndian$GT$$GT$$GT$$GT$17h822805e3d6073577E+0x60>
10000186c: 91056275    	add	x21, x19, #0x158
100001870: 92800017    	mov	x23, #-0x1              ; =-1
100001874: 14000006    	b	0x10000188c <__ZN4core3ptr146drop_in_place$LT$alloc..vec..Vec$LT$addr2line..SupUnit$LT$gimli..read..endian_slice..EndianSlice$LT$gimli..endianity..LittleEndian$GT$$GT$$GT$$GT$17h822805e3d6073577E+0x40>
100001878: d103e2a0    	sub	x0, x21, #0xf8
10000187c: 940000be    	bl	0x100001b74 <__ZN4core3ptr181drop_in_place$LT$core..option..Option$LT$gimli..read..line..IncompleteLineProgram$LT$gimli..read..endian_slice..EndianSlice$LT$gimli..endianity..LittleEndian$GT$$C$usize$GT$$GT$$GT$17hb82c814630029841E>
100001880: 9106c2b5    	add	x21, x21, #0x1b0
100001884: f10006d6    	subs	x22, x22, #0x1
100001888: 54000120    	b.eq	0x1000018ac <__ZN4core3ptr146drop_in_place$LT$alloc..vec..Vec$LT$addr2line..SupUnit$LT$gimli..read..endian_slice..EndianSlice$LT$gimli..endianity..LittleEndian$GT$$GT$$GT$$GT$17h822805e3d6073577E+0x60>
10000188c: f94002a8    	ldr	x8, [x21]
100001890: f8770108    	ldaddl	x23, x8, [x8]
100001894: f100051f    	cmp	x8, #0x1
100001898: 54ffff01    	b.ne	0x100001878 <__ZN4core3ptr146drop_in_place$LT$alloc..vec..Vec$LT$addr2line..SupUnit$LT$gimli..read..endian_slice..EndianSlice$LT$gimli..endianity..LittleEndian$GT$$GT$$GT$$GT$17h822805e3d6073577E+0x2c>
10000189c: d50339bf    	dmb	ishld
1000018a0: aa1503e0    	mov	x0, x21
1000018a4: 94002988    	bl	0x10000bec4 <__ZN5alloc4sync16Arc$LT$T$C$A$GT$9drop_slow17hdcf65d86251390ebE>
1000018a8: 17fffff4    	b	0x100001878 <__ZN4core3ptr146drop_in_place$LT$alloc..vec..Vec$LT$addr2line..SupUnit$LT$gimli..read..endian_slice..EndianSlice$LT$gimli..endianity..LittleEndian$GT$$GT$$GT$$GT$17h822805e3d6073577E+0x2c>
1000018ac: f9400288    	ldr	x8, [x20]
1000018b0: b4000148    	cbz	x8, 0x1000018d8 <__ZN4core3ptr146drop_in_place$LT$alloc..vec..Vec$LT$addr2line..SupUnit$LT$gimli..read..endian_slice..EndianSlice$LT$gimli..endianity..LittleEndian$GT$$GT$$GT$$GT$17h822805e3d6073577E+0x8c>
1000018b4: 52803609    	mov	w9, #0x1b0              ; =432
1000018b8: 9b097d01    	mul	x1, x8, x9
1000018bc: aa1303e0    	mov	x0, x19
1000018c0: 52800102    	mov	w2, #0x8                ; =8
1000018c4: a9437bfd    	ldp	x29, x30, [sp, #0x30]
1000018c8: a9424ff4    	ldp	x20, x19, [sp, #0x20]
1000018cc: a94157f6    	ldp	x22, x21, [sp, #0x10]
1000018d0: a8c45ff8    	ldp	x24, x23, [sp], #0x40
1000018d4: 17fffc3a    	b	0x1000009bc <___rust_dealloc>
1000018d8: a9437bfd    	ldp	x29, x30, [sp, #0x30]
1000018dc: a9424ff4    	ldp	x20, x19, [sp, #0x20]
1000018e0: a94157f6    	ldp	x22, x21, [sp, #0x10]
1000018e4: a8c45ff8    	ldp	x24, x23, [sp], #0x40
1000018e8: d65f03c0    	ret
1000018ec: aa1503f7    	mov	x23, x21
1000018f0: aa0003f5    	mov	x21, x0
1000018f4: d103e2e0    	sub	x0, x23, #0xf8
1000018f8: 9400009f    	bl	0x100001b74 <__ZN4core3ptr181drop_in_place$LT$core..option..Option$LT$gimli..read..line..IncompleteLineProgram$LT$gimli..read..endian_slice..EndianSlice$LT$gimli..endianity..LittleEndian$GT$$C$usize$GT$$GT$$GT$17hb82c814630029841E>
1000018fc: 910162e0    	add	x0, x23, #0x58
100001900: f10006d6    	subs	x22, x22, #0x1
100001904: 540000a0    	b.eq	0x100001918 <__ZN4core3ptr146drop_in_place$LT$alloc..vec..Vec$LT$addr2line..SupUnit$LT$gimli..read..endian_slice..EndianSlice$LT$gimli..endianity..LittleEndian$GT$$GT$$GT$$GT$17h822805e3d6073577E+0xcc>
100001908: 9106c017    	add	x23, x0, #0x1b0
10000190c: 97ffff0c    	bl	0x10000153c <__ZN4core3ptr123drop_in_place$LT$addr2line..SupUnit$LT$gimli..read..endian_slice..EndianSlice$LT$gimli..endianity..LittleEndian$GT$$GT$$GT$17h9c35e925daea645fE>
100001910: aa1703e0    	mov	x0, x23
100001914: 17fffffb    	b	0x100001900 <__ZN4core3ptr146drop_in_place$LT$alloc..vec..Vec$LT$addr2line..SupUnit$LT$gimli..read..endian_slice..EndianSlice$LT$gimli..endianity..LittleEndian$GT$$GT$$GT$$GT$17h822805e3d6073577E+0xb4>
100001918: f9400288    	ldr	x8, [x20]
10000191c: b40000c8    	cbz	x8, 0x100001934 <__ZN4core3ptr146drop_in_place$LT$alloc..vec..Vec$LT$addr2line..SupUnit$LT$gimli..read..endian_slice..EndianSlice$LT$gimli..endianity..LittleEndian$GT$$GT$$GT$$GT$17h822805e3d6073577E+0xe8>
100001920: 52803609    	mov	w9, #0x1b0              ; =432
100001924: 9b097d01    	mul	x1, x8, x9
100001928: aa1303e0    	mov	x0, x19
10000192c: 52800102    	mov	w2, #0x8                ; =8
100001930: 97fffc23    	bl	0x1000009bc <___rust_dealloc>
100001934: aa1503e0    	mov	x0, x21
100001938: 9400d1ff    	bl	0x100036134 <dyld_stub_binder+0x100036134>
10000193c: 9400d143    	bl	0x100035e48 <__ZN4core9panicking16panic_in_cleanup17h08fe812c23ada610E>

0000000100001940 <__ZN4core3ptr158drop_in_place$LT$alloc..boxed..Box$LT$$u5b$addr2line..ResUnit$LT$gimli..read..endian_slice..EndianSlice$LT$gimli..endianity..LittleEndian$GT$$GT$$u5d$$GT$$GT$17h89cf861b8fa0265dE>:
100001940: a9bc5ff8    	stp	x24, x23, [sp, #-0x40]!
100001944: a90157f6    	stp	x22, x21, [sp, #0x10]
100001948: a9024ff4    	stp	x20, x19, [sp, #0x20]
10000194c: a9037bfd    	stp	x29, x30, [sp, #0x30]
100001950: 9100c3fd    	add	x29, sp, #0x30
100001954: aa0103f4    	mov	x20, x1
100001958: aa0003f3    	mov	x19, x0
10000195c: 91000437    	add	x23, x1, #0x1
100001960: f10006f7    	subs	x23, x23, #0x1
100001964: 540000a0    	b.eq	0x100001978 <__ZN4core3ptr158drop_in_place$LT$alloc..boxed..Box$LT$$u5b$addr2line..ResUnit$LT$gimli..read..endian_slice..EndianSlice$LT$gimli..endianity..LittleEndian$GT$$GT$$u5d$$GT$$GT$17h89cf861b8fa0265dE+0x38>
100001968: 91086016    	add	x22, x0, #0x218
10000196c: 97fffebb    	bl	0x100001458 <__ZN4core3ptr123drop_in_place$LT$addr2line..ResUnit$LT$gimli..read..endian_slice..EndianSlice$LT$gimli..endianity..LittleEndian$GT$$GT$$GT$17he18909544a0a550fE>
100001970: aa1603e0    	mov	x0, x22
100001974: 17fffffb    	b	0x100001960 <__ZN4core3ptr158drop_in_place$LT$alloc..boxed..Box$LT$$u5b$addr2line..ResUnit$LT$gimli..read..endian_slice..EndianSlice$LT$gimli..endianity..LittleEndian$GT$$GT$$u5d$$GT$$GT$17h89cf861b8fa0265dE+0x20>
100001978: b4000154    	cbz	x20, 0x1000019a0 <__ZN4core3ptr158drop_in_place$LT$alloc..boxed..Box$LT$$u5b$addr2line..ResUnit$LT$gimli..read..endian_slice..EndianSlice$LT$gimli..endianity..LittleEndian$GT$$GT$$u5d$$GT$$GT$17h89cf861b8fa0265dE+0x60>
10000197c: 52804308    	mov	w8, #0x218              ; =536
100001980: 9b087e81    	mul	x1, x20, x8
100001984: aa1303e0    	mov	x0, x19
100001988: 52800102    	mov	w2, #0x8                ; =8
10000198c: a9437bfd    	ldp	x29, x30, [sp, #0x30]
100001990: a9424ff4    	ldp	x20, x19, [sp, #0x20]
100001994: a94157f6    	ldp	x22, x21, [sp, #0x10]
100001998: a8c45ff8    	ldp	x24, x23, [sp], #0x40
10000199c: 17fffc08    	b	0x1000009bc <___rust_dealloc>
1000019a0: a9437bfd    	ldp	x29, x30, [sp, #0x30]
1000019a4: a9424ff4    	ldp	x20, x19, [sp, #0x20]
1000019a8: a94157f6    	ldp	x22, x21, [sp, #0x10]
1000019ac: a8c45ff8    	ldp	x24, x23, [sp], #0x40
1000019b0: d65f03c0    	ret
1000019b4: aa0003f5    	mov	x21, x0
1000019b8: f10006f7    	subs	x23, x23, #0x1
1000019bc: 540000c0    	b.eq	0x1000019d4 <__ZN4core3ptr158drop_in_place$LT$alloc..boxed..Box$LT$$u5b$addr2line..ResUnit$LT$gimli..read..endian_slice..EndianSlice$LT$gimli..endianity..LittleEndian$GT$$GT$$u5d$$GT$$GT$17h89cf861b8fa0265dE+0x94>
1000019c0: 910862d8    	add	x24, x22, #0x218
1000019c4: aa1603e0    	mov	x0, x22
1000019c8: 97fffea4    	bl	0x100001458 <__ZN4core3ptr123drop_in_place$LT$addr2line..ResUnit$LT$gimli..read..endian_slice..EndianSlice$LT$gimli..endianity..LittleEndian$GT$$GT$$GT$17he18909544a0a550fE>
1000019cc: aa1803f6    	mov	x22, x24
1000019d0: 17fffffa    	b	0x1000019b8 <__ZN4core3ptr158drop_in_place$LT$alloc..boxed..Box$LT$$u5b$addr2line..ResUnit$LT$gimli..read..endian_slice..EndianSlice$LT$gimli..endianity..LittleEndian$GT$$GT$$u5d$$GT$$GT$17h89cf861b8fa0265dE+0x78>
1000019d4: 52804308    	mov	w8, #0x218              ; =536
1000019d8: 9b087e81    	mul	x1, x20, x8
1000019dc: aa1303e0    	mov	x0, x19
1000019e0: 52800102    	mov	w2, #0x8                ; =8
1000019e4: 97fffbf6    	bl	0x1000009bc <___rust_dealloc>
1000019e8: aa1503e0    	mov	x0, x21
1000019ec: 9400d1d2    	bl	0x100036134 <dyld_stub_binder+0x100036134>
1000019f0: 9400d116    	bl	0x100035e48 <__ZN4core9panicking16panic_in_cleanup17h08fe812c23ada610E>

00000001000019f4 <__ZN4core3ptr158drop_in_place$LT$alloc..boxed..Box$LT$$u5b$addr2line..SupUnit$LT$gimli..read..endian_slice..EndianSlice$LT$gimli..endianity..LittleEndian$GT$$GT$$u5d$$GT$$GT$17hb21356a44753dd9bE>:
1000019f4: a9bc5ff8    	stp	x24, x23, [sp, #-0x40]!
1000019f8: a90157f6    	stp	x22, x21, [sp, #0x10]
1000019fc: a9024ff4    	stp	x20, x19, [sp, #0x20]
100001a00: a9037bfd    	stp	x29, x30, [sp, #0x30]
100001a04: 9100c3fd    	add	x29, sp, #0x30
100001a08: f9400416    	ldr	x22, [x0, #0x8]
100001a0c: b4000396    	cbz	x22, 0x100001a7c <__ZN4core3ptr158drop_in_place$LT$alloc..boxed..Box$LT$$u5b$addr2line..SupUnit$LT$gimli..read..endian_slice..EndianSlice$LT$gimli..endianity..LittleEndian$GT$$GT$$u5d$$GT$$GT$17hb21356a44753dd9bE+0x88>
100001a10: f9400013    	ldr	x19, [x0]
100001a14: 91056274    	add	x20, x19, #0x158
100001a18: 92800015    	mov	x21, #-0x1              ; =-1
100001a1c: aa1603f7    	mov	x23, x22
100001a20: 14000006    	b	0x100001a38 <__ZN4core3ptr158drop_in_place$LT$alloc..boxed..Box$LT$$u5b$addr2line..SupUnit$LT$gimli..read..endian_slice..EndianSlice$LT$gimli..endianity..LittleEndian$GT$$GT$$u5d$$GT$$GT$17hb21356a44753dd9bE+0x44>
100001a24: d103e280    	sub	x0, x20, #0xf8
100001a28: 94000053    	bl	0x100001b74 <__ZN4core3ptr181drop_in_place$LT$core..option..Option$LT$gimli..read..line..IncompleteLineProgram$LT$gimli..read..endian_slice..EndianSlice$LT$gimli..endianity..LittleEndian$GT$$C$usize$GT$$GT$$GT$17hb82c814630029841E>
100001a2c: 9106c294    	add	x20, x20, #0x1b0
100001a30: f10006f7    	subs	x23, x23, #0x1
100001a34: 54000120    	b.eq	0x100001a58 <__ZN4core3ptr158drop_in_place$LT$alloc..boxed..Box$LT$$u5b$addr2line..SupUnit$LT$gimli..read..endian_slice..EndianSlice$LT$gimli..endianity..LittleEndian$GT$$GT$$u5d$$GT$$GT$17hb21356a44753dd9bE+0x64>
100001a38: f9400288    	ldr	x8, [x20]
100001a3c: f8750108    	ldaddl	x21, x8, [x8]
100001a40: f100051f    	cmp	x8, #0x1
100001a44: 54ffff01    	b.ne	0x100001a24 <__ZN4core3ptr158drop_in_place$LT$alloc..boxed..Box$LT$$u5b$addr2line..SupUnit$LT$gimli..read..endian_slice..EndianSlice$LT$gimli..endianity..LittleEndian$GT$$GT$$u5d$$GT$$GT$17hb21356a44753dd9bE+0x30>
100001a48: d50339bf    	dmb	ishld
100001a4c: aa1403e0    	mov	x0, x20
100001a50: 9400291d    	bl	0x10000bec4 <__ZN5alloc4sync16Arc$LT$T$C$A$GT$9drop_slow17hdcf65d86251390ebE>
100001a54: 17fffff4    	b	0x100001a24 <__ZN4core3ptr158drop_in_place$LT$alloc..boxed..Box$LT$$u5b$addr2line..SupUnit$LT$gimli..read..endian_slice..EndianSlice$LT$gimli..endianity..LittleEndian$GT$$GT$$u5d$$GT$$GT$17hb21356a44753dd9bE+0x30>
100001a58: 52803608    	mov	w8, #0x1b0              ; =432
100001a5c: 9b087ec1    	mul	x1, x22, x8
100001a60: aa1303e0    	mov	x0, x19
100001a64: 52800102    	mov	w2, #0x8                ; =8
100001a68: a9437bfd    	ldp	x29, x30, [sp, #0x30]
100001a6c: a9424ff4    	ldp	x20, x19, [sp, #0x20]
100001a70: a94157f6    	ldp	x22, x21, [sp, #0x10]
100001a74: a8c45ff8    	ldp	x24, x23, [sp], #0x40
100001a78: 17fffbd1    	b	0x1000009bc <___rust_dealloc>
100001a7c: a9437bfd    	ldp	x29, x30, [sp, #0x30]
100001a80: a9424ff4    	ldp	x20, x19, [sp, #0x20]
100001a84: a94157f6    	ldp	x22, x21, [sp, #0x10]
100001a88: a8c45ff8    	ldp	x24, x23, [sp], #0x40
100001a8c: d65f03c0    	ret
100001a90: aa0003f5    	mov	x21, x0
100001a94: d103e280    	sub	x0, x20, #0xf8
100001a98: 94000037    	bl	0x100001b74 <__ZN4core3ptr181drop_in_place$LT$core..option..Option$LT$gimli..read..line..IncompleteLineProgram$LT$gimli..read..endian_slice..EndianSlice$LT$gimli..endianity..LittleEndian$GT$$C$usize$GT$$GT$$GT$17hb82c814630029841E>
100001a9c: 91016280    	add	x0, x20, #0x58
100001aa0: f10006f7    	subs	x23, x23, #0x1
100001aa4: 540000a0    	b.eq	0x100001ab8 <__ZN4core3ptr158drop_in_place$LT$alloc..boxed..Box$LT$$u5b$addr2line..SupUnit$LT$gimli..read..endian_slice..EndianSlice$LT$gimli..endianity..LittleEndian$GT$$GT$$u5d$$GT$$GT$17hb21356a44753dd9bE+0xc4>
100001aa8: 9106c014    	add	x20, x0, #0x1b0
100001aac: 97fffea4    	bl	0x10000153c <__ZN4core3ptr123drop_in_place$LT$addr2line..SupUnit$LT$gimli..read..endian_slice..EndianSlice$LT$gimli..endianity..LittleEndian$GT$$GT$$GT$17h9c35e925daea645fE>
100001ab0: aa1403e0    	mov	x0, x20
100001ab4: 17fffffb    	b	0x100001aa0 <__ZN4core3ptr158drop_in_place$LT$alloc..boxed..Box$LT$$u5b$addr2line..SupUnit$LT$gimli..read..endian_slice..EndianSlice$LT$gimli..endianity..LittleEndian$GT$$GT$$u5d$$GT$$GT$17hb21356a44753dd9bE+0xac>
100001ab8: 52803608    	mov	w8, #0x1b0              ; =432
100001abc: 9b087ec1    	mul	x1, x22, x8
100001ac0: aa1303e0    	mov	x0, x19
100001ac4: 52800102    	mov	w2, #0x8                ; =8
100001ac8: 97fffbbd    	bl	0x1000009bc <___rust_dealloc>
100001acc: aa1503e0    	mov	x0, x21
100001ad0: 9400d199    	bl	0x100036134 <dyld_stub_binder+0x100036134>
100001ad4: 9400d0dd    	bl	0x100035e48 <__ZN4core9panicking16panic_in_cleanup17h08fe812c23ada610E>

0000000100001ad8 <__ZN4core3ptr159drop_in_place$LT$alloc..sync..ArcInner$LT$gimli..read..dwarf..Dwarf$LT$gimli..read..endian_slice..EndianSlice$LT$gimli..endianity..LittleEndian$GT$$GT$$GT$$GT$17ha1fffdb15657033fE>:
100001ad8: a9be4ff4    	stp	x20, x19, [sp, #-0x20]!
100001adc: a9017bfd    	stp	x29, x30, [sp, #0x10]
100001ae0: 910043fd    	add	x29, sp, #0x10
100001ae4: aa0003f3    	mov	x19, x0
100001ae8: f84e0c08    	ldr	x8, [x0, #0xe0]!
100001aec: b40000e8    	cbz	x8, 0x100001b08 <__ZN4core3ptr159drop_in_place$LT$alloc..sync..ArcInner$LT$gimli..read..dwarf..Dwarf$LT$gimli..read..endian_slice..EndianSlice$LT$gimli..endianity..LittleEndian$GT$$GT$$GT$$GT$17ha1fffdb15657033fE+0x30>
100001af0: 92800009    	mov	x9, #-0x1               ; =-1
100001af4: f8690108    	ldaddl	x9, x8, [x8]
100001af8: f100051f    	cmp	x8, #0x1
100001afc: 54000061    	b.ne	0x100001b08 <__ZN4core3ptr159drop_in_place$LT$alloc..sync..ArcInner$LT$gimli..read..dwarf..Dwarf$LT$gimli..read..endian_slice..EndianSlice$LT$gimli..endianity..LittleEndian$GT$$GT$$GT$$GT$17ha1fffdb15657033fE+0x30>
100001b00: d50339bf    	dmb	ishld
100001b04: 94002835    	bl	0x10000bbd8 <__ZN5alloc4sync16Arc$LT$T$C$A$GT$9drop_slow17h3b5114797d849af5E>
100001b08: 9103a260    	add	x0, x19, #0xe8
100001b0c: a9417bfd    	ldp	x29, x30, [sp, #0x10]
100001b10: a8c24ff4    	ldp	x20, x19, [sp], #0x20
100001b14: 14000226    	b	0x1000023ac <__ZN4core3ptr60drop_in_place$LT$gimli..read..abbrev..AbbreviationsCache$GT$17hf0b637549a58e629E>
100001b18: aa0003f4    	mov	x20, x0
100001b1c: 9103a260    	add	x0, x19, #0xe8
100001b20: 94000223    	bl	0x1000023ac <__ZN4core3ptr60drop_in_place$LT$gimli..read..abbrev..AbbreviationsCache$GT$17hf0b637549a58e629E>
100001b24: aa1403e0    	mov	x0, x20
100001b28: 9400d183    	bl	0x100036134 <dyld_stub_binder+0x100036134>
100001b2c: 9400d0c7    	bl	0x100035e48 <__ZN4core9panicking16panic_in_cleanup17h08fe812c23ada610E>

0000000100001b30 <__ZN4core3ptr174drop_in_place$LT$core..result..Result$LT$addr2line..FrameIter$LT$gimli..read..endian_slice..EndianSlice$LT$gimli..endianity..LittleEndian$GT$$GT$$C$gimli..read..Error$GT$$GT$17ha6e957d5e1ca71f5E>:
100001b30: a9bf7bfd    	stp	x29, x30, [sp, #-0x10]!
100001b34: 910003fd    	mov	x29, sp
100001b38: b9400008    	ldr	w8, [x0]
100001b3c: 7100151f    	cmp	w8, #0x5
100001b40: 54000160    	b.eq	0x100001b6c <__ZN4core3ptr174drop_in_place$LT$core..result..Result$LT$addr2line..FrameIter$LT$gimli..read..endian_slice..EndianSlice$LT$gimli..endianity..LittleEndian$GT$$GT$$C$gimli..read..Error$GT$$GT$17ha6e957d5e1ca71f5E+0x3c>
100001b44: 51000d08    	sub	w8, w8, #0x3
100001b48: 7100091f    	cmp	w8, #0x2
100001b4c: 54000103    	b.lo	0x100001b6c <__ZN4core3ptr174drop_in_place$LT$core..result..Result$LT$addr2line..FrameIter$LT$gimli..read..endian_slice..EndianSlice$LT$gimli..endianity..LittleEndian$GT$$GT$$C$gimli..read..Error$GT$$GT$17ha6e957d5e1ca71f5E+0x3c>
100001b50: f9402408    	ldr	x8, [x0, #0x48]
100001b54: b40000c8    	cbz	x8, 0x100001b6c <__ZN4core3ptr174drop_in_place$LT$core..result..Result$LT$addr2line..FrameIter$LT$gimli..read..endian_slice..EndianSlice$LT$gimli..endianity..LittleEndian$GT$$GT$$C$gimli..read..Error$GT$$GT$17ha6e957d5e1ca71f5E+0x3c>
100001b58: f9401c00    	ldr	x0, [x0, #0x38]
100001b5c: d37df101    	lsl	x1, x8, #3
100001b60: 52800102    	mov	w2, #0x8                ; =8
100001b64: a8c17bfd    	ldp	x29, x30, [sp], #0x10
100001b68: 17fffb95    	b	0x1000009bc <___rust_dealloc>
100001b6c: a8c17bfd    	ldp	x29, x30, [sp], #0x10
100001b70: d65f03c0    	ret

0000000100001b74 <__ZN4core3ptr181drop_in_place$LT$core..option..Option$LT$gimli..read..line..IncompleteLineProgram$LT$gimli..read..endian_slice..EndianSlice$LT$gimli..endianity..LittleEndian$GT$$C$usize$GT$$GT$$GT$17hb82c814630029841E>:
100001b74: a9be4ff4    	stp	x20, x19, [sp, #-0x20]!
100001b78: a9017bfd    	stp	x29, x30, [sp, #0x10]
100001b7c: 910043fd    	add	x29, sp, #0x10
100001b80: f9400008    	ldr	x8, [x0]
100001b84: f100bd1f    	cmp	x8, #0x2f
100001b88: 540003a0    	b.eq	0x100001bfc <__ZN4core3ptr181drop_in_place$LT$core..option..Option$LT$gimli..read..line..IncompleteLineProgram$LT$gimli..read..endian_slice..EndianSlice$LT$gimli..endianity..LittleEndian$GT$$C$usize$GT$$GT$$GT$17hb82c814630029841E+0x88>
100001b8c: aa0003f3    	mov	x19, x0
100001b90: f9402008    	ldr	x8, [x0, #0x40]
100001b94: b40000a8    	cbz	x8, 0x100001ba8 <__ZN4core3ptr181drop_in_place$LT$core..option..Option$LT$gimli..read..line..IncompleteLineProgram$LT$gimli..read..endian_slice..EndianSlice$LT$gimli..endianity..LittleEndian$GT$$C$usize$GT$$GT$$GT$17hb82c814630029841E+0x34>
100001b98: f9402660    	ldr	x0, [x19, #0x48]
100001b9c: d37ef501    	lsl	x1, x8, #2
100001ba0: 52800042    	mov	w2, #0x2                ; =2
100001ba4: 97fffb86    	bl	0x1000009bc <___rust_dealloc>
100001ba8: f9402e68    	ldr	x8, [x19, #0x58]
100001bac: b40000c8    	cbz	x8, 0x100001bc4 <__ZN4core3ptr181drop_in_place$LT$core..option..Option$LT$gimli..read..line..IncompleteLineProgram$LT$gimli..read..endian_slice..EndianSlice$LT$gimli..endianity..LittleEndian$GT$$C$usize$GT$$GT$$GT$17hb82c814630029841E+0x50>
100001bb0: f9403260    	ldr	x0, [x19, #0x60]
100001bb4: 8b080508    	add	x8, x8, x8, lsl #1
100001bb8: d37df101    	lsl	x1, x8, #3
100001bbc: 52800102    	mov	w2, #0x8                ; =8
100001bc0: 97fffb7f    	bl	0x1000009bc <___rust_dealloc>
100001bc4: f9403a68    	ldr	x8, [x19, #0x70]
100001bc8: b40000a8    	cbz	x8, 0x100001bdc <__ZN4core3ptr181drop_in_place$LT$core..option..Option$LT$gimli..read..line..IncompleteLineProgram$LT$gimli..read..endian_slice..EndianSlice$LT$gimli..endianity..LittleEndian$GT$$C$usize$GT$$GT$$GT$17hb82c814630029841E+0x68>
100001bcc: f9403e60    	ldr	x0, [x19, #0x78]
100001bd0: d37ef501    	lsl	x1, x8, #2
100001bd4: 52800042    	mov	w2, #0x2                ; =2
100001bd8: 97fffb79    	bl	0x1000009bc <___rust_dealloc>
100001bdc: f9404668    	ldr	x8, [x19, #0x88]
100001be0: b40000e8    	cbz	x8, 0x100001bfc <__ZN4core3ptr181drop_in_place$LT$core..option..Option$LT$gimli..read..line..IncompleteLineProgram$LT$gimli..read..endian_slice..EndianSlice$LT$gimli..endianity..LittleEndian$GT$$C$usize$GT$$GT$$GT$17hb82c814630029841E+0x88>
100001be4: f9404a60    	ldr	x0, [x19, #0x90]
100001be8: d37ae501    	lsl	x1, x8, #6
100001bec: 52800102    	mov	w2, #0x8                ; =8
100001bf0: a9417bfd    	ldp	x29, x30, [sp, #0x10]
100001bf4: a8c24ff4    	ldp	x20, x19, [sp], #0x20
100001bf8: 17fffb71    	b	0x1000009bc <___rust_dealloc>
100001bfc: a9417bfd    	ldp	x29, x30, [sp, #0x10]
100001c00: a8c24ff4    	ldp	x20, x19, [sp], #0x20
100001c04: d65f03c0    	ret

0000000100001c08 <__ZN4core3ptr184drop_in_place$LT$core..result..Result$LT$addr2line..function..Functions$LT$gimli..read..endian_slice..EndianSlice$LT$gimli..endianity..LittleEndian$GT$$GT$$C$gimli..read..Error$GT$$GT$17hadbc1bd966e7dcd9E>:
100001c08: a9bc5ff8    	stp	x24, x23, [sp, #-0x40]!
100001c0c: a90157f6    	stp	x22, x21, [sp, #0x10]
100001c10: a9024ff4    	stp	x20, x19, [sp, #0x20]
100001c14: a9037bfd    	stp	x29, x30, [sp, #0x30]
100001c18: 9100c3fd    	add	x29, sp, #0x30
100001c1c: f9400014    	ldr	x20, [x0]
100001c20: b4000574    	cbz	x20, 0x100001ccc <__ZN4core3ptr184drop_in_place$LT$core..result..Result$LT$addr2line..function..Functions$LT$gimli..read..endian_slice..EndianSlice$LT$gimli..endianity..LittleEndian$GT$$GT$$C$gimli..read..Error$GT$$GT$17hadbc1bd966e7dcd9E+0xc4>
100001c24: aa0003f3    	mov	x19, x0
100001c28: f9400415    	ldr	x21, [x0, #0x8]
100001c2c: b40003b5    	cbz	x21, 0x100001ca0 <__ZN4core3ptr184drop_in_place$LT$core..result..Result$LT$addr2line..function..Functions$LT$gimli..read..endian_slice..EndianSlice$LT$gimli..endianity..LittleEndian$GT$$GT$$C$gimli..read..Error$GT$$GT$17hadbc1bd966e7dcd9E+0x98>
100001c30: 91006296    	add	x22, x20, #0x18
100001c34: aa1503f7    	mov	x23, x21
100001c38: 14000004    	b	0x100001c48 <__ZN4core3ptr184drop_in_place$LT$core..result..Result$LT$addr2line..function..Functions$LT$gimli..read..endian_slice..EndianSlice$LT$gimli..endianity..LittleEndian$GT$$GT$$C$gimli..read..Error$GT$$GT$17hadbc1bd966e7dcd9E+0x40>
100001c3c: 910122d6    	add	x22, x22, #0x48
100001c40: f10006f7    	subs	x23, x23, #0x1
100001c44: 54000240    	b.eq	0x100001c8c <__ZN4core3ptr184drop_in_place$LT$core..result..Result$LT$addr2line..function..Functions$LT$gimli..read..endian_slice..EndianSlice$LT$gimli..endianity..LittleEndian$GT$$GT$$C$gimli..read..Error$GT$$GT$17hadbc1bd966e7dcd9E+0x84>
100001c48: f85f02c8    	ldur	x8, [x22, #-0x10]
100001c4c: b4ffff88    	cbz	x8, 0x100001c3c <__ZN4core3ptr184drop_in_place$LT$core..result..Result$LT$addr2line..function..Functions$LT$gimli..read..endian_slice..EndianSlice$LT$gimli..endianity..LittleEndian$GT$$GT$$C$gimli..read..Error$GT$$GT$17hadbc1bd966e7dcd9E+0x34>
100001c50: f85f82c0    	ldur	x0, [x22, #-0x8]
100001c54: b4ffff40    	cbz	x0, 0x100001c3c <__ZN4core3ptr184drop_in_place$LT$core..result..Result$LT$addr2line..function..Functions$LT$gimli..read..endian_slice..EndianSlice$LT$gimli..endianity..LittleEndian$GT$$GT$$C$gimli..read..Error$GT$$GT$17hadbc1bd966e7dcd9E+0x34>
100001c58: f94002c8    	ldr	x8, [x22]
100001c5c: b40000a8    	cbz	x8, 0x100001c70 <__ZN4core3ptr184drop_in_place$LT$core..result..Result$LT$addr2line..function..Functions$LT$gimli..read..endian_slice..EndianSlice$LT$gimli..endianity..LittleEndian$GT$$GT$$C$gimli..read..Error$GT$$GT$17hadbc1bd966e7dcd9E+0x68>
100001c60: 8b080508    	add	x8, x8, x8, lsl #1
100001c64: d37ced01    	lsl	x1, x8, #4
100001c68: 52800102    	mov	w2, #0x8                ; =8
100001c6c: 97fffb54    	bl	0x1000009bc <___rust_dealloc>
100001c70: f9400ac8    	ldr	x8, [x22, #0x10]
100001c74: b4fffe48    	cbz	x8, 0x100001c3c <__ZN4core3ptr184drop_in_place$LT$core..result..Result$LT$addr2line..function..Functions$LT$gimli..read..endian_slice..EndianSlice$LT$gimli..endianity..LittleEndian$GT$$GT$$C$gimli..read..Error$GT$$GT$17hadbc1bd966e7dcd9E+0x34>
100001c78: f94006c0    	ldr	x0, [x22, #0x8]
100001c7c: d37be901    	lsl	x1, x8, #5
100001c80: 52800102    	mov	w2, #0x8                ; =8
100001c84: 97fffb4e    	bl	0x1000009bc <___rust_dealloc>
100001c88: 17ffffed    	b	0x100001c3c <__ZN4core3ptr184drop_in_place$LT$core..result..Result$LT$addr2line..function..Functions$LT$gimli..read..endian_slice..EndianSlice$LT$gimli..endianity..LittleEndian$GT$$GT$$C$gimli..read..Error$GT$$GT$17hadbc1bd966e7dcd9E+0x34>
100001c8c: 8b150ea8    	add	x8, x21, x21, lsl #3
100001c90: d37df101    	lsl	x1, x8, #3
100001c94: aa1403e0    	mov	x0, x20
100001c98: 52800102    	mov	w2, #0x8                ; =8
100001c9c: 97fffb48    	bl	0x1000009bc <___rust_dealloc>
100001ca0: f9400e68    	ldr	x8, [x19, #0x18]
100001ca4: b4000148    	cbz	x8, 0x100001ccc <__ZN4core3ptr184drop_in_place$LT$core..result..Result$LT$addr2line..function..Functions$LT$gimli..read..endian_slice..EndianSlice$LT$gimli..endianity..LittleEndian$GT$$GT$$C$gimli..read..Error$GT$$GT$17hadbc1bd966e7dcd9E+0xc4>
100001ca8: f9400a60    	ldr	x0, [x19, #0x10]
100001cac: 8b080508    	add	x8, x8, x8, lsl #1
100001cb0: d37df101    	lsl	x1, x8, #3
100001cb4: 52800102    	mov	w2, #0x8                ; =8
100001cb8: a9437bfd    	ldp	x29, x30, [sp, #0x30]
100001cbc: a9424ff4    	ldp	x20, x19, [sp, #0x20]
100001cc0: a94157f6    	ldp	x22, x21, [sp, #0x10]
100001cc4: a8c45ff8    	ldp	x24, x23, [sp], #0x40
100001cc8: 17fffb3d    	b	0x1000009bc <___rust_dealloc>
100001ccc: a9437bfd    	ldp	x29, x30, [sp, #0x30]
100001cd0: a9424ff4    	ldp	x20, x19, [sp, #0x20]
100001cd4: a94157f6    	ldp	x22, x21, [sp, #0x10]
100001cd8: a8c45ff8    	ldp	x24, x23, [sp], #0x40
100001cdc: d65f03c0    	ret

0000000100001ce0 <__ZN4core3ptr215drop_in_place$LT$std..sys..thread_local..native..lazy..State$LT$core..cell..Cell$LT$core..option..Option$LT$alloc..sync..Arc$LT$std..sync..mutex..Mutex$LT$alloc..vec..Vec$LT$u8$GT$$GT$$GT$$GT$$GT$$C$$LP$$RP$$GT$$GT$17hae68fe6429f2e504E>:
100001ce0: a9bf7bfd    	stp	x29, x30, [sp, #-0x10]!
100001ce4: 910003fd    	mov	x29, sp
100001ce8: f9400008    	ldr	x8, [x0]
100001cec: f100051f    	cmp	x8, #0x1
100001cf0: 54000141    	b.ne	0x100001d18 <__ZN4core3ptr215drop_in_place$LT$std..sys..thread_local..native..lazy..State$LT$core..cell..Cell$LT$core..option..Option$LT$alloc..sync..Arc$LT$std..sync..mutex..Mutex$LT$alloc..vec..Vec$LT$u8$GT$$GT$$GT$$GT$$GT$$C$$LP$$RP$$GT$$GT$17hae68fe6429f2e504E+0x38>
100001cf4: f8408c08    	ldr	x8, [x0, #0x8]!
100001cf8: b4000108    	cbz	x8, 0x100001d18 <__ZN4core3ptr215drop_in_place$LT$std..sys..thread_local..native..lazy..State$LT$core..cell..Cell$LT$core..option..Option$LT$alloc..sync..Arc$LT$std..sync..mutex..Mutex$LT$alloc..vec..Vec$LT$u8$GT$$GT$$GT$$GT$$GT$$C$$LP$$RP$$GT$$GT$17hae68fe6429f2e504E+0x38>
100001cfc: 92800009    	mov	x9, #-0x1               ; =-1
100001d00: f8690108    	ldaddl	x9, x8, [x8]
100001d04: f100051f    	cmp	x8, #0x1
100001d08: 54000081    	b.ne	0x100001d18 <__ZN4core3ptr215drop_in_place$LT$std..sys..thread_local..native..lazy..State$LT$core..cell..Cell$LT$core..option..Option$LT$alloc..sync..Arc$LT$std..sync..mutex..Mutex$LT$alloc..vec..Vec$LT$u8$GT$$GT$$GT$$GT$$GT$$C$$LP$$RP$$GT$$GT$17hae68fe6429f2e504E+0x38>
100001d0c: d50339bf    	dmb	ishld
100001d10: a8c17bfd    	ldp	x29, x30, [sp], #0x10
100001d14: 14002833    	b	0x10000bde0 <__ZN5alloc4sync16Arc$LT$T$C$A$GT$9drop_slow17h861c99df7480a512E>
100001d18: a8c17bfd    	ldp	x29, x30, [sp], #0x10
100001d1c: d65f03c0    	ret

0000000100001d20 <__ZN4core3ptr250drop_in_place$LT$$LP$gimli..read..UnitOffset$C$addr2line..lazy..LazyCell$LT$core..result..Result$LT$addr2line..function..Function$LT$gimli..read..endian_slice..EndianSlice$LT$gimli..endianity..LittleEndian$GT$$GT$$C$gimli..read..Error$GT$$GT$$RP$$GT$17h699aee656a8f6dfcE>:
100001d20: f9400408    	ldr	x8, [x0, #0x8]
100001d24: b40002e8    	cbz	x8, 0x100001d80 <__ZN4core3ptr250drop_in_place$LT$$LP$gimli..read..UnitOffset$C$addr2line..lazy..LazyCell$LT$core..result..Result$LT$addr2line..function..Function$LT$gimli..read..endian_slice..EndianSlice$LT$gimli..endianity..LittleEndian$GT$$GT$$C$gimli..read..Error$GT$$GT$$RP$$GT$17h699aee656a8f6dfcE+0x60>
100001d28: f9400808    	ldr	x8, [x0, #0x10]
100001d2c: b40002a8    	cbz	x8, 0x100001d80 <__ZN4core3ptr250drop_in_place$LT$$LP$gimli..read..UnitOffset$C$addr2line..lazy..LazyCell$LT$core..result..Result$LT$addr2line..function..Function$LT$gimli..read..endian_slice..EndianSlice$LT$gimli..endianity..LittleEndian$GT$$GT$$C$gimli..read..Error$GT$$GT$$RP$$GT$17h699aee656a8f6dfcE+0x60>
100001d30: f9400c09    	ldr	x9, [x0, #0x18]
100001d34: b40001a9    	cbz	x9, 0x100001d68 <__ZN4core3ptr250drop_in_place$LT$$LP$gimli..read..UnitOffset$C$addr2line..lazy..LazyCell$LT$core..result..Result$LT$addr2line..function..Function$LT$gimli..read..endian_slice..EndianSlice$LT$gimli..endianity..LittleEndian$GT$$GT$$C$gimli..read..Error$GT$$GT$$RP$$GT$17h699aee656a8f6dfcE+0x48>
100001d38: a9be4ff4    	stp	x20, x19, [sp, #-0x20]!
100001d3c: a9017bfd    	stp	x29, x30, [sp, #0x10]
100001d40: 910043fd    	add	x29, sp, #0x10
100001d44: 8b090529    	add	x9, x9, x9, lsl #1
100001d48: d37ced21    	lsl	x1, x9, #4
100001d4c: aa0003f3    	mov	x19, x0
100001d50: aa0803e0    	mov	x0, x8
100001d54: 52800102    	mov	w2, #0x8                ; =8
100001d58: 97fffb19    	bl	0x1000009bc <___rust_dealloc>
100001d5c: aa1303e0    	mov	x0, x19
100001d60: a9417bfd    	ldp	x29, x30, [sp, #0x10]
100001d64: a8c24ff4    	ldp	x20, x19, [sp], #0x20
100001d68: f9401408    	ldr	x8, [x0, #0x28]
100001d6c: b40000a8    	cbz	x8, 0x100001d80 <__ZN4core3ptr250drop_in_place$LT$$LP$gimli..read..UnitOffset$C$addr2line..lazy..LazyCell$LT$core..result..Result$LT$addr2line..function..Function$LT$gimli..read..endian_slice..EndianSlice$LT$gimli..endianity..LittleEndian$GT$$GT$$C$gimli..read..Error$GT$$GT$$RP$$GT$17h699aee656a8f6dfcE+0x60>
100001d70: f9401000    	ldr	x0, [x0, #0x20]
100001d74: d37be901    	lsl	x1, x8, #5
100001d78: 52800102    	mov	w2, #0x8                ; =8
100001d7c: 17fffb10    	b	0x1000009bc <___rust_dealloc>
100001d80: d65f03c0    	ret

0000000100001d84 <__ZN4core3ptr273drop_in_place$LT$alloc..vec..Vec$LT$$LP$gimli..read..UnitOffset$C$addr2line..lazy..LazyCell$LT$core..result..Result$LT$addr2line..function..Function$LT$gimli..read..endian_slice..EndianSlice$LT$gimli..endianity..LittleEndian$GT$$GT$$C$gimli..read..Error$GT$$GT$$RP$$GT$$GT$17hb35f5c42951b3060E>:
100001d84: a9bd57f6    	stp	x22, x21, [sp, #-0x30]!
100001d88: a9014ff4    	stp	x20, x19, [sp, #0x10]
100001d8c: a9027bfd    	stp	x29, x30, [sp, #0x20]
100001d90: 910083fd    	add	x29, sp, #0x20
100001d94: aa0003f4    	mov	x20, x0
100001d98: a940d413    	ldp	x19, x21, [x0, #0x8]
100001d9c: b40002f5    	cbz	x21, 0x100001df8 <__ZN4core3ptr273drop_in_place$LT$alloc..vec..Vec$LT$$LP$gimli..read..UnitOffset$C$addr2line..lazy..LazyCell$LT$core..result..Result$LT$addr2line..function..Function$LT$gimli..read..endian_slice..EndianSlice$LT$gimli..endianity..LittleEndian$GT$$GT$$C$gimli..read..Error$GT$$GT$$RP$$GT$$GT$17hb35f5c42951b3060E+0x74>
100001da0: 91006276    	add	x22, x19, #0x18
100001da4: 14000004    	b	0x100001db4 <__ZN4core3ptr273drop_in_place$LT$alloc..vec..Vec$LT$$LP$gimli..read..UnitOffset$C$addr2line..lazy..LazyCell$LT$core..result..Result$LT$addr2line..function..Function$LT$gimli..read..endian_slice..EndianSlice$LT$gimli..endianity..LittleEndian$GT$$GT$$C$gimli..read..Error$GT$$GT$$RP$$GT$$GT$17hb35f5c42951b3060E+0x30>
100001da8: 910122d6    	add	x22, x22, #0x48
100001dac: f10006b5    	subs	x21, x21, #0x1
100001db0: 54000240    	b.eq	0x100001df8 <__ZN4core3ptr273drop_in_place$LT$alloc..vec..Vec$LT$$LP$gimli..read..UnitOffset$C$addr2line..lazy..LazyCell$LT$core..result..Result$LT$addr2line..function..Function$LT$gimli..read..endian_slice..EndianSlice$LT$gimli..endianity..LittleEndian$GT$$GT$$C$gimli..read..Error$GT$$GT$$RP$$GT$$GT$17hb35f5c42951b3060E+0x74>
100001db4: f85f02c8    	ldur	x8, [x22, #-0x10]
100001db8: b4ffff88    	cbz	x8, 0x100001da8 <__ZN4core3ptr273drop_in_place$LT$alloc..vec..Vec$LT$$LP$gimli..read..UnitOffset$C$addr2line..lazy..LazyCell$LT$core..result..Result$LT$addr2line..function..Function$LT$gimli..read..endian_slice..EndianSlice$LT$gimli..endianity..LittleEndian$GT$$GT$$C$gimli..read..Error$GT$$GT$$RP$$GT$$GT$17hb35f5c42951b3060E+0x24>
100001dbc: f85f82c0    	ldur	x0, [x22, #-0x8]
100001dc0: b4ffff40    	cbz	x0, 0x100001da8 <__ZN4core3ptr273drop_in_place$LT$alloc..vec..Vec$LT$$LP$gimli..read..UnitOffset$C$addr2line..lazy..LazyCell$LT$core..result..Result$LT$addr2line..function..Function$LT$gimli..read..endian_slice..EndianSlice$LT$gimli..endianity..LittleEndian$GT$$GT$$C$gimli..read..Error$GT$$GT$$RP$$GT$$GT$17hb35f5c42951b3060E+0x24>
100001dc4: f94002c8    	ldr	x8, [x22]
100001dc8: b40000a8    	cbz	x8, 0x100001ddc <__ZN4core3ptr273drop_in_place$LT$alloc..vec..Vec$LT$$LP$gimli..read..UnitOffset$C$addr2line..lazy..LazyCell$LT$core..result..Result$LT$addr2line..function..Function$LT$gimli..read..endian_slice..EndianSlice$LT$gimli..endianity..LittleEndian$GT$$GT$$C$gimli..read..Error$GT$$GT$$RP$$GT$$GT$17hb35f5c42951b3060E+0x58>
100001dcc: 8b080508    	add	x8, x8, x8, lsl #1
100001dd0: d37ced01    	lsl	x1, x8, #4
100001dd4: 52800102    	mov	w2, #0x8                ; =8
100001dd8: 97fffaf9    	bl	0x1000009bc <___rust_dealloc>
100001ddc: f9400ac8    	ldr	x8, [x22, #0x10]
100001de0: b4fffe48    	cbz	x8, 0x100001da8 <__ZN4core3ptr273drop_in_place$LT$alloc..vec..Vec$LT$$LP$gimli..read..UnitOffset$C$addr2line..lazy..LazyCell$LT$core..result..Result$LT$addr2line..function..Function$LT$gimli..read..endian_slice..EndianSlice$LT$gimli..endianity..LittleEndian$GT$$GT$$C$gimli..read..Error$GT$$GT$$RP$$GT$$GT$17hb35f5c42951b3060E+0x24>
100001de4: f94006c0    	ldr	x0, [x22, #0x8]
100001de8: d37be901    	lsl	x1, x8, #5
100001dec: 52800102    	mov	w2, #0x8                ; =8
100001df0: 97fffaf3    	bl	0x1000009bc <___rust_dealloc>
100001df4: 17ffffed    	b	0x100001da8 <__ZN4core3ptr273drop_in_place$LT$alloc..vec..Vec$LT$$LP$gimli..read..UnitOffset$C$addr2line..lazy..LazyCell$LT$core..result..Result$LT$addr2line..function..Function$LT$gimli..read..endian_slice..EndianSlice$LT$gimli..endianity..LittleEndian$GT$$GT$$C$gimli..read..Error$GT$$GT$$RP$$GT$$GT$17hb35f5c42951b3060E+0x24>
100001df8: f9400288    	ldr	x8, [x20]
100001dfc: b4000128    	cbz	x8, 0x100001e20 <__ZN4core3ptr273drop_in_place$LT$alloc..vec..Vec$LT$$LP$gimli..read..UnitOffset$C$addr2line..lazy..LazyCell$LT$core..result..Result$LT$addr2line..function..Function$LT$gimli..read..endian_slice..EndianSlice$LT$gimli..endianity..LittleEndian$GT$$GT$$C$gimli..read..Error$GT$$GT$$RP$$GT$$GT$17hb35f5c42951b3060E+0x9c>
100001e00: 8b080d08    	add	x8, x8, x8, lsl #3
100001e04: d37df101    	lsl	x1, x8, #3
100001e08: aa1303e0    	mov	x0, x19
100001e0c: 52800102    	mov	w2, #0x8                ; =8
100001e10: a9427bfd    	ldp	x29, x30, [sp, #0x20]
100001e14: a9414ff4    	ldp	x20, x19, [sp, #0x10]
100001e18: a8c357f6    	ldp	x22, x21, [sp], #0x30
100001e1c: 17fffae8    	b	0x1000009bc <___rust_dealloc>
100001e20: a9427bfd    	ldp	x29, x30, [sp, #0x20]
100001e24: a9414ff4    	ldp	x20, x19, [sp, #0x10]
100001e28: a8c357f6    	ldp	x22, x21, [sp], #0x30
100001e2c: d65f03c0    	ret

0000000100001e30 <__ZN4core3ptr275drop_in_place$LT$gimli..read..line..LineRows$LT$gimli..read..endian_slice..EndianSlice$LT$gimli..endianity..LittleEndian$GT$$C$gimli..read..line..IncompleteLineProgram$LT$gimli..read..endian_slice..EndianSlice$LT$gimli..endianity..LittleEndian$GT$$C$usize$GT$$C$usize$GT$$GT$17h80cbe7352a65736fE>:
100001e30: a9be4ff4    	stp	x20, x19, [sp, #-0x20]!
100001e34: a9017bfd    	stp	x29, x30, [sp, #0x10]
100001e38: 910043fd    	add	x29, sp, #0x10
100001e3c: aa0003f3    	mov	x19, x0
100001e40: f9402008    	ldr	x8, [x0, #0x40]
100001e44: b40000a8    	cbz	x8, 0x100001e58 <__ZN4core3ptr275drop_in_place$LT$gimli..read..line..LineRows$LT$gimli..read..endian_slice..EndianSlice$LT$gimli..endianity..LittleEndian$GT$$C$gimli..read..line..IncompleteLineProgram$LT$gimli..read..endian_slice..EndianSlice$LT$gimli..endianity..LittleEndian$GT$$C$usize$GT$$C$usize$GT$$GT$17h80cbe7352a65736fE+0x28>
100001e48: f9402660    	ldr	x0, [x19, #0x48]
100001e4c: d37ef501    	lsl	x1, x8, #2
100001e50: 52800042    	mov	w2, #0x2                ; =2
100001e54: 97fffada    	bl	0x1000009bc <___rust_dealloc>
100001e58: f9402e68    	ldr	x8, [x19, #0x58]
100001e5c: b40000c8    	cbz	x8, 0x100001e74 <__ZN4core3ptr275drop_in_place$LT$gimli..read..line..LineRows$LT$gimli..read..endian_slice..EndianSlice$LT$gimli..endianity..LittleEndian$GT$$C$gimli..read..line..IncompleteLineProgram$LT$gimli..read..endian_slice..EndianSlice$LT$gimli..endianity..LittleEndian$GT$$C$usize$GT$$C$usize$GT$$GT$17h80cbe7352a65736fE+0x44>
100001e60: f9403260    	ldr	x0, [x19, #0x60]
100001e64: 8b080508    	add	x8, x8, x8, lsl #1
100001e68: d37df101    	lsl	x1, x8, #3
100001e6c: 52800102    	mov	w2, #0x8                ; =8
100001e70: 97fffad3    	bl	0x1000009bc <___rust_dealloc>
100001e74: f9403a68    	ldr	x8, [x19, #0x70]
100001e78: b40000a8    	cbz	x8, 0x100001e8c <__ZN4core3ptr275drop_in_place$LT$gimli..read..line..LineRows$LT$gimli..read..endian_slice..EndianSlice$LT$gimli..endianity..LittleEndian$GT$$C$gimli..read..line..IncompleteLineProgram$LT$gimli..read..endian_slice..EndianSlice$LT$gimli..endianity..LittleEndian$GT$$C$usize$GT$$C$usize$GT$$GT$17h80cbe7352a65736fE+0x5c>
100001e7c: f9403e60    	ldr	x0, [x19, #0x78]
100001e80: d37ef501    	lsl	x1, x8, #2
100001e84: 52800042    	mov	w2, #0x2                ; =2
100001e88: 97fffacd    	bl	0x1000009bc <___rust_dealloc>
100001e8c: f9404668    	ldr	x8, [x19, #0x88]
100001e90: b40000e8    	cbz	x8, 0x100001eac <__ZN4core3ptr275drop_in_place$LT$gimli..read..line..LineRows$LT$gimli..read..endian_slice..EndianSlice$LT$gimli..endianity..LittleEndian$GT$$C$gimli..read..line..IncompleteLineProgram$LT$gimli..read..endian_slice..EndianSlice$LT$gimli..endianity..LittleEndian$GT$$C$usize$GT$$C$usize$GT$$GT$17h80cbe7352a65736fE+0x7c>
100001e94: f9404a60    	ldr	x0, [x19, #0x90]
100001e98: d37ae501    	lsl	x1, x8, #6
100001e9c: 52800102    	mov	w2, #0x8                ; =8
100001ea0: a9417bfd    	ldp	x29, x30, [sp, #0x10]
100001ea4: a8c24ff4    	ldp	x20, x19, [sp], #0x20
100001ea8: 17fffac5    	b	0x1000009bc <___rust_dealloc>
100001eac: a9417bfd    	ldp	x29, x30, [sp, #0x10]
100001eb0: a8c24ff4    	ldp	x20, x19, [sp], #0x20
100001eb4: d65f03c0    	ret

0000000100001eb8 <__ZN4core3ptr280drop_in_place$LT$$LT$alloc..collections..btree..map..IntoIter$LT$K$C$V$C$A$GT$$u20$as$u20$core..ops..drop..Drop$GT$..drop..DropGuard$LT$u64$C$core..result..Result$LT$alloc..sync..Arc$LT$gimli..read..abbrev..Abbreviations$GT$$C$gimli..read..Error$GT$$C$alloc..alloc..Global$GT$$GT$17h9dedcdb999c22661E>:
100001eb8: d10103ff    	sub	sp, sp, #0x40
100001ebc: a9024ff4    	stp	x20, x19, [sp, #0x20]
100001ec0: a9037bfd    	stp	x29, x30, [sp, #0x30]
100001ec4: 9100c3fd    	add	x29, sp, #0x30
100001ec8: aa0003f3    	mov	x19, x0
100001ecc: 910023e0    	add	x0, sp, #0x8
100001ed0: aa1303e1    	mov	x1, x19
100001ed4: 940026b8    	bl	0x10000b9b4 <__ZN5alloc11collections5btree3map25IntoIter$LT$K$C$V$C$A$GT$10dying_next17hbe5f2df5d8f16363E>
100001ed8: f94007e8    	ldr	x8, [sp, #0x8]
100001edc: b4000288    	cbz	x8, 0x100001f2c <__ZN4core3ptr280drop_in_place$LT$$LT$alloc..collections..btree..map..IntoIter$LT$K$C$V$C$A$GT$$u20$as$u20$core..ops..drop..Drop$GT$..drop..DropGuard$LT$u64$C$core..result..Result$LT$alloc..sync..Arc$LT$gimli..read..abbrev..Abbreviations$GT$$C$gimli..read..Error$GT$$C$alloc..alloc..Global$GT$$GT$17h9dedcdb999c22661E+0x74>
100001ee0: 92800014    	mov	x20, #-0x1              ; =-1
100001ee4: 14000006    	b	0x100001efc <__ZN4core3ptr280drop_in_place$LT$$LT$alloc..collections..btree..map..IntoIter$LT$K$C$V$C$A$GT$$u20$as$u20$core..ops..drop..Drop$GT$..drop..DropGuard$LT$u64$C$core..result..Result$LT$alloc..sync..Arc$LT$gimli..read..abbrev..Abbreviations$GT$$C$gimli..read..Error$GT$$C$alloc..alloc..Global$GT$$GT$17h9dedcdb999c22661E+0x44>
100001ee8: 910023e0    	add	x0, sp, #0x8
100001eec: aa1303e1    	mov	x1, x19
100001ef0: 940026b1    	bl	0x10000b9b4 <__ZN5alloc11collections5btree3map25IntoIter$LT$K$C$V$C$A$GT$10dying_next17hbe5f2df5d8f16363E>
100001ef4: f94007e8    	ldr	x8, [sp, #0x8]
100001ef8: b40001a8    	cbz	x8, 0x100001f2c <__ZN4core3ptr280drop_in_place$LT$$LT$alloc..collections..btree..map..IntoIter$LT$K$C$V$C$A$GT$$u20$as$u20$core..ops..drop..Drop$GT$..drop..DropGuard$LT$u64$C$core..result..Result$LT$alloc..sync..Arc$LT$gimli..read..abbrev..Abbreviations$GT$$C$gimli..read..Error$GT$$C$alloc..alloc..Global$GT$$GT$17h9dedcdb999c22661E+0x74>
100001efc: f9400fe9    	ldr	x9, [sp, #0x18]
100001f00: 8b091100    	add	x0, x8, x9, lsl #4
100001f04: 39400008    	ldrb	w8, [x0]
100001f08: 71012d1f    	cmp	w8, #0x4b
100001f0c: 54fffee1    	b.ne	0x100001ee8 <__ZN4core3ptr280drop_in_place$LT$$LT$alloc..collections..btree..map..IntoIter$LT$K$C$V$C$A$GT$$u20$as$u20$core..ops..drop..Drop$GT$..drop..DropGuard$LT$u64$C$core..result..Result$LT$alloc..sync..Arc$LT$gimli..read..abbrev..Abbreviations$GT$$C$gimli..read..Error$GT$$C$alloc..alloc..Global$GT$$GT$17h9dedcdb999c22661E+0x30>
100001f10: f8408c08    	ldr	x8, [x0, #0x8]!
100001f14: f8740108    	ldaddl	x20, x8, [x8]
100001f18: f100051f    	cmp	x8, #0x1
100001f1c: 54fffe61    	b.ne	0x100001ee8 <__ZN4core3ptr280drop_in_place$LT$$LT$alloc..collections..btree..map..IntoIter$LT$K$C$V$C$A$GT$$u20$as$u20$core..ops..drop..Drop$GT$..drop..DropGuard$LT$u64$C$core..result..Result$LT$alloc..sync..Arc$LT$gimli..read..abbrev..Abbreviations$GT$$C$gimli..read..Error$GT$$C$alloc..alloc..Global$GT$$GT$17h9dedcdb999c22661E+0x30>
100001f20: d50339bf    	dmb	ishld
100001f24: 940027e8    	bl	0x10000bec4 <__ZN5alloc4sync16Arc$LT$T$C$A$GT$9drop_slow17hdcf65d86251390ebE>
100001f28: 17fffff0    	b	0x100001ee8 <__ZN4core3ptr280drop_in_place$LT$$LT$alloc..collections..btree..map..IntoIter$LT$K$C$V$C$A$GT$$u20$as$u20$core..ops..drop..Drop$GT$..drop..DropGuard$LT$u64$C$core..result..Result$LT$alloc..sync..Arc$LT$gimli..read..abbrev..Abbreviations$GT$$C$gimli..read..Error$GT$$C$alloc..alloc..Global$GT$$GT$17h9dedcdb999c22661E+0x30>
100001f2c: a9437bfd    	ldp	x29, x30, [sp, #0x30]
100001f30: a9424ff4    	ldp	x20, x19, [sp, #0x20]
100001f34: 910103ff    	add	sp, sp, #0x40
100001f38: d65f03c0    	ret

0000000100001f3c <__ZN4core3ptr285drop_in_place$LT$alloc..boxed..Box$LT$$u5b$$LP$gimli..read..UnitOffset$C$addr2line..lazy..LazyCell$LT$core..result..Result$LT$addr2line..function..Function$LT$gimli..read..endian_slice..EndianSlice$LT$gimli..endianity..LittleEndian$GT$$GT$$C$gimli..read..Error$GT$$GT$$RP$$u5d$$GT$$GT$17h3bf2bc9752ba68fdE>:
100001f3c: b40004c1    	cbz	x1, 0x100001fd4 <__ZN4core3ptr285drop_in_place$LT$alloc..boxed..Box$LT$$u5b$$LP$gimli..read..UnitOffset$C$addr2line..lazy..LazyCell$LT$core..result..Result$LT$addr2line..function..Function$LT$gimli..read..endian_slice..EndianSlice$LT$gimli..endianity..LittleEndian$GT$$GT$$C$gimli..read..Error$GT$$GT$$RP$$u5d$$GT$$GT$17h3bf2bc9752ba68fdE+0x98>
100001f40: a9bd57f6    	stp	x22, x21, [sp, #-0x30]!
100001f44: a9014ff4    	stp	x20, x19, [sp, #0x10]
100001f48: a9027bfd    	stp	x29, x30, [sp, #0x20]
100001f4c: 910083fd    	add	x29, sp, #0x20
100001f50: aa0103f4    	mov	x20, x1
100001f54: aa0003f3    	mov	x19, x0
100001f58: 91006015    	add	x21, x0, #0x18
100001f5c: aa0103f6    	mov	x22, x1
100001f60: 14000004    	b	0x100001f70 <__ZN4core3ptr285drop_in_place$LT$alloc..boxed..Box$LT$$u5b$$LP$gimli..read..UnitOffset$C$addr2line..lazy..LazyCell$LT$core..result..Result$LT$addr2line..function..Function$LT$gimli..read..endian_slice..EndianSlice$LT$gimli..endianity..LittleEndian$GT$$GT$$C$gimli..read..Error$GT$$GT$$RP$$u5d$$GT$$GT$17h3bf2bc9752ba68fdE+0x34>
100001f64: 910122b5    	add	x21, x21, #0x48
100001f68: f10006d6    	subs	x22, x22, #0x1
100001f6c: 54000240    	b.eq	0x100001fb4 <__ZN4core3ptr285drop_in_place$LT$alloc..boxed..Box$LT$$u5b$$LP$gimli..read..UnitOffset$C$addr2line..lazy..LazyCell$LT$core..result..Result$LT$addr2line..function..Function$LT$gimli..read..endian_slice..EndianSlice$LT$gimli..endianity..LittleEndian$GT$$GT$$C$gimli..read..Error$GT$$GT$$RP$$u5d$$GT$$GT$17h3bf2bc9752ba68fdE+0x78>
100001f70: f85f02a8    	ldur	x8, [x21, #-0x10]
100001f74: b4ffff88    	cbz	x8, 0x100001f64 <__ZN4core3ptr285drop_in_place$LT$alloc..boxed..Box$LT$$u5b$$LP$gimli..read..UnitOffset$C$addr2line..lazy..LazyCell$LT$core..result..Result$LT$addr2line..function..Function$LT$gimli..read..endian_slice..EndianSlice$LT$gimli..endianity..LittleEndian$GT$$GT$$C$gimli..read..Error$GT$$GT$$RP$$u5d$$GT$$GT$17h3bf2bc9752ba68fdE+0x28>
100001f78: f85f82a0    	ldur	x0, [x21, #-0x8]
100001f7c: b4ffff40    	cbz	x0, 0x100001f64 <__ZN4core3ptr285drop_in_place$LT$alloc..boxed..Box$LT$$u5b$$LP$gimli..read..UnitOffset$C$addr2line..lazy..LazyCell$LT$core..result..Result$LT$addr2line..function..Function$LT$gimli..read..endian_slice..EndianSlice$LT$gimli..endianity..LittleEndian$GT$$GT$$C$gimli..read..Error$GT$$GT$$RP$$u5d$$GT$$GT$17h3bf2bc9752ba68fdE+0x28>
100001f80: f94002a8    	ldr	x8, [x21]
100001f84: b40000a8    	cbz	x8, 0x100001f98 <__ZN4core3ptr285drop_in_place$LT$alloc..boxed..Box$LT$$u5b$$LP$gimli..read..UnitOffset$C$addr2line..lazy..LazyCell$LT$core..result..Result$LT$addr2line..function..Function$LT$gimli..read..endian_slice..EndianSlice$LT$gimli..endianity..LittleEndian$GT$$GT$$C$gimli..read..Error$GT$$GT$$RP$$u5d$$GT$$GT$17h3bf2bc9752ba68fdE+0x5c>
100001f88: 8b080508    	add	x8, x8, x8, lsl #1
100001f8c: d37ced01    	lsl	x1, x8, #4
100001f90: 52800102    	mov	w2, #0x8                ; =8
100001f94: 97fffa8a    	bl	0x1000009bc <___rust_dealloc>
100001f98: f9400aa8    	ldr	x8, [x21, #0x10]
100001f9c: b4fffe48    	cbz	x8, 0x100001f64 <__ZN4core3ptr285drop_in_place$LT$alloc..boxed..Box$LT$$u5b$$LP$gimli..read..UnitOffset$C$addr2line..lazy..LazyCell$LT$core..result..Result$LT$addr2line..function..Function$LT$gimli..read..endian_slice..EndianSlice$LT$gimli..endianity..LittleEndian$GT$$GT$$C$gimli..read..Error$GT$$GT$$RP$$u5d$$GT$$GT$17h3bf2bc9752ba68fdE+0x28>
100001fa0: f94006a0    	ldr	x0, [x21, #0x8]
100001fa4: d37be901    	lsl	x1, x8, #5
100001fa8: 52800102    	mov	w2, #0x8                ; =8
100001fac: 97fffa84    	bl	0x1000009bc <___rust_dealloc>
100001fb0: 17ffffed    	b	0x100001f64 <__ZN4core3ptr285drop_in_place$LT$alloc..boxed..Box$LT$$u5b$$LP$gimli..read..UnitOffset$C$addr2line..lazy..LazyCell$LT$core..result..Result$LT$addr2line..function..Function$LT$gimli..read..endian_slice..EndianSlice$LT$gimli..endianity..LittleEndian$GT$$GT$$C$gimli..read..Error$GT$$GT$$RP$$u5d$$GT$$GT$17h3bf2bc9752ba68fdE+0x28>
100001fb4: 8b140e88    	add	x8, x20, x20, lsl #3
100001fb8: d37df101    	lsl	x1, x8, #3
100001fbc: aa1303e0    	mov	x0, x19
100001fc0: 52800102    	mov	w2, #0x8                ; =8
100001fc4: a9427bfd    	ldp	x29, x30, [sp, #0x20]
100001fc8: a9414ff4    	ldp	x20, x19, [sp, #0x10]
100001fcc: a8c357f6    	ldp	x22, x21, [sp], #0x30
100001fd0: 17fffa7b    	b	0x1000009bc <___rust_dealloc>
100001fd4: d65f03c0    	ret

0000000100001fd8 <__ZN4core3ptr383drop_in_place$LT$core..result..Result$LT$core..option..Option$LT$alloc..boxed..Box$LT$$LP$alloc..sync..Arc$LT$gimli..read..dwarf..Dwarf$LT$gimli..read..endian_slice..EndianSlice$LT$gimli..endianity..LittleEndian$GT$$GT$$GT$$C$gimli..read..dwarf..Unit$LT$gimli..read..endian_slice..EndianSlice$LT$gimli..endianity..LittleEndian$GT$$C$usize$GT$$RP$$GT$$GT$$C$gimli..read..Error$GT$$GT$17h989c3caa13670887E>:
100001fd8: a9be4ff4    	stp	x20, x19, [sp, #-0x20]!
100001fdc: a9017bfd    	stp	x29, x30, [sp, #0x10]
100001fe0: 910043fd    	add	x29, sp, #0x10
100001fe4: 12001c08    	and	w8, w0, #0xff
100001fe8: 71012d1f    	cmp	w8, #0x4b
100001fec: fa400824    	ccmp	x1, #0x0, #0x4, eq
100001ff0: 54000081    	b.ne	0x100002000 <__ZN4core3ptr383drop_in_place$LT$core..result..Result$LT$core..option..Option$LT$alloc..boxed..Box$LT$$LP$alloc..sync..Arc$LT$gimli..read..dwarf..Dwarf$LT$gimli..read..endian_slice..EndianSlice$LT$gimli..endianity..LittleEndian$GT$$GT$$GT$$C$gimli..read..dwarf..Unit$LT$gimli..read..endian_slice..EndianSlice$LT$gimli..endianity..LittleEndian$GT$$C$usize$GT$$RP$$GT$$GT$$C$gimli..read..Error$GT$$GT$17h989c3caa13670887E+0x28>
100001ff4: a9417bfd    	ldp	x29, x30, [sp, #0x10]
100001ff8: a8c24ff4    	ldp	x20, x19, [sp], #0x20
100001ffc: d65f03c0    	ret
100002000: aa0103f3    	mov	x19, x1
100002004: f9400028    	ldr	x8, [x1]
100002008: 92800014    	mov	x20, #-0x1              ; =-1
10000200c: f8740108    	ldaddl	x20, x8, [x8]
100002010: f100051f    	cmp	x8, #0x1
100002014: 54000081    	b.ne	0x100002024 <__ZN4core3ptr383drop_in_place$LT$core..result..Result$LT$core..option..Option$LT$alloc..boxed..Box$LT$$LP$alloc..sync..Arc$LT$gimli..read..dwarf..Dwarf$LT$gimli..read..endian_slice..EndianSlice$LT$gimli..endianity..LittleEndian$GT$$GT$$GT$$C$gimli..read..dwarf..Unit$LT$gimli..read..endian_slice..EndianSlice$LT$gimli..endianity..LittleEndian$GT$$C$usize$GT$$RP$$GT$$GT$$C$gimli..read..Error$GT$$GT$17h989c3caa13670887E+0x4c>
100002018: d50339bf    	dmb	ishld
10000201c: aa1303e0    	mov	x0, x19
100002020: 940026ee    	bl	0x10000bbd8 <__ZN5alloc4sync16Arc$LT$T$C$A$GT$9drop_slow17h3b5114797d849af5E>
100002024: f940b268    	ldr	x8, [x19, #0x160]
100002028: f8740108    	ldaddl	x20, x8, [x8]
10000202c: f100051f    	cmp	x8, #0x1
100002030: 54000081    	b.ne	0x100002040 <__ZN4core3ptr383drop_in_place$LT$core..result..Result$LT$core..option..Option$LT$alloc..boxed..Box$LT$$LP$alloc..sync..Arc$LT$gimli..read..dwarf..Dwarf$LT$gimli..read..endian_slice..EndianSlice$LT$gimli..endianity..LittleEndian$GT$$GT$$GT$$C$gimli..read..dwarf..Unit$LT$gimli..read..endian_slice..EndianSlice$LT$gimli..endianity..LittleEndian$GT$$C$usize$GT$$RP$$GT$$GT$$C$gimli..read..Error$GT$$GT$17h989c3caa13670887E+0x68>
100002034: d50339bf    	dmb	ishld
100002038: 91058260    	add	x0, x19, #0x160
10000203c: 940027a2    	bl	0x10000bec4 <__ZN5alloc4sync16Arc$LT$T$C$A$GT$9drop_slow17hdcf65d86251390ebE>
100002040: 9101a260    	add	x0, x19, #0x68
100002044: 97fffecc    	bl	0x100001b74 <__ZN4core3ptr181drop_in_place$LT$core..option..Option$LT$gimli..read..line..IncompleteLineProgram$LT$gimli..read..endian_slice..EndianSlice$LT$gimli..endianity..LittleEndian$GT$$C$usize$GT$$GT$$GT$17hb82c814630029841E>
100002048: aa1303e0    	mov	x0, x19
10000204c: 52803601    	mov	w1, #0x1b0              ; =432
100002050: 52800102    	mov	w2, #0x8                ; =8
100002054: a9417bfd    	ldp	x29, x30, [sp, #0x10]
100002058: a8c24ff4    	ldp	x20, x19, [sp], #0x20
10000205c: 17fffa58    	b	0x1000009bc <___rust_dealloc>
100002060: aa0003f4    	mov	x20, x0
100002064: 9101a260    	add	x0, x19, #0x68
100002068: 97fffec3    	bl	0x100001b74 <__ZN4core3ptr181drop_in_place$LT$core..option..Option$LT$gimli..read..line..IncompleteLineProgram$LT$gimli..read..endian_slice..EndianSlice$LT$gimli..endianity..LittleEndian$GT$$C$usize$GT$$GT$$GT$17hb82c814630029841E>
10000206c: aa1303e0    	mov	x0, x19
100002070: 52803601    	mov	w1, #0x1b0              ; =432
100002074: 52800102    	mov	w2, #0x8                ; =8
100002078: 97fffa51    	bl	0x1000009bc <___rust_dealloc>
10000207c: aa1403e0    	mov	x0, x20
100002080: 9400d02d    	bl	0x100036134 <dyld_stub_binder+0x100036134>
100002084: aa0003f4    	mov	x20, x0
100002088: 91002260    	add	x0, x19, #0x8
10000208c: 97fffd67    	bl	0x100001628 <__ZN4core3ptr137drop_in_place$LT$gimli..read..dwarf..Unit$LT$gimli..read..endian_slice..EndianSlice$LT$gimli..endianity..LittleEndian$GT$$C$usize$GT$$GT$17h7644a65d7e203baeE>
100002090: aa1303e0    	mov	x0, x19
100002094: 52803601    	mov	w1, #0x1b0              ; =432
100002098: 52800102    	mov	w2, #0x8                ; =8
10000209c: 97fffa48    	bl	0x1000009bc <___rust_dealloc>
1000020a0: aa1403e0    	mov	x0, x20
1000020a4: 9400d024    	bl	0x100036134 <dyld_stub_binder+0x100036134>
1000020a8: 9400cf68    	bl	0x100035e48 <__ZN4core9panicking16panic_in_cleanup17h08fe812c23ada610E>

00000001000020ac <__ZN4core3ptr40drop_in_place$LT$std..thread..Thread$GT$17h4709d3b72ffb648fE>:
1000020ac: a9bf7bfd    	stp	x29, x30, [sp, #-0x10]!
1000020b0: 910003fd    	mov	x29, sp
1000020b4: f9400008    	ldr	x8, [x0]
1000020b8: b4000128    	cbz	x8, 0x1000020dc <__ZN4core3ptr40drop_in_place$LT$std..thread..Thread$GT$17h4709d3b72ffb648fE+0x30>
1000020bc: f8408c08    	ldr	x8, [x0, #0x8]!
1000020c0: 92800009    	mov	x9, #-0x1               ; =-1
1000020c4: f8690108    	ldaddl	x9, x8, [x8]
1000020c8: f100051f    	cmp	x8, #0x1
1000020cc: 54000081    	b.ne	0x1000020dc <__ZN4core3ptr40drop_in_place$LT$std..thread..Thread$GT$17h4709d3b72ffb648fE+0x30>
1000020d0: d50339bf    	dmb	ishld
1000020d4: a8c17bfd    	ldp	x29, x30, [sp], #0x10
1000020d8: 140026f4    	b	0x10000bca8 <__ZN5alloc4sync16Arc$LT$T$C$A$GT$9drop_slow17h74a4a87c028edebcE>
1000020dc: a8c17bfd    	ldp	x29, x30, [sp], #0x10
1000020e0: d65f03c0    	ret

00000001000020e4 <__ZN4core3ptr42drop_in_place$LT$alloc..string..String$GT$17h14ac80111b5f928dE>:
1000020e4: a9bf7bfd    	stp	x29, x30, [sp, #-0x10]!
1000020e8: 910003fd    	mov	x29, sp
1000020ec: f9400001    	ldr	x1, [x0]
1000020f0: b40000a1    	cbz	x1, 0x100002104 <__ZN4core3ptr42drop_in_place$LT$alloc..string..String$GT$17h14ac80111b5f928dE+0x20>
1000020f4: f9400400    	ldr	x0, [x0, #0x8]
1000020f8: 52800022    	mov	w2, #0x1                ; =1
1000020fc: a8c17bfd    	ldp	x29, x30, [sp], #0x10
100002100: 17fffa2f    	b	0x1000009bc <___rust_dealloc>
100002104: a8c17bfd    	ldp	x29, x30, [sp], #0x10
100002108: d65f03c0    	ret

000000010000210c <__ZN4core3ptr42drop_in_place$LT$std..io..error..Error$GT$17h36811cc168898e97E>:
10000210c: a9bd57f6    	stp	x22, x21, [sp, #-0x30]!
100002110: a9014ff4    	stp	x20, x19, [sp, #0x10]
100002114: a9027bfd    	stp	x29, x30, [sp, #0x20]
100002118: 910083fd    	add	x29, sp, #0x20
10000211c: f9400013    	ldr	x19, [x0]
100002120: 92400668    	and	x8, x19, #0x3
100002124: f100051f    	cmp	x8, #0x1
100002128: 54000261    	b.ne	0x100002174 <__ZN4core3ptr42drop_in_place$LT$std..io..error..Error$GT$17h36811cc168898e97E+0x68>
10000212c: f85ffe74    	ldr	x20, [x19, #-0x1]!
100002130: f9400675    	ldr	x21, [x19, #0x8]
100002134: f94002a8    	ldr	x8, [x21]
100002138: b4000068    	cbz	x8, 0x100002144 <__ZN4core3ptr42drop_in_place$LT$std..io..error..Error$GT$17h36811cc168898e97E+0x38>
10000213c: aa1403e0    	mov	x0, x20
100002140: d63f0100    	blr	x8
100002144: f94006a1    	ldr	x1, [x21, #0x8]
100002148: b4000081    	cbz	x1, 0x100002158 <__ZN4core3ptr42drop_in_place$LT$std..io..error..Error$GT$17h36811cc168898e97E+0x4c>
10000214c: f9400aa2    	ldr	x2, [x21, #0x10]
100002150: aa1403e0    	mov	x0, x20
100002154: 97fffa1a    	bl	0x1000009bc <___rust_dealloc>
100002158: aa1303e0    	mov	x0, x19
10000215c: 52800301    	mov	w1, #0x18               ; =24
100002160: 52800102    	mov	w2, #0x8                ; =8
100002164: a9427bfd    	ldp	x29, x30, [sp, #0x20]
100002168: a9414ff4    	ldp	x20, x19, [sp, #0x10]
10000216c: a8c357f6    	ldp	x22, x21, [sp], #0x30
100002170: 17fffa13    	b	0x1000009bc <___rust_dealloc>
100002174: a9427bfd    	ldp	x29, x30, [sp, #0x20]
100002178: a9414ff4    	ldp	x20, x19, [sp, #0x10]
10000217c: a8c357f6    	ldp	x22, x21, [sp], #0x30
100002180: d65f03c0    	ret
100002184: aa1503e9    	mov	x9, x21
100002188: aa0003f5    	mov	x21, x0
10000218c: f9400521    	ldr	x1, [x9, #0x8]
100002190: b4000081    	cbz	x1, 0x1000021a0 <__ZN4core3ptr42drop_in_place$LT$std..io..error..Error$GT$17h36811cc168898e97E+0x94>
100002194: f9400922    	ldr	x2, [x9, #0x10]
100002198: aa1403e0    	mov	x0, x20
10000219c: 97fffa08    	bl	0x1000009bc <___rust_dealloc>
1000021a0: aa1303e0    	mov	x0, x19
1000021a4: 52800301    	mov	w1, #0x18               ; =24
1000021a8: 52800102    	mov	w2, #0x8                ; =8
1000021ac: 97fffa04    	bl	0x1000009bc <___rust_dealloc>
1000021b0: aa1503e0    	mov	x0, x21
1000021b4: 9400cfe0    	bl	0x100036134 <dyld_stub_binder+0x100036134>

00000001000021b8 <__ZN4core3ptr44drop_in_place$LT$object..read..ObjectMap$GT$17hc3a08d3c49db8df8E>:
1000021b8: a9be4ff4    	stp	x20, x19, [sp, #-0x20]!
1000021bc: a9017bfd    	stp	x29, x30, [sp, #0x10]
1000021c0: 910043fd    	add	x29, sp, #0x10
1000021c4: aa0003f3    	mov	x19, x0
1000021c8: f9400008    	ldr	x8, [x0]
1000021cc: b40000c8    	cbz	x8, 0x1000021e4 <__ZN4core3ptr44drop_in_place$LT$object..read..ObjectMap$GT$17hc3a08d3c49db8df8E+0x2c>
1000021d0: f9400660    	ldr	x0, [x19, #0x8]
1000021d4: 8b080908    	add	x8, x8, x8, lsl #2
1000021d8: d37df101    	lsl	x1, x8, #3
1000021dc: 52800102    	mov	w2, #0x8                ; =8
1000021e0: 97fff9f7    	bl	0x1000009bc <___rust_dealloc>
1000021e4: f9400e68    	ldr	x8, [x19, #0x18]
1000021e8: b40000e8    	cbz	x8, 0x100002204 <__ZN4core3ptr44drop_in_place$LT$object..read..ObjectMap$GT$17hc3a08d3c49db8df8E+0x4c>
1000021ec: f9401260    	ldr	x0, [x19, #0x20]
1000021f0: d37be901    	lsl	x1, x8, #5
1000021f4: 52800102    	mov	w2, #0x8                ; =8
1000021f8: a9417bfd    	ldp	x29, x30, [sp, #0x10]
1000021fc: a8c24ff4    	ldp	x20, x19, [sp], #0x20
100002200: 17fff9ef    	b	0x1000009bc <___rust_dealloc>
100002204: a9417bfd    	ldp	x29, x30, [sp, #0x10]
100002208: a8c24ff4    	ldp	x20, x19, [sp], #0x20
10000220c: d65f03c0    	ret

0000000100002210 <__ZN4core3ptr44drop_in_place$LT$std..thread..PanicGuard$GT$17hd105bf08bc0096d1E>:
100002210: d10143ff    	sub	sp, sp, #0x50
100002214: a9047bfd    	stp	x29, x30, [sp, #0x40]
100002218: 910103fd    	add	x29, sp, #0x40
10000221c: d0000208    	adrp	x8, 0x100044000 <dyld_stub_binder+0x100044000>
100002220: 9120e108    	add	x8, x8, #0x838
100002224: 52800029    	mov	w9, #0x1                ; =1
100002228: a900a7e8    	stp	x8, x9, [sp, #0x8]
10000222c: d10023a8    	sub	x8, x29, #0x8
100002230: a9027fff    	stp	xzr, xzr, [sp, #0x20]
100002234: f9000fe8    	str	x8, [sp, #0x18]
100002238: d10023a0    	sub	x0, x29, #0x8
10000223c: 910023e1    	add	x1, sp, #0x8
100002240: 94006610    	bl	0x10001ba80 <__ZN3std2io5Write9write_fmt17hbf0611cc5d72cc91E>
100002244: f90003e0    	str	x0, [sp]
100002248: 910003e0    	mov	x0, sp
10000224c: 940001fa    	bl	0x100002a34 <__ZN4core3ptr81drop_in_place$LT$core..result..Result$LT$$LP$$RP$$C$std..io..error..Error$GT$$GT$17h14d8a749e35cee38E>
100002250: 94007867    	bl	0x1000203ec <__ZN3std3sys3pal4unix14abort_internal17h4b0b63493bdd72f5E>

0000000100002254 <__ZN4core3ptr46drop_in_place$LT$std..io..stdio..StdinLock$GT$17h6b21fa718f463325E>:
100002254: 370000a1    	tbnz	w1, #0x0, 0x100002268 <__ZN4core3ptr46drop_in_place$LT$std..io..stdio..StdinLock$GT$17h6b21fa718f463325E+0x14>
100002258: d0000228    	adrp	x8, 0x100048000 <dyld_stub_binder+0x100048000>
10000225c: f941d508    	ldr	x8, [x8, #0x3a8]
100002260: f240f91f    	tst	x8, #0x7fffffffffffffff
100002264: 54000061    	b.ne	0x100002270 <__ZN4core3ptr46drop_in_place$LT$std..io..stdio..StdinLock$GT$17h6b21fa718f463325E+0x1c>
100002268: f9400000    	ldr	x0, [x0]
10000226c: 1400d02a    	b	0x100036314 <dyld_stub_binder+0x100036314>
100002270: d10083ff    	sub	sp, sp, #0x20
100002274: a9017bfd    	stp	x29, x30, [sp, #0x10]
100002278: 910043fd    	add	x29, sp, #0x10
10000227c: f90007e0    	str	x0, [sp, #0x8]
100002280: 9400cd2a    	bl	0x100035728 <__ZN3std9panicking11panic_count17is_zero_slow_path17hb0ad8956c0daab60E>
100002284: aa0003e8    	mov	x8, x0
100002288: f94007e0    	ldr	x0, [sp, #0x8]
10000228c: a9417bfd    	ldp	x29, x30, [sp, #0x10]
100002290: 910083ff    	add	sp, sp, #0x20
100002294: 3707fea8    	tbnz	w8, #0x0, 0x100002268 <__ZN4core3ptr46drop_in_place$LT$std..io..stdio..StdinLock$GT$17h6b21fa718f463325E+0x14>
100002298: 52800028    	mov	w8, #0x1                ; =1
10000229c: 39002008    	strb	w8, [x0, #0x8]
1000022a0: f9400000    	ldr	x0, [x0]
1000022a4: 1400d01c    	b	0x100036314 <dyld_stub_binder+0x100036314>

00000001000022a8 <__ZN4core3ptr55drop_in_place$LT$gimli..read..abbrev..Abbreviations$GT$17hbdfb8afbeefc1fe9E>:
1000022a8: a9bd57f6    	stp	x22, x21, [sp, #-0x30]!
1000022ac: a9014ff4    	stp	x20, x19, [sp, #0x10]
1000022b0: a9027bfd    	stp	x29, x30, [sp, #0x20]
1000022b4: 910083fd    	add	x29, sp, #0x20
1000022b8: aa0003f3    	mov	x19, x0
1000022bc: a940d414    	ldp	x20, x21, [x0, #0x8]
1000022c0: b40001f5    	cbz	x21, 0x1000022fc <__ZN4core3ptr55drop_in_place$LT$gimli..read..abbrev..Abbreviations$GT$17hbdfb8afbeefc1fe9E+0x54>
1000022c4: 91004296    	add	x22, x20, #0x10
1000022c8: 14000004    	b	0x1000022d8 <__ZN4core3ptr55drop_in_place$LT$gimli..read..abbrev..Abbreviations$GT$17hbdfb8afbeefc1fe9E+0x30>
1000022cc: 9101c2d6    	add	x22, x22, #0x70
1000022d0: f10006b5    	subs	x21, x21, #0x1
1000022d4: 54000140    	b.eq	0x1000022fc <__ZN4core3ptr55drop_in_place$LT$gimli..read..abbrev..Abbreviations$GT$17hbdfb8afbeefc1fe9E+0x54>
1000022d8: f85f02c8    	ldur	x8, [x22, #-0x10]
1000022dc: b4ffff88    	cbz	x8, 0x1000022cc <__ZN4core3ptr55drop_in_place$LT$gimli..read..abbrev..Abbreviations$GT$17hbdfb8afbeefc1fe9E+0x24>
1000022e0: f85f82c8    	ldur	x8, [x22, #-0x8]
1000022e4: b4ffff48    	cbz	x8, 0x1000022cc <__ZN4core3ptr55drop_in_place$LT$gimli..read..abbrev..Abbreviations$GT$17hbdfb8afbeefc1fe9E+0x24>
1000022e8: f94002c0    	ldr	x0, [x22]
1000022ec: d37ced01    	lsl	x1, x8, #4
1000022f0: 52800102    	mov	w2, #0x8                ; =8
1000022f4: 97fff9b2    	bl	0x1000009bc <___rust_dealloc>
1000022f8: 17fffff5    	b	0x1000022cc <__ZN4core3ptr55drop_in_place$LT$gimli..read..abbrev..Abbreviations$GT$17hbdfb8afbeefc1fe9E+0x24>
1000022fc: f9400268    	ldr	x8, [x19]
100002300: b40000c8    	cbz	x8, 0x100002318 <__ZN4core3ptr55drop_in_place$LT$gimli..read..abbrev..Abbreviations$GT$17hbdfb8afbeefc1fe9E+0x70>
100002304: d379e109    	lsl	x9, x8, #7
100002308: cb081121    	sub	x1, x9, x8, lsl #4
10000230c: aa1403e0    	mov	x0, x20
100002310: 52800102    	mov	w2, #0x8                ; =8
100002314: 97fff9aa    	bl	0x1000009bc <___rust_dealloc>
100002318: 91006260    	add	x0, x19, #0x18
10000231c: a9427bfd    	ldp	x29, x30, [sp, #0x20]
100002320: a9414ff4    	ldp	x20, x19, [sp, #0x10]
100002324: a8c357f6    	ldp	x22, x21, [sp], #0x30
100002328: 17fffbd8    	b	0x100001288 <__ZN4core3ptr108drop_in_place$LT$alloc..collections..btree..map..BTreeMap$LT$u64$C$gimli..read..abbrev..Abbreviation$GT$$GT$17h20b9ddf2029b81c7E>

000000010000232c <__ZN4core3ptr56drop_in_place$LT$std..sys..sync..once..queue..Waiter$GT$17h29bf348290e33cafE>:
10000232c: a9bf7bfd    	stp	x29, x30, [sp, #-0x10]!
100002330: 910003fd    	mov	x29, sp
100002334: f9400008    	ldr	x8, [x0]
100002338: f100091f    	cmp	x8, #0x2
10000233c: fa401904    	ccmp	x8, #0x0, #0x4, ne
100002340: 54000061    	b.ne	0x10000234c <__ZN4core3ptr56drop_in_place$LT$std..sys..sync..once..queue..Waiter$GT$17h29bf348290e33cafE+0x20>
100002344: a8c17bfd    	ldp	x29, x30, [sp], #0x10
100002348: d65f03c0    	ret
10000234c: f8408c08    	ldr	x8, [x0, #0x8]!
100002350: 92800009    	mov	x9, #-0x1               ; =-1
100002354: f8690108    	ldaddl	x9, x8, [x8]
100002358: f100051f    	cmp	x8, #0x1
10000235c: 54ffff41    	b.ne	0x100002344 <__ZN4core3ptr56drop_in_place$LT$std..sys..sync..once..queue..Waiter$GT$17h29bf348290e33cafE+0x18>
100002360: d50339bf    	dmb	ishld
100002364: a8c17bfd    	ldp	x29, x30, [sp], #0x10
100002368: 14002650    	b	0x10000bca8 <__ZN5alloc4sync16Arc$LT$T$C$A$GT$9drop_slow17h74a4a87c028edebcE>

000000010000236c <__ZN4core3ptr56drop_in_place$LT$std..sys..sync..rwlock..queue..Node$GT$17h313e45d29194d014E>:
10000236c: a9bf7bfd    	stp	x29, x30, [sp, #-0x10]!
100002370: 910003fd    	mov	x29, sp
100002374: f9400008    	ldr	x8, [x0]
100002378: f100091f    	cmp	x8, #0x2
10000237c: fa401904    	ccmp	x8, #0x0, #0x4, ne
100002380: 54000061    	b.ne	0x10000238c <__ZN4core3ptr56drop_in_place$LT$std..sys..sync..rwlock..queue..Node$GT$17h313e45d29194d014E+0x20>
100002384: a8c17bfd    	ldp	x29, x30, [sp], #0x10
100002388: d65f03c0    	ret
10000238c: f8408c08    	ldr	x8, [x0, #0x8]!
100002390: 92800009    	mov	x9, #-0x1               ; =-1
100002394: f8690108    	ldaddl	x9, x8, [x8]
100002398: f100051f    	cmp	x8, #0x1
10000239c: 54ffff41    	b.ne	0x100002384 <__ZN4core3ptr56drop_in_place$LT$std..sys..sync..rwlock..queue..Node$GT$17h313e45d29194d014E+0x18>
1000023a0: d50339bf    	dmb	ishld
1000023a4: a8c17bfd    	ldp	x29, x30, [sp], #0x10
1000023a8: 14002640    	b	0x10000bca8 <__ZN5alloc4sync16Arc$LT$T$C$A$GT$9drop_slow17h74a4a87c028edebcE>

00000001000023ac <__ZN4core3ptr60drop_in_place$LT$gimli..read..abbrev..AbbreviationsCache$GT$17hf0b637549a58e629E>:
1000023ac: d10203ff    	sub	sp, sp, #0x80
1000023b0: a9064ff4    	stp	x20, x19, [sp, #0x60]
1000023b4: a9077bfd    	stp	x29, x30, [sp, #0x70]
1000023b8: 9101c3fd    	add	x29, sp, #0x70
1000023bc: f9400009    	ldr	x9, [x0]
1000023c0: b4000109    	cbz	x9, 0x1000023e0 <__ZN4core3ptr60drop_in_place$LT$gimli..read..abbrev..AbbreviationsCache$GT$17hf0b637549a58e629E+0x34>
1000023c4: a940a00a    	ldp	x10, x8, [x0, #0x8]
1000023c8: a900a7ff    	stp	xzr, x9, [sp, #0x8]
1000023cc: f9000fea    	str	x10, [sp, #0x18]
1000023d0: a902a7ff    	stp	xzr, x9, [sp, #0x28]
1000023d4: f9001fea    	str	x10, [sp, #0x38]
1000023d8: 52800029    	mov	w9, #0x1                ; =1
1000023dc: 14000002    	b	0x1000023e4 <__ZN4core3ptr60drop_in_place$LT$gimli..read..abbrev..AbbreviationsCache$GT$17hf0b637549a58e629E+0x38>
1000023e0: d2800008    	mov	x8, #0x0                ; =0
1000023e4: f90003e9    	str	x9, [sp]
1000023e8: f90013e9    	str	x9, [sp, #0x20]
1000023ec: f90023e8    	str	x8, [sp, #0x40]
1000023f0: d100a3a0    	sub	x0, x29, #0x28
1000023f4: 910003e1    	mov	x1, sp
1000023f8: 9400256f    	bl	0x10000b9b4 <__ZN5alloc11collections5btree3map25IntoIter$LT$K$C$V$C$A$GT$10dying_next17hbe5f2df5d8f16363E>
1000023fc: f85d83a8    	ldur	x8, [x29, #-0x28]
100002400: b4000288    	cbz	x8, 0x100002450 <__ZN4core3ptr60drop_in_place$LT$gimli..read..abbrev..AbbreviationsCache$GT$17hf0b637549a58e629E+0xa4>
100002404: 92800013    	mov	x19, #-0x1              ; =-1
100002408: 14000006    	b	0x100002420 <__ZN4core3ptr60drop_in_place$LT$gimli..read..abbrev..AbbreviationsCache$GT$17hf0b637549a58e629E+0x74>
10000240c: d100a3a0    	sub	x0, x29, #0x28
100002410: 910003e1    	mov	x1, sp
100002414: 94002568    	bl	0x10000b9b4 <__ZN5alloc11collections5btree3map25IntoIter$LT$K$C$V$C$A$GT$10dying_next17hbe5f2df5d8f16363E>
100002418: f85d83a8    	ldur	x8, [x29, #-0x28]
10000241c: b40001a8    	cbz	x8, 0x100002450 <__ZN4core3ptr60drop_in_place$LT$gimli..read..abbrev..AbbreviationsCache$GT$17hf0b637549a58e629E+0xa4>
100002420: f85e83a9    	ldur	x9, [x29, #-0x18]
100002424: 8b091100    	add	x0, x8, x9, lsl #4
100002428: 39400008    	ldrb	w8, [x0]
10000242c: 71012d1f    	cmp	w8, #0x4b
100002430: 54fffee1    	b.ne	0x10000240c <__ZN4core3ptr60drop_in_place$LT$gimli..read..abbrev..AbbreviationsCache$GT$17hf0b637549a58e629E+0x60>
100002434: f8408c08    	ldr	x8, [x0, #0x8]!
100002438: f8730108    	ldaddl	x19, x8, [x8]
10000243c: f100051f    	cmp	x8, #0x1
100002440: 54fffe61    	b.ne	0x10000240c <__ZN4core3ptr60drop_in_place$LT$gimli..read..abbrev..AbbreviationsCache$GT$17hf0b637549a58e629E+0x60>
100002444: d50339bf    	dmb	ishld
100002448: 9400269f    	bl	0x10000bec4 <__ZN5alloc4sync16Arc$LT$T$C$A$GT$9drop_slow17hdcf65d86251390ebE>
10000244c: 17fffff0    	b	0x10000240c <__ZN4core3ptr60drop_in_place$LT$gimli..read..abbrev..AbbreviationsCache$GT$17hf0b637549a58e629E+0x60>
100002450: a9477bfd    	ldp	x29, x30, [sp, #0x70]
100002454: a9464ff4    	ldp	x20, x19, [sp, #0x60]
100002458: 910203ff    	add	sp, sp, #0x80
10000245c: d65f03c0    	ret
100002460: aa0003f3    	mov	x19, x0
100002464: 910003e0    	mov	x0, sp
100002468: 97fffe94    	bl	0x100001eb8 <__ZN4core3ptr280drop_in_place$LT$$LT$alloc..collections..btree..map..IntoIter$LT$K$C$V$C$A$GT$$u20$as$u20$core..ops..drop..Drop$GT$..drop..DropGuard$LT$u64$C$core..result..Result$LT$alloc..sync..Arc$LT$gimli..read..abbrev..Abbreviations$GT$$C$gimli..read..Error$GT$$C$alloc..alloc..Global$GT$$GT$17h9dedcdb999c22661E>
10000246c: aa1303e0    	mov	x0, x19
100002470: 9400cf31    	bl	0x100036134 <dyld_stub_binder+0x100036134>
100002474: 9400ce75    	bl	0x100035e48 <__ZN4core9panicking16panic_in_cleanup17h08fe812c23ada610E>

0000000100002478 <__ZN4core3ptr62drop_in_place$LT$std..sys..sync..rwlock..queue..PanicGuard$GT$17h331ef422a59669f8E>:
100002478: d10143ff    	sub	sp, sp, #0x50
10000247c: a9047bfd    	stp	x29, x30, [sp, #0x40]
100002480: 910103fd    	add	x29, sp, #0x40
100002484: f0000208    	adrp	x8, 0x100045000 <dyld_stub_binder+0x100045000>
100002488: 9109e108    	add	x8, x8, #0x278
10000248c: 52800029    	mov	w9, #0x1                ; =1
100002490: a900a7e8    	stp	x8, x9, [sp, #0x8]
100002494: d10023a8    	sub	x8, x29, #0x8
100002498: a9027fff    	stp	xzr, xzr, [sp, #0x20]
10000249c: f9000fe8    	str	x8, [sp, #0x18]
1000024a0: d10023a0    	sub	x0, x29, #0x8
1000024a4: 910023e1    	add	x1, sp, #0x8
1000024a8: 94006576    	bl	0x10001ba80 <__ZN3std2io5Write9write_fmt17hbf0611cc5d72cc91E>
1000024ac: f90003e0    	str	x0, [sp]
1000024b0: 910003e0    	mov	x0, sp
1000024b4: 94000160    	bl	0x100002a34 <__ZN4core3ptr81drop_in_place$LT$core..result..Result$LT$$LP$$RP$$C$std..io..error..Error$GT$$GT$17h14d8a749e35cee38E>
1000024b8: 940077cd    	bl	0x1000203ec <__ZN3std3sys3pal4unix14abort_internal17h4b0b63493bdd72f5E>

00000001000024bc <__ZN4core3ptr65drop_in_place$LT$alloc..vec..Vec$LT$alloc..string..String$GT$$GT$17h9963bc99365af218E>:
1000024bc: a9bd57f6    	stp	x22, x21, [sp, #-0x30]!
1000024c0: a9014ff4    	stp	x20, x19, [sp, #0x10]
1000024c4: a9027bfd    	stp	x29, x30, [sp, #0x20]
1000024c8: 910083fd    	add	x29, sp, #0x20
1000024cc: aa0003f4    	mov	x20, x0
1000024d0: a940d413    	ldp	x19, x21, [x0, #0x8]
1000024d4: b4000195    	cbz	x21, 0x100002504 <__ZN4core3ptr65drop_in_place$LT$alloc..vec..Vec$LT$alloc..string..String$GT$$GT$17h9963bc99365af218E+0x48>
1000024d8: 91002276    	add	x22, x19, #0x8
1000024dc: 14000004    	b	0x1000024ec <__ZN4core3ptr65drop_in_place$LT$alloc..vec..Vec$LT$alloc..string..String$GT$$GT$17h9963bc99365af218E+0x30>
1000024e0: 910062d6    	add	x22, x22, #0x18
1000024e4: f10006b5    	subs	x21, x21, #0x1
1000024e8: 540000e0    	b.eq	0x100002504 <__ZN4core3ptr65drop_in_place$LT$alloc..vec..Vec$LT$alloc..string..String$GT$$GT$17h9963bc99365af218E+0x48>
1000024ec: f85f82c1    	ldur	x1, [x22, #-0x8]
1000024f0: b4ffff81    	cbz	x1, 0x1000024e0 <__ZN4core3ptr65drop_in_place$LT$alloc..vec..Vec$LT$alloc..string..String$GT$$GT$17h9963bc99365af218E+0x24>
1000024f4: f94002c0    	ldr	x0, [x22]
1000024f8: 52800022    	mov	w2, #0x1                ; =1
1000024fc: 97fff930    	bl	0x1000009bc <___rust_dealloc>
100002500: 17fffff8    	b	0x1000024e0 <__ZN4core3ptr65drop_in_place$LT$alloc..vec..Vec$LT$alloc..string..String$GT$$GT$17h9963bc99365af218E+0x24>
100002504: f9400288    	ldr	x8, [x20]
100002508: b4000128    	cbz	x8, 0x10000252c <__ZN4core3ptr65drop_in_place$LT$alloc..vec..Vec$LT$alloc..string..String$GT$$GT$17h9963bc99365af218E+0x70>
10000250c: 8b080508    	add	x8, x8, x8, lsl #1
100002510: d37df101    	lsl	x1, x8, #3
100002514: aa1303e0    	mov	x0, x19
100002518: 52800102    	mov	w2, #0x8                ; =8
10000251c: a9427bfd    	ldp	x29, x30, [sp, #0x20]
100002520: a9414ff4    	ldp	x20, x19, [sp, #0x10]
100002524: a8c357f6    	ldp	x22, x21, [sp], #0x30
100002528: 17fff925    	b	0x1000009bc <___rust_dealloc>
10000252c: a9427bfd    	ldp	x29, x30, [sp, #0x20]
100002530: a9414ff4    	ldp	x20, x19, [sp, #0x10]
100002534: a8c357f6    	ldp	x22, x21, [sp], #0x30
100002538: d65f03c0    	ret

000000010000253c <__ZN4core3ptr65drop_in_place$LT$std..backtrace_rs..symbolize..gimli..Mapping$GT$17h4bdffbb391e18304E>:
10000253c: a9be4ff4    	stp	x20, x19, [sp, #-0x20]!
100002540: a9017bfd    	stp	x29, x30, [sp, #0x10]
100002544: 910043fd    	add	x29, sp, #0x10
100002548: aa0003f3    	mov	x19, x0
10000254c: 91074000    	add	x0, x0, #0x1d0
100002550: 97fffb7a    	bl	0x100001338 <__ZN4core3ptr123drop_in_place$LT$addr2line..Context$LT$gimli..read..endian_slice..EndianSlice$LT$gimli..endianity..LittleEndian$GT$$GT$$GT$17h6b865e36f3642250E>
100002554: aa1303e0    	mov	x0, x19
100002558: 94000084    	bl	0x100002768 <__ZN4core3ptr71drop_in_place$LT$std..backtrace_rs..symbolize..gimli..macho..Object$GT$17h63d230d2ca036270E>
10000255c: f9410660    	ldr	x0, [x19, #0x208]
100002560: f9410a61    	ldr	x1, [x19, #0x210]
100002564: 9400cf4e    	bl	0x10003629c <dyld_stub_binder+0x10003629c>
100002568: 91086260    	add	x0, x19, #0x218
10000256c: a9417bfd    	ldp	x29, x30, [sp, #0x10]
100002570: a8c24ff4    	ldp	x20, x19, [sp], #0x20
100002574: 1400004f    	b	0x1000026b0 <__ZN4core3ptr70drop_in_place$LT$std..backtrace_rs..symbolize..gimli..stash..Stash$GT$17h7382b3e30b41d750E>
100002578: aa0003f4    	mov	x20, x0
10000257c: 14000004    	b	0x10000258c <__ZN4core3ptr65drop_in_place$LT$std..backtrace_rs..symbolize..gimli..Mapping$GT$17h4bdffbb391e18304E+0x50>
100002580: aa0003f4    	mov	x20, x0
100002584: aa1303e0    	mov	x0, x19
100002588: 94000078    	bl	0x100002768 <__ZN4core3ptr71drop_in_place$LT$std..backtrace_rs..symbolize..gimli..macho..Object$GT$17h63d230d2ca036270E>
10000258c: f9410660    	ldr	x0, [x19, #0x208]
100002590: f9410a61    	ldr	x1, [x19, #0x210]
100002594: 9400cf42    	bl	0x10003629c <dyld_stub_binder+0x10003629c>
100002598: 91086260    	add	x0, x19, #0x218
10000259c: 94000045    	bl	0x1000026b0 <__ZN4core3ptr70drop_in_place$LT$std..backtrace_rs..symbolize..gimli..stash..Stash$GT$17h7382b3e30b41d750E>
1000025a0: aa1403e0    	mov	x0, x20
1000025a4: 9400cee4    	bl	0x100036134 <dyld_stub_binder+0x100036134>
1000025a8: 9400ce28    	bl	0x100035e48 <__ZN4core9panicking16panic_in_cleanup17h08fe812c23ada610E>

00000001000025ac <__ZN4core3ptr66drop_in_place$LT$std..backtrace_rs..backtrace..libunwind..Bomb$GT$17h76e17fb1416c81e7E>:
1000025ac: 37000040    	tbnz	w0, #0x0, 0x1000025b4 <__ZN4core3ptr66drop_in_place$LT$std..backtrace_rs..backtrace..libunwind..Bomb$GT$17h76e17fb1416c81e7E+0x8>
1000025b0: d65f03c0    	ret
1000025b4: d10103ff    	sub	sp, sp, #0x40
1000025b8: a9037bfd    	stp	x29, x30, [sp, #0x30]
1000025bc: 9100c3fd    	add	x29, sp, #0x30
1000025c0: f0000208    	adrp	x8, 0x100045000 <dyld_stub_binder+0x100045000>
1000025c4: 910bc108    	add	x8, x8, #0x2f0
1000025c8: 52800029    	mov	w9, #0x1                ; =1
1000025cc: a90027e8    	stp	x8, x9, [sp]
1000025d0: 52800108    	mov	w8, #0x8                ; =8
1000025d4: a901ffff    	stp	xzr, xzr, [sp, #0x18]
1000025d8: f9000be8    	str	x8, [sp, #0x10]
1000025dc: f0000201    	adrp	x1, 0x100045000 <dyld_stub_binder+0x100045000>
1000025e0: 910c0021    	add	x1, x1, #0x300
1000025e4: 910003e0    	mov	x0, sp
1000025e8: 9400cdbc    	bl	0x100035cd8 <__ZN4core9panicking9panic_fmt17ha0f8363f677e0181E>

00000001000025ec <__ZN4core3ptr67drop_in_place$LT$alloc..vec..Vec$LT$addr2line..LineSequence$GT$$GT$17hc20f43175fe5fb80E>:
1000025ec: a9bd57f6    	stp	x22, x21, [sp, #-0x30]!
1000025f0: a9014ff4    	stp	x20, x19, [sp, #0x10]
1000025f4: a9027bfd    	stp	x29, x30, [sp, #0x20]
1000025f8: 910083fd    	add	x29, sp, #0x20
1000025fc: aa0003f4    	mov	x20, x0
100002600: a940d413    	ldp	x19, x21, [x0, #0x8]
100002604: b40001d5    	cbz	x21, 0x10000263c <__ZN4core3ptr67drop_in_place$LT$alloc..vec..Vec$LT$addr2line..LineSequence$GT$$GT$17hc20f43175fe5fb80E+0x50>
100002608: 91002276    	add	x22, x19, #0x8
10000260c: 14000004    	b	0x10000261c <__ZN4core3ptr67drop_in_place$LT$alloc..vec..Vec$LT$addr2line..LineSequence$GT$$GT$17hc20f43175fe5fb80E+0x30>
100002610: 910082d6    	add	x22, x22, #0x20
100002614: f10006b5    	subs	x21, x21, #0x1
100002618: 54000120    	b.eq	0x10000263c <__ZN4core3ptr67drop_in_place$LT$alloc..vec..Vec$LT$addr2line..LineSequence$GT$$GT$17hc20f43175fe5fb80E+0x50>
10000261c: f94002c8    	ldr	x8, [x22]
100002620: b4ffff88    	cbz	x8, 0x100002610 <__ZN4core3ptr67drop_in_place$LT$alloc..vec..Vec$LT$addr2line..LineSequence$GT$$GT$17hc20f43175fe5fb80E+0x24>
100002624: f85f82c0    	ldur	x0, [x22, #-0x8]
100002628: 8b080508    	add	x8, x8, x8, lsl #1
10000262c: d37df101    	lsl	x1, x8, #3
100002630: 52800102    	mov	w2, #0x8                ; =8
100002634: 97fff8e2    	bl	0x1000009bc <___rust_dealloc>
100002638: 17fffff6    	b	0x100002610 <__ZN4core3ptr67drop_in_place$LT$alloc..vec..Vec$LT$addr2line..LineSequence$GT$$GT$17hc20f43175fe5fb80E+0x24>
10000263c: f9400288    	ldr	x8, [x20]
100002640: b4000108    	cbz	x8, 0x100002660 <__ZN4core3ptr67drop_in_place$LT$alloc..vec..Vec$LT$addr2line..LineSequence$GT$$GT$17hc20f43175fe5fb80E+0x74>
100002644: d37be901    	lsl	x1, x8, #5
100002648: aa1303e0    	mov	x0, x19
10000264c: 52800102    	mov	w2, #0x8                ; =8
100002650: a9427bfd    	ldp	x29, x30, [sp, #0x20]
100002654: a9414ff4    	ldp	x20, x19, [sp, #0x10]
100002658: a8c357f6    	ldp	x22, x21, [sp], #0x30
10000265c: 17fff8d8    	b	0x1000009bc <___rust_dealloc>
100002660: a9427bfd    	ldp	x29, x30, [sp, #0x20]
100002664: a9414ff4    	ldp	x20, x19, [sp, #0x10]
100002668: a8c357f6    	ldp	x22, x21, [sp], #0x30
10000266c: d65f03c0    	ret

0000000100002670 <__ZN4core3ptr68drop_in_place$LT$core..option..Option$LT$std..thread..Thread$GT$$GT$17h738888b04a949d67E>:
100002670: a9bf7bfd    	stp	x29, x30, [sp, #-0x10]!
100002674: 910003fd    	mov	x29, sp
100002678: f9400008    	ldr	x8, [x0]
10000267c: f100091f    	cmp	x8, #0x2
100002680: fa401904    	ccmp	x8, #0x0, #0x4, ne
100002684: 54000061    	b.ne	0x100002690 <__ZN4core3ptr68drop_in_place$LT$core..option..Option$LT$std..thread..Thread$GT$$GT$17h738888b04a949d67E+0x20>
100002688: a8c17bfd    	ldp	x29, x30, [sp], #0x10
10000268c: d65f03c0    	ret
100002690: f8408c08    	ldr	x8, [x0, #0x8]!
100002694: 92800009    	mov	x9, #-0x1               ; =-1
100002698: f8690108    	ldaddl	x9, x8, [x8]
10000269c: f100051f    	cmp	x8, #0x1
1000026a0: 54ffff41    	b.ne	0x100002688 <__ZN4core3ptr68drop_in_place$LT$core..option..Option$LT$std..thread..Thread$GT$$GT$17h738888b04a949d67E+0x18>
1000026a4: d50339bf    	dmb	ishld
1000026a8: a8c17bfd    	ldp	x29, x30, [sp], #0x10
1000026ac: 1400257f    	b	0x10000bca8 <__ZN5alloc4sync16Arc$LT$T$C$A$GT$9drop_slow17h74a4a87c028edebcE>

00000001000026b0 <__ZN4core3ptr70drop_in_place$LT$std..backtrace_rs..symbolize..gimli..stash..Stash$GT$17h7382b3e30b41d750E>:
1000026b0: a9bd57f6    	stp	x22, x21, [sp, #-0x30]!
1000026b4: a9014ff4    	stp	x20, x19, [sp, #0x10]
1000026b8: a9027bfd    	stp	x29, x30, [sp, #0x20]
1000026bc: 910083fd    	add	x29, sp, #0x20
1000026c0: aa0003f3    	mov	x19, x0
1000026c4: a940d414    	ldp	x20, x21, [x0, #0x8]
1000026c8: b4000195    	cbz	x21, 0x1000026f8 <__ZN4core3ptr70drop_in_place$LT$std..backtrace_rs..symbolize..gimli..stash..Stash$GT$17h7382b3e30b41d750E+0x48>
1000026cc: 91002296    	add	x22, x20, #0x8
1000026d0: 14000004    	b	0x1000026e0 <__ZN4core3ptr70drop_in_place$LT$std..backtrace_rs..symbolize..gimli..stash..Stash$GT$17h7382b3e30b41d750E+0x30>
1000026d4: 910062d6    	add	x22, x22, #0x18
1000026d8: f10006b5    	subs	x21, x21, #0x1
1000026dc: 540000e0    	b.eq	0x1000026f8 <__ZN4core3ptr70drop_in_place$LT$std..backtrace_rs..symbolize..gimli..stash..Stash$GT$17h7382b3e30b41d750E+0x48>
1000026e0: f85f82c1    	ldur	x1, [x22, #-0x8]
1000026e4: b4ffff81    	cbz	x1, 0x1000026d4 <__ZN4core3ptr70drop_in_place$LT$std..backtrace_rs..symbolize..gimli..stash..Stash$GT$17h7382b3e30b41d750E+0x24>
1000026e8: f94002c0    	ldr	x0, [x22]
1000026ec: 52800022    	mov	w2, #0x1                ; =1
1000026f0: 97fff8b3    	bl	0x1000009bc <___rust_dealloc>
1000026f4: 17fffff8    	b	0x1000026d4 <__ZN4core3ptr70drop_in_place$LT$std..backtrace_rs..symbolize..gimli..stash..Stash$GT$17h7382b3e30b41d750E+0x24>
1000026f8: f9400268    	ldr	x8, [x19]
1000026fc: b40000c8    	cbz	x8, 0x100002714 <__ZN4core3ptr70drop_in_place$LT$std..backtrace_rs..symbolize..gimli..stash..Stash$GT$17h7382b3e30b41d750E+0x64>
100002700: 8b080508    	add	x8, x8, x8, lsl #1
100002704: d37df101    	lsl	x1, x8, #3
100002708: aa1403e0    	mov	x0, x20
10000270c: 52800102    	mov	w2, #0x8                ; =8
100002710: 97fff8ab    	bl	0x1000009bc <___rust_dealloc>
100002714: a9425674    	ldp	x20, x21, [x19, #0x20]
100002718: b40000f5    	cbz	x21, 0x100002734 <__ZN4core3ptr70drop_in_place$LT$std..backtrace_rs..symbolize..gimli..stash..Stash$GT$17h7382b3e30b41d750E+0x84>
10000271c: 91002296    	add	x22, x20, #0x8
100002720: a97f86c0    	ldp	x0, x1, [x22, #-0x8]
100002724: 9400cede    	bl	0x10003629c <dyld_stub_binder+0x10003629c>
100002728: 910042d6    	add	x22, x22, #0x10
10000272c: f10006b5    	subs	x21, x21, #0x1
100002730: 54ffff81    	b.ne	0x100002720 <__ZN4core3ptr70drop_in_place$LT$std..backtrace_rs..symbolize..gimli..stash..Stash$GT$17h7382b3e30b41d750E+0x70>
100002734: f9400e68    	ldr	x8, [x19, #0x18]
100002738: b4000108    	cbz	x8, 0x100002758 <__ZN4core3ptr70drop_in_place$LT$std..backtrace_rs..symbolize..gimli..stash..Stash$GT$17h7382b3e30b41d750E+0xa8>
10000273c: d37ced01    	lsl	x1, x8, #4
100002740: aa1403e0    	mov	x0, x20
100002744: 52800102    	mov	w2, #0x8                ; =8
100002748: a9427bfd    	ldp	x29, x30, [sp, #0x20]
10000274c: a9414ff4    	ldp	x20, x19, [sp, #0x10]
100002750: a8c357f6    	ldp	x22, x21, [sp], #0x30
100002754: 17fff89a    	b	0x1000009bc <___rust_dealloc>
100002758: a9427bfd    	ldp	x29, x30, [sp, #0x20]
10000275c: a9414ff4    	ldp	x20, x19, [sp, #0x10]
100002760: a8c357f6    	ldp	x22, x21, [sp], #0x30
100002764: d65f03c0    	ret

0000000100002768 <__ZN4core3ptr71drop_in_place$LT$std..backtrace_rs..symbolize..gimli..macho..Object$GT$17h63d230d2ca036270E>:
100002768: a9bc5ff8    	stp	x24, x23, [sp, #-0x40]!
10000276c: a90157f6    	stp	x22, x21, [sp, #0x10]
100002770: a9024ff4    	stp	x20, x19, [sp, #0x20]
100002774: a9037bfd    	stp	x29, x30, [sp, #0x30]
100002778: 9100c3fd    	add	x29, sp, #0x30
10000277c: aa0003f3    	mov	x19, x0
100002780: f9400008    	ldr	x8, [x0]
100002784: b40000c8    	cbz	x8, 0x10000279c <__ZN4core3ptr71drop_in_place$LT$std..backtrace_rs..symbolize..gimli..macho..Object$GT$17h63d230d2ca036270E+0x34>
100002788: f9400660    	ldr	x0, [x19, #0x8]
10000278c: 8b080508    	add	x8, x8, x8, lsl #1
100002790: d37df101    	lsl	x1, x8, #3
100002794: 52800102    	mov	w2, #0x8                ; =8
100002798: 97fff889    	bl	0x1000009bc <___rust_dealloc>
10000279c: f9400e68    	ldr	x8, [x19, #0x18]
1000027a0: d2f00009    	mov	x9, #-0x8000000000000000 ; =-9223372036854775808
1000027a4: eb09011f    	cmp	x8, x9
1000027a8: 540001a0    	b.eq	0x1000027dc <__ZN4core3ptr71drop_in_place$LT$std..backtrace_rs..symbolize..gimli..macho..Object$GT$17h63d230d2ca036270E+0x74>
1000027ac: b40000c8    	cbz	x8, 0x1000027c4 <__ZN4core3ptr71drop_in_place$LT$std..backtrace_rs..symbolize..gimli..macho..Object$GT$17h63d230d2ca036270E+0x5c>
1000027b0: f9401260    	ldr	x0, [x19, #0x20]
1000027b4: 8b080908    	add	x8, x8, x8, lsl #2
1000027b8: d37df101    	lsl	x1, x8, #3
1000027bc: 52800102    	mov	w2, #0x8                ; =8
1000027c0: 97fff87f    	bl	0x1000009bc <___rust_dealloc>
1000027c4: f9401a68    	ldr	x8, [x19, #0x30]
1000027c8: b40000a8    	cbz	x8, 0x1000027dc <__ZN4core3ptr71drop_in_place$LT$std..backtrace_rs..symbolize..gimli..macho..Object$GT$17h63d230d2ca036270E+0x74>
1000027cc: f9401e60    	ldr	x0, [x19, #0x38]
1000027d0: d37be901    	lsl	x1, x8, #5
1000027d4: 52800102    	mov	w2, #0x8                ; =8
1000027d8: 97fff879    	bl	0x1000009bc <___rust_dealloc>
1000027dc: f9403274    	ldr	x20, [x19, #0x60]
1000027e0: b4000374    	cbz	x20, 0x10000284c <__ZN4core3ptr71drop_in_place$LT$std..backtrace_rs..symbolize..gimli..macho..Object$GT$17h63d230d2ca036270E+0xe4>
1000027e4: d2800015    	mov	x21, #0x0               ; =0
1000027e8: f9402e73    	ldr	x19, [x19, #0x58]
1000027ec: d2800056    	mov	x22, #0x2               ; =2
1000027f0: f2f00016    	movk	x22, #0x8000, lsl #48
1000027f4: 52800028    	mov	w8, #0x1                ; =1
1000027f8: cb140117    	sub	x23, x8, x20
1000027fc: 14000005    	b	0x100002810 <__ZN4core3ptr71drop_in_place$LT$std..backtrace_rs..symbolize..gimli..macho..Object$GT$17h63d230d2ca036270E+0xa8>
100002800: 910922b5    	add	x21, x21, #0x248
100002804: 910006f7    	add	x23, x23, #0x1
100002808: f10006ff    	cmp	x23, #0x1
10000280c: 540000e0    	b.eq	0x100002828 <__ZN4core3ptr71drop_in_place$LT$std..backtrace_rs..symbolize..gimli..macho..Object$GT$17h63d230d2ca036270E+0xc0>
100002810: f8756a68    	ldr	x8, [x19, x21]
100002814: eb16011f    	cmp	x8, x22
100002818: 54ffff4b    	b.lt	0x100002800 <__ZN4core3ptr71drop_in_place$LT$std..backtrace_rs..symbolize..gimli..macho..Object$GT$17h63d230d2ca036270E+0x98>
10000281c: 8b150260    	add	x0, x19, x21
100002820: 97ffff47    	bl	0x10000253c <__ZN4core3ptr65drop_in_place$LT$std..backtrace_rs..symbolize..gimli..Mapping$GT$17h4bdffbb391e18304E>
100002824: 17fffff7    	b	0x100002800 <__ZN4core3ptr71drop_in_place$LT$std..backtrace_rs..symbolize..gimli..macho..Object$GT$17h63d230d2ca036270E+0x98>
100002828: 52804908    	mov	w8, #0x248              ; =584
10000282c: 9b087e81    	mul	x1, x20, x8
100002830: aa1303e0    	mov	x0, x19
100002834: 52800102    	mov	w2, #0x8                ; =8
100002838: a9437bfd    	ldp	x29, x30, [sp, #0x30]
10000283c: a9424ff4    	ldp	x20, x19, [sp, #0x20]
100002840: a94157f6    	ldp	x22, x21, [sp, #0x10]
100002844: a8c45ff8    	ldp	x24, x23, [sp], #0x40
100002848: 17fff85d    	b	0x1000009bc <___rust_dealloc>
10000284c: a9437bfd    	ldp	x29, x30, [sp, #0x30]
100002850: a9424ff4    	ldp	x20, x19, [sp, #0x20]
100002854: a94157f6    	ldp	x22, x21, [sp, #0x10]
100002858: a8c45ff8    	ldp	x24, x23, [sp], #0x40
10000285c: d65f03c0    	ret
100002860: aa1703e9    	mov	x9, x23
100002864: aa0003f7    	mov	x23, x0
100002868: b5000109    	cbnz	x9, 0x100002888 <__ZN4core3ptr71drop_in_place$LT$std..backtrace_rs..symbolize..gimli..macho..Object$GT$17h63d230d2ca036270E+0x120>
10000286c: 52804908    	mov	w8, #0x248              ; =584
100002870: 9b087e81    	mul	x1, x20, x8
100002874: aa1303e0    	mov	x0, x19
100002878: 52800102    	mov	w2, #0x8                ; =8
10000287c: 97fff850    	bl	0x1000009bc <___rust_dealloc>
100002880: aa1703e0    	mov	x0, x23
100002884: 9400ce2c    	bl	0x100036134 <dyld_stub_binder+0x100036134>
100002888: aa0903e8    	mov	x8, x9
10000288c: 8b150269    	add	x9, x19, x21
100002890: 91092135    	add	x21, x9, #0x248
100002894: cb0803f8    	neg	x24, x8
100002898: 14000004    	b	0x1000028a8 <__ZN4core3ptr71drop_in_place$LT$std..backtrace_rs..symbolize..gimli..macho..Object$GT$17h63d230d2ca036270E+0x140>
10000289c: 910922b5    	add	x21, x21, #0x248
1000028a0: f1000718    	subs	x24, x24, #0x1
1000028a4: 54fffe40    	b.eq	0x10000286c <__ZN4core3ptr71drop_in_place$LT$std..backtrace_rs..symbolize..gimli..macho..Object$GT$17h63d230d2ca036270E+0x104>
1000028a8: f94002a8    	ldr	x8, [x21]
1000028ac: eb16011f    	cmp	x8, x22
1000028b0: 54ffff6b    	b.lt	0x10000289c <__ZN4core3ptr71drop_in_place$LT$std..backtrace_rs..symbolize..gimli..macho..Object$GT$17h63d230d2ca036270E+0x134>
1000028b4: aa1503e0    	mov	x0, x21
1000028b8: 97ffff21    	bl	0x10000253c <__ZN4core3ptr65drop_in_place$LT$std..backtrace_rs..symbolize..gimli..Mapping$GT$17h4bdffbb391e18304E>
1000028bc: 17fffff8    	b	0x10000289c <__ZN4core3ptr71drop_in_place$LT$std..backtrace_rs..symbolize..gimli..macho..Object$GT$17h63d230d2ca036270E+0x134>
1000028c0: 9400cd62    	bl	0x100035e48 <__ZN4core9panicking16panic_in_cleanup17h08fe812c23ada610E>

00000001000028c4 <__ZN4core3ptr71drop_in_place$LT$std..sync..rwlock..RwLockReadGuard$LT$$LP$$RP$$GT$$GT$17hbdc4faa3786318e1E>:
1000028c4: a9bf7bfd    	stp	x29, x30, [sp, #-0x10]!
1000028c8: 910003fd    	mov	x29, sp
1000028cc: f9400400    	ldr	x0, [x0, #0x8]
1000028d0: f8bfc001    	ldapr	x1, [x0]
1000028d4: 92800128    	mov	x8, #-0xa               ; =-10
1000028d8: 14000009    	b	0x1000028fc <__ZN4core3ptr71drop_in_place$LT$std..sync..rwlock..RwLockReadGuard$LT$$LP$$RP$$GT$$GT$17hbdc4faa3786318e1E+0x38>
1000028dc: f1004429    	subs	x9, x1, #0x11
1000028e0: b2400129    	orr	x9, x9, #0x1
1000028e4: 9a8903e9    	csel	x9, xzr, x9, eq
1000028e8: aa0103ea    	mov	x10, x1
1000028ec: c8eafc09    	casal	x10, x9, [x0]
1000028f0: eb01015f    	cmp	x10, x1
1000028f4: aa0a03e1    	mov	x1, x10
1000028f8: 54000120    	b.eq	0x10000291c <__ZN4core3ptr71drop_in_place$LT$std..sync..rwlock..RwLockReadGuard$LT$$LP$$RP$$GT$$GT$17hbdc4faa3786318e1E+0x58>
1000028fc: 360fff01    	tbz	w1, #0x1, 0x1000028dc <__ZN4core3ptr71drop_in_place$LT$std..sync..rwlock..RwLockReadGuard$LT$$LP$$RP$$GT$$GT$17hbdc4faa3786318e1E+0x18>
100002900: 36180121    	tbz	w1, #0x3, 0x100002924 <__ZN4core3ptr71drop_in_place$LT$std..sync..rwlock..RwLockReadGuard$LT$$LP$$RP$$GT$$GT$17hbdc4faa3786318e1E+0x60>
100002904: 8a080029    	and	x9, x1, x8
100002908: aa0103ea    	mov	x10, x1
10000290c: c8eafc09    	casal	x10, x9, [x0]
100002910: eb01015f    	cmp	x10, x1
100002914: aa0a03e1    	mov	x1, x10
100002918: 54ffff21    	b.ne	0x1000028fc <__ZN4core3ptr71drop_in_place$LT$std..sync..rwlock..RwLockReadGuard$LT$$LP$$RP$$GT$$GT$17hbdc4faa3786318e1E+0x38>
10000291c: a8c17bfd    	ldp	x29, x30, [sp], #0x10
100002920: d65f03c0    	ret
100002924: a8c17bfd    	ldp	x29, x30, [sp], #0x10
100002928: 1400cc1a    	b	0x100035990 <__ZN3std3sys4sync6rwlock5queue6RwLock21read_unlock_contended17h7d90ca48971e5978E>

000000010000292c <__ZN4core3ptr72drop_in_place$LT$core..option..Option$LT$object..read..ObjectMap$GT$$GT$17h1b78279f331224d5E>:
10000292c: f9400009    	ldr	x9, [x0]
100002930: d2f00008    	mov	x8, #-0x8000000000000000 ; =-9223372036854775808
100002934: eb08013f    	cmp	x9, x8
100002938: 540002a0    	b.eq	0x10000298c <__ZN4core3ptr72drop_in_place$LT$core..option..Option$LT$object..read..ObjectMap$GT$$GT$17h1b78279f331224d5E+0x60>
10000293c: b40001c9    	cbz	x9, 0x100002974 <__ZN4core3ptr72drop_in_place$LT$core..option..Option$LT$object..read..ObjectMap$GT$$GT$17h1b78279f331224d5E+0x48>
100002940: a9be4ff4    	stp	x20, x19, [sp, #-0x20]!
100002944: a9017bfd    	stp	x29, x30, [sp, #0x10]
100002948: 910043fd    	add	x29, sp, #0x10
10000294c: f9400408    	ldr	x8, [x0, #0x8]
100002950: 8b090929    	add	x9, x9, x9, lsl #2
100002954: d37df121    	lsl	x1, x9, #3
100002958: aa0003f3    	mov	x19, x0
10000295c: aa0803e0    	mov	x0, x8
100002960: 52800102    	mov	w2, #0x8                ; =8
100002964: 97fff816    	bl	0x1000009bc <___rust_dealloc>
100002968: aa1303e0    	mov	x0, x19
10000296c: a9417bfd    	ldp	x29, x30, [sp, #0x10]
100002970: a8c24ff4    	ldp	x20, x19, [sp], #0x20
100002974: f9400c08    	ldr	x8, [x0, #0x18]
100002978: b40000a8    	cbz	x8, 0x10000298c <__ZN4core3ptr72drop_in_place$LT$core..option..Option$LT$object..read..ObjectMap$GT$$GT$17h1b78279f331224d5E+0x60>
10000297c: f9401000    	ldr	x0, [x0, #0x20]
100002980: d37be901    	lsl	x1, x8, #5
100002984: 52800102    	mov	w2, #0x8                ; =8
100002988: 17fff80d    	b	0x1000009bc <___rust_dealloc>
10000298c: d65f03c0    	ret

0000000100002990 <__ZN4core3ptr77drop_in_place$LT$alloc..boxed..Box$LT$$u5b$alloc..string..String$u5d$$GT$$GT$17h389cbb3d89604e68E>:
100002990: b4000361    	cbz	x1, 0x1000029fc <__ZN4core3ptr77drop_in_place$LT$alloc..boxed..Box$LT$$u5b$alloc..string..String$u5d$$GT$$GT$17h389cbb3d89604e68E+0x6c>
100002994: a9bd57f6    	stp	x22, x21, [sp, #-0x30]!
100002998: a9014ff4    	stp	x20, x19, [sp, #0x10]
10000299c: a9027bfd    	stp	x29, x30, [sp, #0x20]
1000029a0: 910083fd    	add	x29, sp, #0x20
1000029a4: aa0103f4    	mov	x20, x1
1000029a8: aa0003f3    	mov	x19, x0
1000029ac: 91002015    	add	x21, x0, #0x8
1000029b0: aa0103f6    	mov	x22, x1
1000029b4: 14000004    	b	0x1000029c4 <__ZN4core3ptr77drop_in_place$LT$alloc..boxed..Box$LT$$u5b$alloc..string..String$u5d$$GT$$GT$17h389cbb3d89604e68E+0x34>
1000029b8: 910062b5    	add	x21, x21, #0x18
1000029bc: f10006d6    	subs	x22, x22, #0x1
1000029c0: 540000e0    	b.eq	0x1000029dc <__ZN4core3ptr77drop_in_place$LT$alloc..boxed..Box$LT$$u5b$alloc..string..String$u5d$$GT$$GT$17h389cbb3d89604e68E+0x4c>
1000029c4: f85f82a1    	ldur	x1, [x21, #-0x8]
1000029c8: b4ffff81    	cbz	x1, 0x1000029b8 <__ZN4core3ptr77drop_in_place$LT$alloc..boxed..Box$LT$$u5b$alloc..string..String$u5d$$GT$$GT$17h389cbb3d89604e68E+0x28>
1000029cc: f94002a0    	ldr	x0, [x21]
1000029d0: 52800022    	mov	w2, #0x1                ; =1
1000029d4: 97fff7fa    	bl	0x1000009bc <___rust_dealloc>
1000029d8: 17fffff8    	b	0x1000029b8 <__ZN4core3ptr77drop_in_place$LT$alloc..boxed..Box$LT$$u5b$alloc..string..String$u5d$$GT$$GT$17h389cbb3d89604e68E+0x28>
1000029dc: 8b140688    	add	x8, x20, x20, lsl #1
1000029e0: d37df101    	lsl	x1, x8, #3
1000029e4: aa1303e0    	mov	x0, x19
1000029e8: 52800102    	mov	w2, #0x8                ; =8
1000029ec: a9427bfd    	ldp	x29, x30, [sp, #0x20]
1000029f0: a9414ff4    	ldp	x20, x19, [sp, #0x10]
1000029f4: a8c357f6    	ldp	x22, x21, [sp], #0x30
1000029f8: 17fff7f1    	b	0x1000009bc <___rust_dealloc>
1000029fc: d65f03c0    	ret

0000000100002a00 <__ZN4core3ptr77drop_in_place$LT$std..panicking..begin_panic_handler..FormatStringPayload$GT$17h67bb243b7260168aE>:
100002a00: a9bf7bfd    	stp	x29, x30, [sp, #-0x10]!
100002a04: 910003fd    	mov	x29, sp
100002a08: f9400001    	ldr	x1, [x0]
100002a0c: b2410028    	orr	x8, x1, #0x8000000000000000
100002a10: d2f00009    	mov	x9, #-0x8000000000000000 ; =-9223372036854775808
100002a14: eb09011f    	cmp	x8, x9
100002a18: 54000061    	b.ne	0x100002a24 <__ZN4core3ptr77drop_in_place$LT$std..panicking..begin_panic_handler..FormatStringPayload$GT$17h67bb243b7260168aE+0x24>
100002a1c: a8c17bfd    	ldp	x29, x30, [sp], #0x10
100002a20: d65f03c0    	ret
100002a24: f9400400    	ldr	x0, [x0, #0x8]
100002a28: 52800022    	mov	w2, #0x1                ; =1
100002a2c: a8c17bfd    	ldp	x29, x30, [sp], #0x10
100002a30: 17fff7e3    	b	0x1000009bc <___rust_dealloc>

0000000100002a34 <__ZN4core3ptr81drop_in_place$LT$core..result..Result$LT$$LP$$RP$$C$std..io..error..Error$GT$$GT$17h14d8a749e35cee38E>:
100002a34: a9bf7bfd    	stp	x29, x30, [sp, #-0x10]!
100002a38: 910003fd    	mov	x29, sp
100002a3c: f9400008    	ldr	x8, [x0]
100002a40: b4000068    	cbz	x8, 0x100002a4c <__ZN4core3ptr81drop_in_place$LT$core..result..Result$LT$$LP$$RP$$C$std..io..error..Error$GT$$GT$17h14d8a749e35cee38E+0x18>
100002a44: a8c17bfd    	ldp	x29, x30, [sp], #0x10
100002a48: 17fffdb1    	b	0x10000210c <__ZN4core3ptr42drop_in_place$LT$std..io..error..Error$GT$17h36811cc168898e97E>
100002a4c: a8c17bfd    	ldp	x29, x30, [sp], #0x10
100002a50: d65f03c0    	ret

0000000100002a54 <__ZN4core3ptr84drop_in_place$LT$alloc..sync..ArcInner$LT$gimli..read..abbrev..Abbreviations$GT$$GT$17h9817d88c89f5ffa3E>:
100002a54: a9bd57f6    	stp	x22, x21, [sp, #-0x30]!
100002a58: a9014ff4    	stp	x20, x19, [sp, #0x10]
100002a5c: a9027bfd    	stp	x29, x30, [sp, #0x20]
100002a60: 910083fd    	add	x29, sp, #0x20
100002a64: aa0003f3    	mov	x19, x0
100002a68: a941d414    	ldp	x20, x21, [x0, #0x18]
100002a6c: b40001f5    	cbz	x21, 0x100002aa8 <__ZN4core3ptr84drop_in_place$LT$alloc..sync..ArcInner$LT$gimli..read..abbrev..Abbreviations$GT$$GT$17h9817d88c89f5ffa3E+0x54>
100002a70: 91004296    	add	x22, x20, #0x10
100002a74: 14000004    	b	0x100002a84 <__ZN4core3ptr84drop_in_place$LT$alloc..sync..ArcInner$LT$gimli..read..abbrev..Abbreviations$GT$$GT$17h9817d88c89f5ffa3E+0x30>
100002a78: 9101c2d6    	add	x22, x22, #0x70
100002a7c: f10006b5    	subs	x21, x21, #0x1
100002a80: 54000140    	b.eq	0x100002aa8 <__ZN4core3ptr84drop_in_place$LT$alloc..sync..ArcInner$LT$gimli..read..abbrev..Abbreviations$GT$$GT$17h9817d88c89f5ffa3E+0x54>
100002a84: f85f02c8    	ldur	x8, [x22, #-0x10]
100002a88: b4ffff88    	cbz	x8, 0x100002a78 <__ZN4core3ptr84drop_in_place$LT$alloc..sync..ArcInner$LT$gimli..read..abbrev..Abbreviations$GT$$GT$17h9817d88c89f5ffa3E+0x24>
100002a8c: f85f82c8    	ldur	x8, [x22, #-0x8]
100002a90: b4ffff48    	cbz	x8, 0x100002a78 <__ZN4core3ptr84drop_in_place$LT$alloc..sync..ArcInner$LT$gimli..read..abbrev..Abbreviations$GT$$GT$17h9817d88c89f5ffa3E+0x24>
100002a94: f94002c0    	ldr	x0, [x22]
100002a98: d37ced01    	lsl	x1, x8, #4
100002a9c: 52800102    	mov	w2, #0x8                ; =8
100002aa0: 97fff7c7    	bl	0x1000009bc <___rust_dealloc>
100002aa4: 17fffff5    	b	0x100002a78 <__ZN4core3ptr84drop_in_place$LT$alloc..sync..ArcInner$LT$gimli..read..abbrev..Abbreviations$GT$$GT$17h9817d88c89f5ffa3E+0x24>
100002aa8: f9400a68    	ldr	x8, [x19, #0x10]
100002aac: b40000c8    	cbz	x8, 0x100002ac4 <__ZN4core3ptr84drop_in_place$LT$alloc..sync..ArcInner$LT$gimli..read..abbrev..Abbreviations$GT$$GT$17h9817d88c89f5ffa3E+0x70>
100002ab0: d379e109    	lsl	x9, x8, #7
100002ab4: cb081121    	sub	x1, x9, x8, lsl #4
100002ab8: aa1403e0    	mov	x0, x20
100002abc: 52800102    	mov	w2, #0x8                ; =8
100002ac0: 97fff7bf    	bl	0x1000009bc <___rust_dealloc>
100002ac4: 9100a260    	add	x0, x19, #0x28
100002ac8: a9427bfd    	ldp	x29, x30, [sp, #0x20]
100002acc: a9414ff4    	ldp	x20, x19, [sp, #0x10]
100002ad0: a8c357f6    	ldp	x22, x21, [sp], #0x30
100002ad4: 17fff9ed    	b	0x100001288 <__ZN4core3ptr108drop_in_place$LT$alloc..collections..btree..map..BTreeMap$LT$u64$C$gimli..read..abbrev..Abbreviation$GT$$GT$17h20b9ddf2029b81c7E>

0000000100002ad8 <__ZN4core3ptr86drop_in_place$LT$core..result..Result$LT$addr2line..Lines$C$gimli..read..Error$GT$$GT$17h8300cc809c3f3f8aE>:
100002ad8: a9bc5ff8    	stp	x24, x23, [sp, #-0x40]!
100002adc: a90157f6    	stp	x22, x21, [sp, #0x10]
100002ae0: a9024ff4    	stp	x20, x19, [sp, #0x20]
100002ae4: a9037bfd    	stp	x29, x30, [sp, #0x30]
100002ae8: 9100c3fd    	add	x29, sp, #0x30
100002aec: f9400014    	ldr	x20, [x0]
100002af0: b40004d4    	cbz	x20, 0x100002b88 <__ZN4core3ptr86drop_in_place$LT$core..result..Result$LT$addr2line..Lines$C$gimli..read..Error$GT$$GT$17h8300cc809c3f3f8aE+0xb0>
100002af4: aa0003f3    	mov	x19, x0
100002af8: f9400415    	ldr	x21, [x0, #0x8]
100002afc: b4000255    	cbz	x21, 0x100002b44 <__ZN4core3ptr86drop_in_place$LT$core..result..Result$LT$addr2line..Lines$C$gimli..read..Error$GT$$GT$17h8300cc809c3f3f8aE+0x6c>
100002b00: 91002296    	add	x22, x20, #0x8
100002b04: aa1503f7    	mov	x23, x21
100002b08: 14000004    	b	0x100002b18 <__ZN4core3ptr86drop_in_place$LT$core..result..Result$LT$addr2line..Lines$C$gimli..read..Error$GT$$GT$17h8300cc809c3f3f8aE+0x40>
100002b0c: 910062d6    	add	x22, x22, #0x18
100002b10: f10006f7    	subs	x23, x23, #0x1
100002b14: 540000e0    	b.eq	0x100002b30 <__ZN4core3ptr86drop_in_place$LT$core..result..Result$LT$addr2line..Lines$C$gimli..read..Error$GT$$GT$17h8300cc809c3f3f8aE+0x58>
100002b18: f85f82c1    	ldur	x1, [x22, #-0x8]
100002b1c: b4ffff81    	cbz	x1, 0x100002b0c <__ZN4core3ptr86drop_in_place$LT$core..result..Result$LT$addr2line..Lines$C$gimli..read..Error$GT$$GT$17h8300cc809c3f3f8aE+0x34>
100002b20: f94002c0    	ldr	x0, [x22]
100002b24: 52800022    	mov	w2, #0x1                ; =1
100002b28: 97fff7a5    	bl	0x1000009bc <___rust_dealloc>
100002b2c: 17fffff8    	b	0x100002b0c <__ZN4core3ptr86drop_in_place$LT$core..result..Result$LT$addr2line..Lines$C$gimli..read..Error$GT$$GT$17h8300cc809c3f3f8aE+0x34>
100002b30: 8b1506a8    	add	x8, x21, x21, lsl #1
100002b34: d37df101    	lsl	x1, x8, #3
100002b38: aa1403e0    	mov	x0, x20
100002b3c: 52800102    	mov	w2, #0x8                ; =8
100002b40: 97fff79f    	bl	0x1000009bc <___rust_dealloc>
100002b44: f9400e74    	ldr	x20, [x19, #0x18]
100002b48: b4000214    	cbz	x20, 0x100002b88 <__ZN4core3ptr86drop_in_place$LT$core..result..Result$LT$addr2line..Lines$C$gimli..read..Error$GT$$GT$17h8300cc809c3f3f8aE+0xb0>
100002b4c: f9400a73    	ldr	x19, [x19, #0x10]
100002b50: 91002275    	add	x21, x19, #0x8
100002b54: aa1403f6    	mov	x22, x20
100002b58: 14000004    	b	0x100002b68 <__ZN4core3ptr86drop_in_place$LT$core..result..Result$LT$addr2line..Lines$C$gimli..read..Error$GT$$GT$17h8300cc809c3f3f8aE+0x90>
100002b5c: 910082b5    	add	x21, x21, #0x20
100002b60: f10006d6    	subs	x22, x22, #0x1
100002b64: 540001c0    	b.eq	0x100002b9c <__ZN4core3ptr86drop_in_place$LT$core..result..Result$LT$addr2line..Lines$C$gimli..read..Error$GT$$GT$17h8300cc809c3f3f8aE+0xc4>
100002b68: f94002a8    	ldr	x8, [x21]
100002b6c: b4ffff88    	cbz	x8, 0x100002b5c <__ZN4core3ptr86drop_in_place$LT$core..result..Result$LT$addr2line..Lines$C$gimli..read..Error$GT$$GT$17h8300cc809c3f3f8aE+0x84>
100002b70: f85f82a0    	ldur	x0, [x21, #-0x8]
100002b74: 8b080508    	add	x8, x8, x8, lsl #1
100002b78: d37df101    	lsl	x1, x8, #3
100002b7c: 52800102    	mov	w2, #0x8                ; =8
100002b80: 97fff78f    	bl	0x1000009bc <___rust_dealloc>
100002b84: 17fffff6    	b	0x100002b5c <__ZN4core3ptr86drop_in_place$LT$core..result..Result$LT$addr2line..Lines$C$gimli..read..Error$GT$$GT$17h8300cc809c3f3f8aE+0x84>
100002b88: a9437bfd    	ldp	x29, x30, [sp, #0x30]
100002b8c: a9424ff4    	ldp	x20, x19, [sp, #0x20]
100002b90: a94157f6    	ldp	x22, x21, [sp, #0x10]
100002b94: a8c45ff8    	ldp	x24, x23, [sp], #0x40
100002b98: d65f03c0    	ret
100002b9c: d37bea81    	lsl	x1, x20, #5
100002ba0: aa1303e0    	mov	x0, x19
100002ba4: 52800102    	mov	w2, #0x8                ; =8
100002ba8: a9437bfd    	ldp	x29, x30, [sp, #0x30]
100002bac: a9424ff4    	ldp	x20, x19, [sp, #0x20]
100002bb0: a94157f6    	ldp	x22, x21, [sp, #0x10]
100002bb4: a8c45ff8    	ldp	x24, x23, [sp], #0x40
100002bb8: 17fff781    	b	0x1000009bc <___rust_dealloc>

0000000100002bbc <__ZN4core3ptr87drop_in_place$LT$alloc..sync..ArcInner$LT$std..sys..pal..unix..fs..InnerReadDir$GT$$GT$17hd31b3bfe46190f39E>:
100002bbc: a9be4ff4    	stp	x20, x19, [sp, #-0x20]!
100002bc0: a9017bfd    	stp	x29, x30, [sp, #0x10]
100002bc4: 910043fd    	add	x29, sp, #0x10
100002bc8: aa0003f3    	mov	x19, x0
100002bcc: 9100a000    	add	x0, x0, #0x28
100002bd0: 94007303    	bl	0x10001f7dc <__ZN70_$LT$std..sys..pal..unix..fs..Dir$u20$as$u20$core..ops..drop..Drop$GT$4drop17h8b009c12c8bddfc1E>
100002bd4: f9400a61    	ldr	x1, [x19, #0x10]
100002bd8: b40000c1    	cbz	x1, 0x100002bf0 <__ZN4core3ptr87drop_in_place$LT$alloc..sync..ArcInner$LT$std..sys..pal..unix..fs..InnerReadDir$GT$$GT$17hd31b3bfe46190f39E+0x34>
100002bdc: f9400e60    	ldr	x0, [x19, #0x18]
100002be0: 52800022    	mov	w2, #0x1                ; =1
100002be4: a9417bfd    	ldp	x29, x30, [sp, #0x10]
100002be8: a8c24ff4    	ldp	x20, x19, [sp], #0x20
100002bec: 17fff774    	b	0x1000009bc <___rust_dealloc>
100002bf0: a9417bfd    	ldp	x29, x30, [sp, #0x10]
100002bf4: a8c24ff4    	ldp	x20, x19, [sp], #0x20
100002bf8: d65f03c0    	ret
100002bfc: aa0003f4    	mov	x20, x0
100002c00: f9400a61    	ldr	x1, [x19, #0x10]
100002c04: b4000081    	cbz	x1, 0x100002c14 <__ZN4core3ptr87drop_in_place$LT$alloc..sync..ArcInner$LT$std..sys..pal..unix..fs..InnerReadDir$GT$$GT$17hd31b3bfe46190f39E+0x58>
100002c08: f9400e60    	ldr	x0, [x19, #0x18]
100002c0c: 52800022    	mov	w2, #0x1                ; =1
100002c10: 97fff76b    	bl	0x1000009bc <___rust_dealloc>
100002c14: aa1403e0    	mov	x0, x20
100002c18: 9400cd47    	bl	0x100036134 <dyld_stub_binder+0x100036134>

0000000100002c1c <__ZN4core3ptr88drop_in_place$LT$alloc..vec..Vec$LT$std..backtrace_rs..symbolize..gimli..Library$GT$$GT$17h81267f1031d8afa7E>:
100002c1c: a9bd57f6    	stp	x22, x21, [sp, #-0x30]!
100002c20: a9014ff4    	stp	x20, x19, [sp, #0x10]
100002c24: a9027bfd    	stp	x29, x30, [sp, #0x20]
100002c28: 910083fd    	add	x29, sp, #0x20
100002c2c: aa0003f4    	mov	x20, x0
100002c30: a940d413    	ldp	x19, x21, [x0, #0x8]
100002c34: b4000255    	cbz	x21, 0x100002c7c <__ZN4core3ptr88drop_in_place$LT$alloc..vec..Vec$LT$std..backtrace_rs..symbolize..gimli..Library$GT$$GT$17h81267f1031d8afa7E+0x60>
100002c38: 91008276    	add	x22, x19, #0x20
100002c3c: 14000004    	b	0x100002c4c <__ZN4core3ptr88drop_in_place$LT$alloc..vec..Vec$LT$std..backtrace_rs..symbolize..gimli..Library$GT$$GT$17h81267f1031d8afa7E+0x30>
100002c40: 9100e2d6    	add	x22, x22, #0x38
100002c44: f10006b5    	subs	x21, x21, #0x1
100002c48: 540001a0    	b.eq	0x100002c7c <__ZN4core3ptr88drop_in_place$LT$alloc..vec..Vec$LT$std..backtrace_rs..symbolize..gimli..Library$GT$$GT$17h81267f1031d8afa7E+0x60>
100002c4c: f85e02c1    	ldur	x1, [x22, #-0x20]
100002c50: b4000081    	cbz	x1, 0x100002c60 <__ZN4core3ptr88drop_in_place$LT$alloc..vec..Vec$LT$std..backtrace_rs..symbolize..gimli..Library$GT$$GT$17h81267f1031d8afa7E+0x44>
100002c54: f85e82c0    	ldur	x0, [x22, #-0x18]
100002c58: 52800022    	mov	w2, #0x1                ; =1
100002c5c: 97fff758    	bl	0x1000009bc <___rust_dealloc>
100002c60: f85f82c8    	ldur	x8, [x22, #-0x8]
100002c64: b4fffee8    	cbz	x8, 0x100002c40 <__ZN4core3ptr88drop_in_place$LT$alloc..vec..Vec$LT$std..backtrace_rs..symbolize..gimli..Library$GT$$GT$17h81267f1031d8afa7E+0x24>
100002c68: f94002c0    	ldr	x0, [x22]
100002c6c: d37ced01    	lsl	x1, x8, #4
100002c70: 52800102    	mov	w2, #0x8                ; =8
100002c74: 97fff752    	bl	0x1000009bc <___rust_dealloc>
100002c78: 17fffff2    	b	0x100002c40 <__ZN4core3ptr88drop_in_place$LT$alloc..vec..Vec$LT$std..backtrace_rs..symbolize..gimli..Library$GT$$GT$17h81267f1031d8afa7E+0x24>
100002c7c: f9400288    	ldr	x8, [x20]
100002c80: b4000128    	cbz	x8, 0x100002ca4 <__ZN4core3ptr88drop_in_place$LT$alloc..vec..Vec$LT$std..backtrace_rs..symbolize..gimli..Library$GT$$GT$17h81267f1031d8afa7E+0x88>
100002c84: d37ae509    	lsl	x9, x8, #6
100002c88: cb080d21    	sub	x1, x9, x8, lsl #3
100002c8c: aa1303e0    	mov	x0, x19
100002c90: 52800102    	mov	w2, #0x8                ; =8
100002c94: a9427bfd    	ldp	x29, x30, [sp, #0x20]
100002c98: a9414ff4    	ldp	x20, x19, [sp, #0x10]
100002c9c: a8c357f6    	ldp	x22, x21, [sp], #0x30
100002ca0: 17fff747    	b	0x1000009bc <___rust_dealloc>
100002ca4: a9427bfd    	ldp	x29, x30, [sp, #0x20]
100002ca8: a9414ff4    	ldp	x20, x19, [sp, #0x10]
100002cac: a8c357f6    	ldp	x22, x21, [sp], #0x30
100002cb0: d65f03c0    	ret

0000000100002cb4 <__ZN4core3ptr88drop_in_place$LT$std..io..Write..write_fmt..Adapter$LT$alloc..vec..Vec$LT$u8$GT$$GT$$GT$17hf1d16fc49d9ad868E>:
100002cb4: a9bf7bfd    	stp	x29, x30, [sp, #-0x10]!
100002cb8: 910003fd    	mov	x29, sp
100002cbc: f8408c08    	ldr	x8, [x0, #0x8]!
100002cc0: b4000068    	cbz	x8, 0x100002ccc <__ZN4core3ptr88drop_in_place$LT$std..io..Write..write_fmt..Adapter$LT$alloc..vec..Vec$LT$u8$GT$$GT$$GT$17hf1d16fc49d9ad868E+0x18>
100002cc4: a8c17bfd    	ldp	x29, x30, [sp], #0x10
100002cc8: 17fffd11    	b	0x10000210c <__ZN4core3ptr42drop_in_place$LT$std..io..error..Error$GT$17h36811cc168898e97E>
100002ccc: a8c17bfd    	ldp	x29, x30, [sp], #0x10
100002cd0: d65f03c0    	ret

0000000100002cd4 <__ZN4core3ptr90drop_in_place$LT$std..io..buffered..bufwriter..BufWriter$LT$W$GT$..flush_buf..BufGuard$GT$17hef9b0092bdccbe2bE>:
100002cd4: a9be4ff4    	stp	x20, x19, [sp, #-0x20]!
100002cd8: a9017bfd    	stp	x29, x30, [sp, #0x10]
100002cdc: 910043fd    	add	x29, sp, #0x10
100002ce0: b40001a1    	cbz	x1, 0x100002d14 <__ZN4core3ptr90drop_in_place$LT$std..io..buffered..bufwriter..BufWriter$LT$W$GT$..flush_buf..BufGuard$GT$17hef9b0092bdccbe2bE+0x40>
100002ce4: f9400808    	ldr	x8, [x0, #0x10]
100002ce8: eb010113    	subs	x19, x8, x1
100002cec: 540001a3    	b.lo	0x100002d20 <__ZN4core3ptr90drop_in_place$LT$std..io..buffered..bufwriter..BufWriter$LT$W$GT$..flush_buf..BufGuard$GT$17hef9b0092bdccbe2bE+0x4c>
100002cf0: f900081f    	str	xzr, [x0, #0x10]
100002cf4: 54000100    	b.eq	0x100002d14 <__ZN4core3ptr90drop_in_place$LT$std..io..buffered..bufwriter..BufWriter$LT$W$GT$..flush_buf..BufGuard$GT$17hef9b0092bdccbe2bE+0x40>
100002cf8: f9400408    	ldr	x8, [x0, #0x8]
100002cfc: 8b010101    	add	x1, x8, x1
100002d00: aa0003f4    	mov	x20, x0
100002d04: aa0803e0    	mov	x0, x8
100002d08: aa1303e2    	mov	x2, x19
100002d0c: 9400cd5b    	bl	0x100036278 <dyld_stub_binder+0x100036278>
100002d10: f9000a93    	str	x19, [x20, #0x10]
100002d14: a9417bfd    	ldp	x29, x30, [sp, #0x10]
100002d18: a8c24ff4    	ldp	x20, x19, [sp], #0x20
100002d1c: d65f03c0    	ret
100002d20: d0000202    	adrp	x2, 0x100044000 <dyld_stub_binder+0x100044000>
100002d24: 91068042    	add	x2, x2, #0x1a0
100002d28: aa0103e0    	mov	x0, x1
100002d2c: aa0803e1    	mov	x1, x8
100002d30: 9400ccb6    	bl	0x100036008 <__ZN4core5slice5index24slice_end_index_len_fail17h35fe1ac5b5b3247cE>

0000000100002d34 <__ZN4core3ptr92drop_in_place$LT$alloc..boxed..Box$LT$std..sys..sync..mutex..pthread..AllocatedMutex$GT$$GT$17h7881b0cf1ab24df2E>:
100002d34: a9be4ff4    	stp	x20, x19, [sp, #-0x20]!
100002d38: a9017bfd    	stp	x29, x30, [sp, #0x10]
100002d3c: 910043fd    	add	x29, sp, #0x10
100002d40: aa0003f3    	mov	x19, x0
100002d44: 9400cd68    	bl	0x1000362e4 <dyld_stub_binder+0x1000362e4>
100002d48: aa1303e0    	mov	x0, x19
100002d4c: 52800801    	mov	w1, #0x40               ; =64
100002d50: 52800102    	mov	w2, #0x8                ; =8
100002d54: a9417bfd    	ldp	x29, x30, [sp, #0x10]
100002d58: a8c24ff4    	ldp	x20, x19, [sp], #0x20
100002d5c: 17fff718    	b	0x1000009bc <___rust_dealloc>

0000000100002d60 <__ZN4core3ptr95drop_in_place$LT$core..option..IntoIter$LT$std..backtrace_rs..symbolize..gimli..Library$GT$$GT$17ha73b0cfb3aae63c6E>:
100002d60: f9400001    	ldr	x1, [x0]
100002d64: d2f00008    	mov	x8, #-0x8000000000000000 ; =-9223372036854775808
100002d68: eb08003f    	cmp	x1, x8
100002d6c: 54000260    	b.eq	0x100002db8 <__ZN4core3ptr95drop_in_place$LT$core..option..IntoIter$LT$std..backtrace_rs..symbolize..gimli..Library$GT$$GT$17ha73b0cfb3aae63c6E+0x58>
100002d70: b4000181    	cbz	x1, 0x100002da0 <__ZN4core3ptr95drop_in_place$LT$core..option..IntoIter$LT$std..backtrace_rs..symbolize..gimli..Library$GT$$GT$17ha73b0cfb3aae63c6E+0x40>
100002d74: a9be4ff4    	stp	x20, x19, [sp, #-0x20]!
100002d78: a9017bfd    	stp	x29, x30, [sp, #0x10]
100002d7c: 910043fd    	add	x29, sp, #0x10
100002d80: f9400408    	ldr	x8, [x0, #0x8]
100002d84: aa0003f3    	mov	x19, x0
100002d88: aa0803e0    	mov	x0, x8
100002d8c: 52800022    	mov	w2, #0x1                ; =1
100002d90: 97fff70b    	bl	0x1000009bc <___rust_dealloc>
100002d94: aa1303e0    	mov	x0, x19
100002d98: a9417bfd    	ldp	x29, x30, [sp, #0x10]
100002d9c: a8c24ff4    	ldp	x20, x19, [sp], #0x20
100002da0: f9400c08    	ldr	x8, [x0, #0x18]
100002da4: b40000a8    	cbz	x8, 0x100002db8 <__ZN4core3ptr95drop_in_place$LT$core..option..IntoIter$LT$std..backtrace_rs..symbolize..gimli..Library$GT$$GT$17ha73b0cfb3aae63c6E+0x58>
100002da8: f9401000    	ldr	x0, [x0, #0x20]
100002dac: d37ced01    	lsl	x1, x8, #4
100002db0: 52800102    	mov	w2, #0x8                ; =8
100002db4: 17fff702    	b	0x1000009bc <___rust_dealloc>
100002db8: d65f03c0    	ret

0000000100002dbc <__ZN4core3ptr95drop_in_place$LT$std..io..buffered..linewriter..LineWriter$LT$std..io..stdio..StdoutRaw$GT$$GT$17hae131c5ccdef47a3E>:
100002dbc: a9bd57f6    	stp	x22, x21, [sp, #-0x30]!
100002dc0: a9014ff4    	stp	x20, x19, [sp, #0x10]
100002dc4: a9027bfd    	stp	x29, x30, [sp, #0x20]
100002dc8: 910083fd    	add	x29, sp, #0x20
100002dcc: aa0003f3    	mov	x19, x0
100002dd0: 39406008    	ldrb	w8, [x0, #0x18]
100002dd4: 370002c8    	tbnz	w8, #0x0, 0x100002e2c <__ZN4core3ptr95drop_in_place$LT$std..io..buffered..linewriter..LineWriter$LT$std..io..stdio..StdoutRaw$GT$$GT$17hae131c5ccdef47a3E+0x70>
100002dd8: aa1303e0    	mov	x0, x19
100002ddc: 94005f09    	bl	0x10001aa00 <__ZN3std2io8buffered9bufwriter18BufWriter$LT$W$GT$9flush_buf17hefad7f01e53ce2b1E>
100002de0: aa0003f4    	mov	x20, x0
100002de4: 92400408    	and	x8, x0, #0x3
100002de8: f100051f    	cmp	x8, #0x1
100002dec: 54000201    	b.ne	0x100002e2c <__ZN4core3ptr95drop_in_place$LT$std..io..buffered..linewriter..LineWriter$LT$std..io..stdio..StdoutRaw$GT$$GT$17hae131c5ccdef47a3E+0x70>
100002df0: f85ffe96    	ldr	x22, [x20, #-0x1]!
100002df4: f9400695    	ldr	x21, [x20, #0x8]
100002df8: f94002a8    	ldr	x8, [x21]
100002dfc: b4000068    	cbz	x8, 0x100002e08 <__ZN4core3ptr95drop_in_place$LT$std..io..buffered..linewriter..LineWriter$LT$std..io..stdio..StdoutRaw$GT$$GT$17hae131c5ccdef47a3E+0x4c>
100002e00: aa1603e0    	mov	x0, x22
100002e04: d63f0100    	blr	x8
100002e08: f94006a1    	ldr	x1, [x21, #0x8]
100002e0c: b4000081    	cbz	x1, 0x100002e1c <__ZN4core3ptr95drop_in_place$LT$std..io..buffered..linewriter..LineWriter$LT$std..io..stdio..StdoutRaw$GT$$GT$17hae131c5ccdef47a3E+0x60>
100002e10: f9400aa2    	ldr	x2, [x21, #0x10]
100002e14: aa1603e0    	mov	x0, x22
100002e18: 97fff6e9    	bl	0x1000009bc <___rust_dealloc>
100002e1c: aa1403e0    	mov	x0, x20
100002e20: 52800301    	mov	w1, #0x18               ; =24
100002e24: 52800102    	mov	w2, #0x8                ; =8
100002e28: 97fff6e5    	bl	0x1000009bc <___rust_dealloc>
100002e2c: f9400261    	ldr	x1, [x19]
100002e30: b40000e1    	cbz	x1, 0x100002e4c <__ZN4core3ptr95drop_in_place$LT$std..io..buffered..linewriter..LineWriter$LT$std..io..stdio..StdoutRaw$GT$$GT$17hae131c5ccdef47a3E+0x90>
100002e34: f9400660    	ldr	x0, [x19, #0x8]
100002e38: 52800022    	mov	w2, #0x1                ; =1
100002e3c: a9427bfd    	ldp	x29, x30, [sp, #0x20]
100002e40: a9414ff4    	ldp	x20, x19, [sp, #0x10]
100002e44: a8c357f6    	ldp	x22, x21, [sp], #0x30
100002e48: 17fff6dd    	b	0x1000009bc <___rust_dealloc>
100002e4c: a9427bfd    	ldp	x29, x30, [sp, #0x20]
100002e50: a9414ff4    	ldp	x20, x19, [sp, #0x10]
100002e54: a8c357f6    	ldp	x22, x21, [sp], #0x30
100002e58: d65f03c0    	ret
100002e5c: aa1503e9    	mov	x9, x21
100002e60: aa0003f5    	mov	x21, x0
100002e64: f9400521    	ldr	x1, [x9, #0x8]
100002e68: b4000081    	cbz	x1, 0x100002e78 <__ZN4core3ptr95drop_in_place$LT$std..io..buffered..linewriter..LineWriter$LT$std..io..stdio..StdoutRaw$GT$$GT$17hae131c5ccdef47a3E+0xbc>
100002e6c: f9400922    	ldr	x2, [x9, #0x10]
100002e70: aa1603e0    	mov	x0, x22
100002e74: 97fff6d2    	bl	0x1000009bc <___rust_dealloc>
100002e78: aa1403e0    	mov	x0, x20
100002e7c: 52800301    	mov	w1, #0x18               ; =24
100002e80: 52800102    	mov	w2, #0x8                ; =8
100002e84: 97fff6ce    	bl	0x1000009bc <___rust_dealloc>
100002e88: 14000002    	b	0x100002e90 <__ZN4core3ptr95drop_in_place$LT$std..io..buffered..linewriter..LineWriter$LT$std..io..stdio..StdoutRaw$GT$$GT$17hae131c5ccdef47a3E+0xd4>
100002e8c: aa0003f5    	mov	x21, x0
100002e90: f9400261    	ldr	x1, [x19]
100002e94: b4000081    	cbz	x1, 0x100002ea4 <__ZN4core3ptr95drop_in_place$LT$std..io..buffered..linewriter..LineWriter$LT$std..io..stdio..StdoutRaw$GT$$GT$17hae131c5ccdef47a3E+0xe8>
100002e98: f9400660    	ldr	x0, [x19, #0x8]
100002e9c: 52800022    	mov	w2, #0x1                ; =1
100002ea0: 97fff6c7    	bl	0x1000009bc <___rust_dealloc>
100002ea4: aa1503e0    	mov	x0, x21
100002ea8: 9400cca3    	bl	0x100036134 <dyld_stub_binder+0x100036134>

0000000100002eac <__ZN4core5panic12PanicPayload6as_str17h8b7fc3763496ea90E>:
100002eac: a9bf7bfd    	stp	x29, x30, [sp, #-0x10]!
100002eb0: 910003fd    	mov	x29, sp
100002eb4: d2800000    	mov	x0, #0x0                ; =0
100002eb8: a8c17bfd    	ldp	x29, x30, [sp], #0x10
100002ebc: d65f03c0    	ret

0000000100002ec0 <__ZN4core5slice4sort6shared5pivot11median3_rec17h0362308a2bf4f4f0E>:
100002ec0: a9bc5ff8    	stp	x24, x23, [sp, #-0x40]!
100002ec4: a90157f6    	stp	x22, x21, [sp, #0x10]
100002ec8: a9024ff4    	stp	x20, x19, [sp, #0x20]
100002ecc: a9037bfd    	stp	x29, x30, [sp, #0x30]
100002ed0: 9100c3fd    	add	x29, sp, #0x30
100002ed4: aa0203f3    	mov	x19, x2
100002ed8: aa0103f4    	mov	x20, x1
100002edc: f100207f    	cmp	x3, #0x8
100002ee0: 540002e3    	b.lo	0x100002f3c <__ZN4core5slice4sort6shared5pivot11median3_rec17h0362308a2bf4f4f0E+0x7c>
100002ee4: d343fc75    	lsr	x21, x3, #3
100002ee8: d379e2b7    	lsl	x23, x21, #7
100002eec: d378dea8    	lsl	x8, x21, #8
100002ef0: cb151518    	sub	x24, x8, x21, lsl #5
100002ef4: 8b170001    	add	x1, x0, x23
100002ef8: 8b180002    	add	x2, x0, x24
100002efc: aa1503e3    	mov	x3, x21
100002f00: 97fffff0    	bl	0x100002ec0 <__ZN4core5slice4sort6shared5pivot11median3_rec17h0362308a2bf4f4f0E>
100002f04: aa0003f6    	mov	x22, x0
100002f08: 8b170281    	add	x1, x20, x23
100002f0c: 8b180282    	add	x2, x20, x24
100002f10: aa1403e0    	mov	x0, x20
100002f14: aa1503e3    	mov	x3, x21
100002f18: 97ffffea    	bl	0x100002ec0 <__ZN4core5slice4sort6shared5pivot11median3_rec17h0362308a2bf4f4f0E>
100002f1c: aa0003f4    	mov	x20, x0
100002f20: 8b170261    	add	x1, x19, x23
100002f24: 8b180262    	add	x2, x19, x24
100002f28: aa1303e0    	mov	x0, x19
100002f2c: aa1503e3    	mov	x3, x21
100002f30: 97ffffe4    	bl	0x100002ec0 <__ZN4core5slice4sort6shared5pivot11median3_rec17h0362308a2bf4f4f0E>
100002f34: aa0003f3    	mov	x19, x0
100002f38: aa1603e0    	mov	x0, x22
100002f3c: f9400808    	ldr	x8, [x0, #0x10]
100002f40: f9400a89    	ldr	x9, [x20, #0x10]
100002f44: eb09011f    	cmp	x8, x9
100002f48: 1a9f27ea    	cset	w10, lo
100002f4c: f9400a6b    	ldr	x11, [x19, #0x10]
100002f50: eb0b011f    	cmp	x8, x11
100002f54: 1a9f27e8    	cset	w8, lo
100002f58: 4a080148    	eor	w8, w10, w8
100002f5c: eb0b013f    	cmp	x9, x11
100002f60: 1a9f27e9    	cset	w9, lo
100002f64: 4a090149    	eor	w9, w10, w9
100002f68: 7100013f    	cmp	w9, #0x0
100002f6c: 9a941269    	csel	x9, x19, x20, ne
100002f70: 7100011f    	cmp	w8, #0x0
100002f74: 9a891000    	csel	x0, x0, x9, ne
100002f78: a9437bfd    	ldp	x29, x30, [sp, #0x30]
100002f7c: a9424ff4    	ldp	x20, x19, [sp, #0x20]
100002f80: a94157f6    	ldp	x22, x21, [sp, #0x10]
100002f84: a8c45ff8    	ldp	x24, x23, [sp], #0x40
100002f88: d65f03c0    	ret

0000000100002f8c <__ZN4core5slice4sort6shared5pivot11median3_rec17h071e82f5e2c5a253E>:
100002f8c: d101c3ff    	sub	sp, sp, #0x70
100002f90: a9016ffc    	stp	x28, x27, [sp, #0x10]
100002f94: a90267fa    	stp	x26, x25, [sp, #0x20]
100002f98: a9035ff8    	stp	x24, x23, [sp, #0x30]
100002f9c: a90457f6    	stp	x22, x21, [sp, #0x40]
100002fa0: a9054ff4    	stp	x20, x19, [sp, #0x50]
100002fa4: a9067bfd    	stp	x29, x30, [sp, #0x60]
100002fa8: 910183fd    	add	x29, sp, #0x60
100002fac: aa0203f3    	mov	x19, x2
100002fb0: aa0103f4    	mov	x20, x1
100002fb4: aa0003f5    	mov	x21, x0
100002fb8: f100207f    	cmp	x3, #0x8
100002fbc: 54000303    	b.lo	0x10000301c <__ZN4core5slice4sort6shared5pivot11median3_rec17h071e82f5e2c5a253E+0x90>
100002fc0: d343fc76    	lsr	x22, x3, #3
100002fc4: 8b1606c8    	add	x8, x22, x22, lsl #1
100002fc8: d37be917    	lsl	x23, x8, #5
100002fcc: 52801508    	mov	w8, #0xa8               ; =168
100002fd0: 9b087ed8    	mul	x24, x22, x8
100002fd4: 8b1702a1    	add	x1, x21, x23
100002fd8: 8b1802a2    	add	x2, x21, x24
100002fdc: aa1503e0    	mov	x0, x21
100002fe0: aa1603e3    	mov	x3, x22
100002fe4: 97ffffea    	bl	0x100002f8c <__ZN4core5slice4sort6shared5pivot11median3_rec17h071e82f5e2c5a253E>
100002fe8: aa0003f5    	mov	x21, x0
100002fec: 8b170281    	add	x1, x20, x23
100002ff0: 8b180282    	add	x2, x20, x24
100002ff4: aa1403e0    	mov	x0, x20
100002ff8: aa1603e3    	mov	x3, x22
100002ffc: 97ffffe4    	bl	0x100002f8c <__ZN4core5slice4sort6shared5pivot11median3_rec17h071e82f5e2c5a253E>
100003000: aa0003f4    	mov	x20, x0
100003004: 8b170261    	add	x1, x19, x23
100003008: 8b180262    	add	x2, x19, x24
10000300c: aa1303e0    	mov	x0, x19
100003010: aa1603e3    	mov	x3, x22
100003014: 97ffffde    	bl	0x100002f8c <__ZN4core5slice4sort6shared5pivot11median3_rec17h071e82f5e2c5a253E>
100003018: aa0003f3    	mov	x19, x0
10000301c: a94072b8    	ldp	x24, x28, [x21]
100003020: a9406681    	ldp	x1, x25, [x20]
100003024: eb190397    	subs	x23, x28, x25
100003028: 9a993382    	csel	x2, x28, x25, lo
10000302c: aa1803e0    	mov	x0, x24
100003030: f90007e1    	str	x1, [sp, #0x8]
100003034: 9400cc8b    	bl	0x100036260 <dyld_stub_binder+0x100036260>
100003038: 93407c08    	sxtw	x8, w0
10000303c: 7100001f    	cmp	w0, #0x0
100003040: 9a8802fa    	csel	x26, x23, x8, eq
100003044: a9406e77    	ldp	x23, x27, [x19]
100003048: eb1b0396    	subs	x22, x28, x27
10000304c: 9a9b3382    	csel	x2, x28, x27, lo
100003050: aa1803e0    	mov	x0, x24
100003054: aa1703e1    	mov	x1, x23
100003058: 9400cc82    	bl	0x100036260 <dyld_stub_binder+0x100036260>
10000305c: 93407c08    	sxtw	x8, w0
100003060: 7100001f    	cmp	w0, #0x0
100003064: 9a8802c8    	csel	x8, x22, x8, eq
100003068: ca1a0108    	eor	x8, x8, x26
10000306c: b7f80188    	tbnz	x8, #0x3f, 0x10000309c <__ZN4core5slice4sort6shared5pivot11median3_rec17h071e82f5e2c5a253E+0x110>
100003070: eb1b0335    	subs	x21, x25, x27
100003074: 9a9b3322    	csel	x2, x25, x27, lo
100003078: f94007e0    	ldr	x0, [sp, #0x8]
10000307c: aa1703e1    	mov	x1, x23
100003080: 9400cc78    	bl	0x100036260 <dyld_stub_binder+0x100036260>
100003084: 93407c08    	sxtw	x8, w0
100003088: 7100001f    	cmp	w0, #0x0
10000308c: 9a8802a8    	csel	x8, x21, x8, eq
100003090: ca1a0108    	eor	x8, x8, x26
100003094: f100011f    	cmp	x8, #0x0
100003098: 9a94b275    	csel	x21, x19, x20, lt
10000309c: aa1503e0    	mov	x0, x21
1000030a0: a9467bfd    	ldp	x29, x30, [sp, #0x60]
1000030a4: a9454ff4    	ldp	x20, x19, [sp, #0x50]
1000030a8: a94457f6    	ldp	x22, x21, [sp, #0x40]
1000030ac: a9435ff8    	ldp	x24, x23, [sp, #0x30]
1000030b0: a94267fa    	ldp	x26, x25, [sp, #0x20]
1000030b4: a9416ffc    	ldp	x28, x27, [sp, #0x10]
1000030b8: 9101c3ff    	add	sp, sp, #0x70
1000030bc: d65f03c0    	ret

00000001000030c0 <__ZN4core5slice4sort6shared5pivot11median3_rec17h4cfb8946b74501f6E>:
1000030c0: a9bc5ff8    	stp	x24, x23, [sp, #-0x40]!
1000030c4: a90157f6    	stp	x22, x21, [sp, #0x10]
1000030c8: a9024ff4    	stp	x20, x19, [sp, #0x20]
1000030cc: a9037bfd    	stp	x29, x30, [sp, #0x30]
1000030d0: 9100c3fd    	add	x29, sp, #0x30
1000030d4: aa0203f3    	mov	x19, x2
1000030d8: aa0103f4    	mov	x20, x1
1000030dc: f100207f    	cmp	x3, #0x8
1000030e0: 540002e3    	b.lo	0x10000313c <__ZN4core5slice4sort6shared5pivot11median3_rec17h4cfb8946b74501f6E+0x7c>
1000030e4: d343fc75    	lsr	x21, x3, #3
1000030e8: d37ae6b7    	lsl	x23, x21, #6
1000030ec: d379e2a8    	lsl	x8, x21, #7
1000030f0: cb151118    	sub	x24, x8, x21, lsl #4
1000030f4: 8b170001    	add	x1, x0, x23
1000030f8: 8b180002    	add	x2, x0, x24
1000030fc: aa1503e3    	mov	x3, x21
100003100: 97fffff0    	bl	0x1000030c0 <__ZN4core5slice4sort6shared5pivot11median3_rec17h4cfb8946b74501f6E>
100003104: aa0003f6    	mov	x22, x0
100003108: 8b170281    	add	x1, x20, x23
10000310c: 8b180282    	add	x2, x20, x24
100003110: aa1403e0    	mov	x0, x20
100003114: aa1503e3    	mov	x3, x21
100003118: 97ffffea    	bl	0x1000030c0 <__ZN4core5slice4sort6shared5pivot11median3_rec17h4cfb8946b74501f6E>
10000311c: aa0003f4    	mov	x20, x0
100003120: 8b170261    	add	x1, x19, x23
100003124: 8b180262    	add	x2, x19, x24
100003128: aa1303e0    	mov	x0, x19
10000312c: aa1503e3    	mov	x3, x21
100003130: 97ffffe4    	bl	0x1000030c0 <__ZN4core5slice4sort6shared5pivot11median3_rec17h4cfb8946b74501f6E>
100003134: aa0003f3    	mov	x19, x0
100003138: aa1603e0    	mov	x0, x22
10000313c: f9400008    	ldr	x8, [x0]
100003140: f9400289    	ldr	x9, [x20]
100003144: eb09011f    	cmp	x8, x9
100003148: 1a9f27ea    	cset	w10, lo
10000314c: f940026b    	ldr	x11, [x19]
100003150: eb0b011f    	cmp	x8, x11
100003154: 1a9f27e8    	cset	w8, lo
100003158: 4a080148    	eor	w8, w10, w8
10000315c: eb0b013f    	cmp	x9, x11
100003160: 1a9f27e9    	cset	w9, lo
100003164: 4a090149    	eor	w9, w10, w9
100003168: 7100013f    	cmp	w9, #0x0
10000316c: 9a941269    	csel	x9, x19, x20, ne
100003170: 7100011f    	cmp	w8, #0x0
100003174: 9a891000    	csel	x0, x0, x9, ne
100003178: a9437bfd    	ldp	x29, x30, [sp, #0x30]
10000317c: a9424ff4    	ldp	x20, x19, [sp, #0x20]
100003180: a94157f6    	ldp	x22, x21, [sp, #0x10]
100003184: a8c45ff8    	ldp	x24, x23, [sp], #0x40
100003188: d65f03c0    	ret

000000010000318c <__ZN4core5slice4sort6shared5pivot11median3_rec17h57130d0b0394e93cE>:
10000318c: a9bc5ff8    	stp	x24, x23, [sp, #-0x40]!
100003190: a90157f6    	stp	x22, x21, [sp, #0x10]
100003194: a9024ff4    	stp	x20, x19, [sp, #0x20]
100003198: a9037bfd    	stp	x29, x30, [sp, #0x30]
10000319c: 9100c3fd    	add	x29, sp, #0x30
1000031a0: aa0203f3    	mov	x19, x2
1000031a4: aa0103f4    	mov	x20, x1
1000031a8: f100207f    	cmp	x3, #0x8
1000031ac: 54000303    	b.lo	0x10000320c <__ZN4core5slice4sort6shared5pivot11median3_rec17h57130d0b0394e93cE+0x80>
1000031b0: d343fc75    	lsr	x21, x3, #3
1000031b4: 8b1506a8    	add	x8, x21, x21, lsl #1
1000031b8: d37be917    	lsl	x23, x8, #5
1000031bc: 52801508    	mov	w8, #0xa8               ; =168
1000031c0: 9b087eb8    	mul	x24, x21, x8
1000031c4: 8b170001    	add	x1, x0, x23
1000031c8: 8b180002    	add	x2, x0, x24
1000031cc: aa1503e3    	mov	x3, x21
1000031d0: 97ffffef    	bl	0x10000318c <__ZN4core5slice4sort6shared5pivot11median3_rec17h57130d0b0394e93cE>
1000031d4: aa0003f6    	mov	x22, x0
1000031d8: 8b170281    	add	x1, x20, x23
1000031dc: 8b180282    	add	x2, x20, x24
1000031e0: aa1403e0    	mov	x0, x20
1000031e4: aa1503e3    	mov	x3, x21
1000031e8: 97ffffe9    	bl	0x10000318c <__ZN4core5slice4sort6shared5pivot11median3_rec17h57130d0b0394e93cE>
1000031ec: aa0003f4    	mov	x20, x0
1000031f0: 8b170261    	add	x1, x19, x23
1000031f4: 8b180262    	add	x2, x19, x24
1000031f8: aa1303e0    	mov	x0, x19
1000031fc: aa1503e3    	mov	x3, x21
100003200: 97ffffe3    	bl	0x10000318c <__ZN4core5slice4sort6shared5pivot11median3_rec17h57130d0b0394e93cE>
100003204: aa0003f3    	mov	x19, x0
100003208: aa1603e0    	mov	x0, x22
10000320c: f9400808    	ldr	x8, [x0, #0x10]
100003210: f9400a89    	ldr	x9, [x20, #0x10]
100003214: eb09011f    	cmp	x8, x9
100003218: 1a9f27ea    	cset	w10, lo
10000321c: f9400a6b    	ldr	x11, [x19, #0x10]
100003220: eb0b011f    	cmp	x8, x11
100003224: 1a9f27e8    	cset	w8, lo
100003228: 4a080148    	eor	w8, w10, w8
10000322c: eb0b013f    	cmp	x9, x11
100003230: 1a9f27e9    	cset	w9, lo
100003234: 4a090149    	eor	w9, w10, w9
100003238: 7100013f    	cmp	w9, #0x0
10000323c: 9a941269    	csel	x9, x19, x20, ne
100003240: 7100011f    	cmp	w8, #0x0
100003244: 9a891000    	csel	x0, x0, x9, ne
100003248: a9437bfd    	ldp	x29, x30, [sp, #0x30]
10000324c: a9424ff4    	ldp	x20, x19, [sp, #0x20]
100003250: a94157f6    	ldp	x22, x21, [sp, #0x10]
100003254: a8c45ff8    	ldp	x24, x23, [sp], #0x40
100003258: d65f03c0    	ret

000000010000325c <__ZN4core5slice4sort6shared5pivot11median3_rec17h7d64daeb78275914E>:
10000325c: a9bc5ff8    	stp	x24, x23, [sp, #-0x40]!
100003260: a90157f6    	stp	x22, x21, [sp, #0x10]
100003264: a9024ff4    	stp	x20, x19, [sp, #0x20]
100003268: a9037bfd    	stp	x29, x30, [sp, #0x30]
10000326c: 9100c3fd    	add	x29, sp, #0x30
100003270: aa0203f3    	mov	x19, x2
100003274: aa0103f4    	mov	x20, x1
100003278: f100207f    	cmp	x3, #0x8
10000327c: 540002e3    	b.lo	0x1000032d8 <__ZN4core5slice4sort6shared5pivot11median3_rec17h7d64daeb78275914E+0x7c>
100003280: d343fc75    	lsr	x21, x3, #3
100003284: d379e2b7    	lsl	x23, x21, #7
100003288: d378dea8    	lsl	x8, x21, #8
10000328c: cb151518    	sub	x24, x8, x21, lsl #5
100003290: 8b170001    	add	x1, x0, x23
100003294: 8b180002    	add	x2, x0, x24
100003298: aa1503e3    	mov	x3, x21
10000329c: 97fffff0    	bl	0x10000325c <__ZN4core5slice4sort6shared5pivot11median3_rec17h7d64daeb78275914E>
1000032a0: aa0003f6    	mov	x22, x0
1000032a4: 8b170281    	add	x1, x20, x23
1000032a8: 8b180282    	add	x2, x20, x24
1000032ac: aa1403e0    	mov	x0, x20
1000032b0: aa1503e3    	mov	x3, x21
1000032b4: 97ffffea    	bl	0x10000325c <__ZN4core5slice4sort6shared5pivot11median3_rec17h7d64daeb78275914E>
1000032b8: aa0003f4    	mov	x20, x0
1000032bc: 8b170261    	add	x1, x19, x23
1000032c0: 8b180262    	add	x2, x19, x24
1000032c4: aa1303e0    	mov	x0, x19
1000032c8: aa1503e3    	mov	x3, x21
1000032cc: 97ffffe4    	bl	0x10000325c <__ZN4core5slice4sort6shared5pivot11median3_rec17h7d64daeb78275914E>
1000032d0: aa0003f3    	mov	x19, x0
1000032d4: aa1603e0    	mov	x0, x22
1000032d8: f9400008    	ldr	x8, [x0]
1000032dc: f9400289    	ldr	x9, [x20]
1000032e0: eb09011f    	cmp	x8, x9
1000032e4: 1a9f27ea    	cset	w10, lo
1000032e8: f940026b    	ldr	x11, [x19]
1000032ec: eb0b011f    	cmp	x8, x11
1000032f0: 1a9f27e8    	cset	w8, lo
1000032f4: 4a080148    	eor	w8, w10, w8
1000032f8: eb0b013f    	cmp	x9, x11
1000032fc: 1a9f27e9    	cset	w9, lo
100003300: 4a090149    	eor	w9, w10, w9
100003304: 7100013f    	cmp	w9, #0x0
100003308: 9a941269    	csel	x9, x19, x20, ne
10000330c: 7100011f    	cmp	w8, #0x0
100003310: 9a891000    	csel	x0, x0, x9, ne
100003314: a9437bfd    	ldp	x29, x30, [sp, #0x30]
100003318: a9424ff4    	ldp	x20, x19, [sp, #0x20]
10000331c: a94157f6    	ldp	x22, x21, [sp, #0x10]
100003320: a8c45ff8    	ldp	x24, x23, [sp], #0x40
100003324: d65f03c0    	ret

0000000100003328 <__ZN4core5slice4sort6shared5pivot11median3_rec17hb52eafd2454ea0a8E>:
100003328: a9bc5ff8    	stp	x24, x23, [sp, #-0x40]!
10000332c: a90157f6    	stp	x22, x21, [sp, #0x10]
100003330: a9024ff4    	stp	x20, x19, [sp, #0x20]
100003334: a9037bfd    	stp	x29, x30, [sp, #0x30]
100003338: 9100c3fd    	add	x29, sp, #0x30
10000333c: aa0203f3    	mov	x19, x2
100003340: aa0103f4    	mov	x20, x1
100003344: f100207f    	cmp	x3, #0x8
100003348: 54000303    	b.lo	0x1000033a8 <__ZN4core5slice4sort6shared5pivot11median3_rec17hb52eafd2454ea0a8E+0x80>
10000334c: d343fc75    	lsr	x21, x3, #3
100003350: 8b1506a8    	add	x8, x21, x21, lsl #1
100003354: d37be917    	lsl	x23, x8, #5
100003358: 52801508    	mov	w8, #0xa8               ; =168
10000335c: 9b087eb8    	mul	x24, x21, x8
100003360: 8b170001    	add	x1, x0, x23
100003364: 8b180002    	add	x2, x0, x24
100003368: aa1503e3    	mov	x3, x21
10000336c: 97ffffef    	bl	0x100003328 <__ZN4core5slice4sort6shared5pivot11median3_rec17hb52eafd2454ea0a8E>
100003370: aa0003f6    	mov	x22, x0
100003374: 8b170281    	add	x1, x20, x23
100003378: 8b180282    	add	x2, x20, x24
10000337c: aa1403e0    	mov	x0, x20
100003380: aa1503e3    	mov	x3, x21
100003384: 97ffffe9    	bl	0x100003328 <__ZN4core5slice4sort6shared5pivot11median3_rec17hb52eafd2454ea0a8E>
100003388: aa0003f4    	mov	x20, x0
10000338c: 8b170261    	add	x1, x19, x23
100003390: 8b180262    	add	x2, x19, x24
100003394: aa1303e0    	mov	x0, x19
100003398: aa1503e3    	mov	x3, x21
10000339c: 97ffffe3    	bl	0x100003328 <__ZN4core5slice4sort6shared5pivot11median3_rec17hb52eafd2454ea0a8E>
1000033a0: aa0003f3    	mov	x19, x0
1000033a4: aa1603e0    	mov	x0, x22
1000033a8: f9400008    	ldr	x8, [x0]
1000033ac: f9400289    	ldr	x9, [x20]
1000033b0: eb09011f    	cmp	x8, x9
1000033b4: 1a9f27ea    	cset	w10, lo
1000033b8: f940026b    	ldr	x11, [x19]
1000033bc: eb0b011f    	cmp	x8, x11
1000033c0: 1a9f27e8    	cset	w8, lo
1000033c4: 4a080148    	eor	w8, w10, w8
1000033c8: eb0b013f    	cmp	x9, x11
1000033cc: 1a9f27e9    	cset	w9, lo
1000033d0: 4a090149    	eor	w9, w10, w9
1000033d4: 7100013f    	cmp	w9, #0x0
1000033d8: 9a941269    	csel	x9, x19, x20, ne
1000033dc: 7100011f    	cmp	w8, #0x0
1000033e0: 9a891000    	csel	x0, x0, x9, ne
1000033e4: a9437bfd    	ldp	x29, x30, [sp, #0x30]
1000033e8: a9424ff4    	ldp	x20, x19, [sp, #0x20]
1000033ec: a94157f6    	ldp	x22, x21, [sp, #0x10]
1000033f0: a8c45ff8    	ldp	x24, x23, [sp], #0x40
1000033f4: d65f03c0    	ret

00000001000033f8 <__ZN4core5slice4sort6shared5pivot11median3_rec17hd55eabca7957e7b8E>:
1000033f8: a9bc5ff8    	stp	x24, x23, [sp, #-0x40]!
1000033fc: a90157f6    	stp	x22, x21, [sp, #0x10]
100003400: a9024ff4    	stp	x20, x19, [sp, #0x20]
100003404: a9037bfd    	stp	x29, x30, [sp, #0x30]
100003408: 9100c3fd    	add	x29, sp, #0x30
10000340c: aa0203f3    	mov	x19, x2
100003410: aa0103f4    	mov	x20, x1
100003414: f100207f    	cmp	x3, #0x8
100003418: 54000303    	b.lo	0x100003478 <__ZN4core5slice4sort6shared5pivot11median3_rec17hd55eabca7957e7b8E+0x80>
10000341c: d343fc75    	lsr	x21, x3, #3
100003420: 8b150aa8    	add	x8, x21, x21, lsl #2
100003424: d37be917    	lsl	x23, x8, #5
100003428: 52802308    	mov	w8, #0x118              ; =280
10000342c: 9b087eb8    	mul	x24, x21, x8
100003430: 8b170001    	add	x1, x0, x23
100003434: 8b180002    	add	x2, x0, x24
100003438: aa1503e3    	mov	x3, x21
10000343c: 97ffffef    	bl	0x1000033f8 <__ZN4core5slice4sort6shared5pivot11median3_rec17hd55eabca7957e7b8E>
100003440: aa0003f6    	mov	x22, x0
100003444: 8b170281    	add	x1, x20, x23
100003448: 8b180282    	add	x2, x20, x24
10000344c: aa1403e0    	mov	x0, x20
100003450: aa1503e3    	mov	x3, x21
100003454: 97ffffe9    	bl	0x1000033f8 <__ZN4core5slice4sort6shared5pivot11median3_rec17hd55eabca7957e7b8E>
100003458: aa0003f4    	mov	x20, x0
10000345c: 8b170261    	add	x1, x19, x23
100003460: 8b180262    	add	x2, x19, x24
100003464: aa1303e0    	mov	x0, x19
100003468: aa1503e3    	mov	x3, x21
10000346c: 97ffffe3    	bl	0x1000033f8 <__ZN4core5slice4sort6shared5pivot11median3_rec17hd55eabca7957e7b8E>
100003470: aa0003f3    	mov	x19, x0
100003474: aa1603e0    	mov	x0, x22
100003478: f9400808    	ldr	x8, [x0, #0x10]
10000347c: f9400a89    	ldr	x9, [x20, #0x10]
100003480: eb09011f    	cmp	x8, x9
100003484: 1a9f27ea    	cset	w10, lo
100003488: f9400a6b    	ldr	x11, [x19, #0x10]
10000348c: eb0b011f    	cmp	x8, x11
100003490: 1a9f27e8    	cset	w8, lo
100003494: 4a080148    	eor	w8, w10, w8
100003498: eb0b013f    	cmp	x9, x11
10000349c: 1a9f27e9    	cset	w9, lo
1000034a0: 4a090149    	eor	w9, w10, w9
1000034a4: 7100013f    	cmp	w9, #0x0
1000034a8: 9a941269    	csel	x9, x19, x20, ne
1000034ac: 7100011f    	cmp	w8, #0x0
1000034b0: 9a891000    	csel	x0, x0, x9, ne
1000034b4: a9437bfd    	ldp	x29, x30, [sp, #0x30]
1000034b8: a9424ff4    	ldp	x20, x19, [sp, #0x20]
1000034bc: a94157f6    	ldp	x22, x21, [sp, #0x10]
1000034c0: a8c45ff8    	ldp	x24, x23, [sp], #0x40
1000034c4: d65f03c0    	ret

00000001000034c8 <__ZN4core5slice4sort6shared5pivot11median3_rec17hef487cab737d7119E>:
1000034c8: a9bc5ff8    	stp	x24, x23, [sp, #-0x40]!
1000034cc: a90157f6    	stp	x22, x21, [sp, #0x10]
1000034d0: a9024ff4    	stp	x20, x19, [sp, #0x20]
1000034d4: a9037bfd    	stp	x29, x30, [sp, #0x30]
1000034d8: 9100c3fd    	add	x29, sp, #0x30
1000034dc: aa0203f3    	mov	x19, x2
1000034e0: aa0103f4    	mov	x20, x1
1000034e4: f100207f    	cmp	x3, #0x8
1000034e8: 540002e3    	b.lo	0x100003544 <__ZN4core5slice4sort6shared5pivot11median3_rec17hef487cab737d7119E+0x7c>
1000034ec: d343fc75    	lsr	x21, x3, #3
1000034f0: d379e2b7    	lsl	x23, x21, #7
1000034f4: d378dea8    	lsl	x8, x21, #8
1000034f8: cb151518    	sub	x24, x8, x21, lsl #5
1000034fc: 8b170001    	add	x1, x0, x23
100003500: 8b180002    	add	x2, x0, x24
100003504: aa1503e3    	mov	x3, x21
100003508: 97fffff0    	bl	0x1000034c8 <__ZN4core5slice4sort6shared5pivot11median3_rec17hef487cab737d7119E>
10000350c: aa0003f6    	mov	x22, x0
100003510: 8b170281    	add	x1, x20, x23
100003514: 8b180282    	add	x2, x20, x24
100003518: aa1403e0    	mov	x0, x20
10000351c: aa1503e3    	mov	x3, x21
100003520: 97ffffea    	bl	0x1000034c8 <__ZN4core5slice4sort6shared5pivot11median3_rec17hef487cab737d7119E>
100003524: aa0003f4    	mov	x20, x0
100003528: 8b170261    	add	x1, x19, x23
10000352c: 8b180262    	add	x2, x19, x24
100003530: aa1303e0    	mov	x0, x19
100003534: aa1503e3    	mov	x3, x21
100003538: 97ffffe4    	bl	0x1000034c8 <__ZN4core5slice4sort6shared5pivot11median3_rec17hef487cab737d7119E>
10000353c: aa0003f3    	mov	x19, x0
100003540: aa1603e0    	mov	x0, x22
100003544: f940000d    	ldr	x13, [x0]
100003548: f940080e    	ldr	x14, [x0, #0x10]
10000354c: f9400289    	ldr	x9, [x20]
100003550: f9400a88    	ldr	x8, [x20, #0x10]
100003554: eb0801df    	cmp	x14, x8
100003558: 54000102    	b.hs	0x100003578 <__ZN4core5slice4sort6shared5pivot11median3_rec17hef487cab737d7119E+0xb0>
10000355c: f940026a    	ldr	x10, [x19]
100003560: f9400a6b    	ldr	x11, [x19, #0x10]
100003564: eb0b01df    	cmp	x14, x11
100003568: 54000163    	b.lo	0x100003594 <__ZN4core5slice4sort6shared5pivot11median3_rec17hef487cab737d7119E+0xcc>
10000356c: fa4a91a2    	ccmp	x13, x10, #0x2, ls
100003570: 54000123    	b.lo	0x100003594 <__ZN4core5slice4sort6shared5pivot11median3_rec17hef487cab737d7119E+0xcc>
100003574: 14000012    	b	0x1000035bc <__ZN4core5slice4sort6shared5pivot11median3_rec17hef487cab737d7119E+0xf4>
100003578: fa4991a2    	ccmp	x13, x9, #0x2, ls
10000357c: 1a9f27ec    	cset	w12, lo
100003580: f940026a    	ldr	x10, [x19]
100003584: f9400a6b    	ldr	x11, [x19, #0x10]
100003588: eb0b01df    	cmp	x14, x11
10000358c: 54000222    	b.hs	0x1000035d0 <__ZN4core5slice4sort6shared5pivot11median3_rec17hef487cab737d7119E+0x108>
100003590: 3600016c    	tbz	w12, #0x0, 0x1000035bc <__ZN4core5slice4sort6shared5pivot11median3_rec17hef487cab737d7119E+0xf4>
100003594: 5280002c    	mov	w12, #0x1               ; =1
100003598: 5280002d    	mov	w13, #0x1               ; =1
10000359c: eb0b011f    	cmp	x8, x11
1000035a0: fa4a9122    	ccmp	x9, x10, #0x2, ls
1000035a4: 1a9f27e9    	cset	w9, lo
1000035a8: eb0b011f    	cmp	x8, x11
1000035ac: 1a8931a8    	csel	w8, w13, w9, lo
1000035b0: 4a080188    	eor	w8, w12, w8
1000035b4: 7100011f    	cmp	w8, #0x0
1000035b8: 9a941260    	csel	x0, x19, x20, ne
1000035bc: a9437bfd    	ldp	x29, x30, [sp, #0x30]
1000035c0: a9424ff4    	ldp	x20, x19, [sp, #0x20]
1000035c4: a94157f6    	ldp	x22, x21, [sp, #0x10]
1000035c8: a8c45ff8    	ldp	x24, x23, [sp], #0x40
1000035cc: d65f03c0    	ret
1000035d0: fa4a91a2    	ccmp	x13, x10, #0x2, ls
1000035d4: 1a9f27ed    	cset	w13, lo
1000035d8: 6b0d019f    	cmp	w12, w13
1000035dc: 54ffff01    	b.ne	0x1000035bc <__ZN4core5slice4sort6shared5pivot11median3_rec17hef487cab737d7119E+0xf4>
1000035e0: 17ffffee    	b	0x100003598 <__ZN4core5slice4sort6shared5pivot11median3_rec17hef487cab737d7119E+0xd0>

00000001000035e4 <__ZN4core5slice4sort6shared9smallsort12sort4_stable17h6c045a2dd3d2cc75E>:
1000035e4: a9bb67fa    	stp	x26, x25, [sp, #-0x50]!
1000035e8: a9015ff8    	stp	x24, x23, [sp, #0x10]
1000035ec: a90257f6    	stp	x22, x21, [sp, #0x20]
1000035f0: a9034ff4    	stp	x20, x19, [sp, #0x30]
1000035f4: a9047bfd    	stp	x29, x30, [sp, #0x40]
1000035f8: 910103fd    	add	x29, sp, #0x40
1000035fc: aa0103f3    	mov	x19, x1
100003600: aa0003f4    	mov	x20, x0
100003604: f9400c00    	ldr	x0, [x0, #0x18]
100003608: f9401288    	ldr	x8, [x20, #0x20]
10000360c: a9402681    	ldp	x1, x9, [x20]
100003610: eb090115    	subs	x21, x8, x9
100003614: 9a893102    	csel	x2, x8, x9, lo
100003618: 9400cb12    	bl	0x100036260 <dyld_stub_binder+0x100036260>
10000361c: 93407c08    	sxtw	x8, w0
100003620: 7100001f    	cmp	w0, #0x0
100003624: 9a8802b5    	csel	x21, x21, x8, eq
100003628: a944a280    	ldp	x0, x8, [x20, #0x48]
10000362c: a9432681    	ldp	x1, x9, [x20, #0x30]
100003630: eb090116    	subs	x22, x8, x9
100003634: 9a893102    	csel	x2, x8, x9, lo
100003638: 9400cb0a    	bl	0x100036260 <dyld_stub_binder+0x100036260>
10000363c: 93407c08    	sxtw	x8, w0
100003640: 7100001f    	cmp	w0, #0x0
100003644: 9a8802c8    	csel	x8, x22, x8, eq
100003648: d37ffea9    	lsr	x9, x21, #63
10000364c: 5280030a    	mov	w10, #0x18              ; =24
100003650: 9baa5136    	umaddl	x22, w9, w10, x20
100003654: aa3503e9    	mvn	x9, x21
100003658: d37ffd29    	lsr	x9, x9, #63
10000365c: 9baa5135    	umaddl	x21, w9, w10, x20
100003660: 52800609    	mov	w9, #0x30               ; =48
100003664: 5280090a    	mov	w10, #0x48              ; =72
100003668: f100011f    	cmp	x8, #0x0
10000366c: 9a89b148    	csel	x8, x10, x9, lt
100003670: 8b080297    	add	x23, x20, x8
100003674: 9a8ab128    	csel	x8, x9, x10, lt
100003678: 8b080294    	add	x20, x20, x8
10000367c: a94022e0    	ldp	x0, x8, [x23]
100003680: a94026c1    	ldp	x1, x9, [x22]
100003684: eb090118    	subs	x24, x8, x9
100003688: 9a893102    	csel	x2, x8, x9, lo
10000368c: 9400caf5    	bl	0x100036260 <dyld_stub_binder+0x100036260>
100003690: 93407c08    	sxtw	x8, w0
100003694: 7100001f    	cmp	w0, #0x0
100003698: 9a880318    	csel	x24, x24, x8, eq
10000369c: a9402280    	ldp	x0, x8, [x20]
1000036a0: a94026a1    	ldp	x1, x9, [x21]
1000036a4: eb090119    	subs	x25, x8, x9
1000036a8: 9a893102    	csel	x2, x8, x9, lo
1000036ac: 9400caed    	bl	0x100036260 <dyld_stub_binder+0x100036260>
1000036b0: 93407c08    	sxtw	x8, w0
1000036b4: 7100001f    	cmp	w0, #0x0
1000036b8: 9a880328    	csel	x8, x25, x8, eq
1000036bc: f100011f    	cmp	x8, #0x0
1000036c0: 9a95b2e9    	csel	x9, x23, x21, lt
1000036c4: f100031f    	cmp	x24, #0x0
1000036c8: 9a96b2f8    	csel	x24, x23, x22, lt
1000036cc: 9a89b2d6    	csel	x22, x22, x9, lt
1000036d0: 9a97b2a9    	csel	x9, x21, x23, lt
1000036d4: f100011f    	cmp	x8, #0x0
1000036d8: 9a94b2b5    	csel	x21, x21, x20, lt
1000036dc: 9a89b294    	csel	x20, x20, x9, lt
1000036e0: a9402280    	ldp	x0, x8, [x20]
1000036e4: a94026c1    	ldp	x1, x9, [x22]
1000036e8: eb090117    	subs	x23, x8, x9
1000036ec: 9a893102    	csel	x2, x8, x9, lo
1000036f0: 9400cadc    	bl	0x100036260 <dyld_stub_binder+0x100036260>
1000036f4: 93407c08    	sxtw	x8, w0
1000036f8: 7100001f    	cmp	w0, #0x0
1000036fc: 9a8802e8    	csel	x8, x23, x8, eq
100003700: f100011f    	cmp	x8, #0x0
100003704: 9a96b288    	csel	x8, x20, x22, lt
100003708: 9a94b2c9    	csel	x9, x22, x20, lt
10000370c: 3dc00300    	ldr	q0, [x24]
100003710: f9400b0a    	ldr	x10, [x24, #0x10]
100003714: f9000a6a    	str	x10, [x19, #0x10]
100003718: 3d800260    	str	q0, [x19]
10000371c: f940090a    	ldr	x10, [x8, #0x10]
100003720: 3dc00100    	ldr	q0, [x8]
100003724: 3c818260    	stur	q0, [x19, #0x18]
100003728: f900166a    	str	x10, [x19, #0x28]
10000372c: f9400928    	ldr	x8, [x9, #0x10]
100003730: 3dc00120    	ldr	q0, [x9]
100003734: 3d800e60    	str	q0, [x19, #0x30]
100003738: f9002268    	str	x8, [x19, #0x40]
10000373c: f9400aa8    	ldr	x8, [x21, #0x10]
100003740: 3dc002a0    	ldr	q0, [x21]
100003744: 3c848260    	stur	q0, [x19, #0x48]
100003748: f9002e68    	str	x8, [x19, #0x58]
10000374c: a9447bfd    	ldp	x29, x30, [sp, #0x40]
100003750: a9434ff4    	ldp	x20, x19, [sp, #0x30]
100003754: a94257f6    	ldp	x22, x21, [sp, #0x20]
100003758: a9415ff8    	ldp	x24, x23, [sp, #0x10]
10000375c: a8c567fa    	ldp	x26, x25, [sp], #0x50
100003760: d65f03c0    	ret

0000000100003764 <__ZN4core5slice4sort6shared9smallsort12sort4_stable17hd097c0d8d854db27E>:
100003764: a9bf7bfd    	stp	x29, x30, [sp, #-0x10]!
100003768: 910003fd    	mov	x29, sp
10000376c: f9401808    	ldr	x8, [x0, #0x30]
100003770: f9400809    	ldr	x9, [x0, #0x10]
100003774: eb09011f    	cmp	x8, x9
100003778: 54000262    	b.hs	0x1000037c4 <__ZN4core5slice4sort6shared9smallsort12sort4_stable17hd097c0d8d854db27E+0x60>
10000377c: 52800029    	mov	w9, #0x1                ; =1
100003780: f9403808    	ldr	x8, [x0, #0x70]
100003784: f940280a    	ldr	x10, [x0, #0x50]
100003788: eb0a011f    	cmp	x8, x10
10000378c: 540002e3    	b.lo	0x1000037e8 <__ZN4core5slice4sort6shared9smallsort12sort4_stable17hd097c0d8d854db27E+0x84>
100003790: aa0003eb    	mov	x11, x0
100003794: f8440d6c    	ldr	x12, [x11, #0x40]!
100003798: aa0b03ed    	mov	x13, x11
10000379c: f8420dae    	ldr	x14, [x13, #0x20]!
1000037a0: eb0a011f    	cmp	x8, x10
1000037a4: 1a9f87e8    	cset	w8, ls
1000037a8: eb0c01df    	cmp	x14, x12
1000037ac: 1a9f27ea    	cset	w10, lo
1000037b0: 6a0a011f    	tst	w8, w10
1000037b4: 9a8b11aa    	csel	x10, x13, x11, ne
1000037b8: 52800048    	mov	w8, #0x2                ; =2
1000037bc: 9a88150b    	cinc	x11, x8, eq
1000037c0: 1400000c    	b	0x1000037f0 <__ZN4core5slice4sort6shared9smallsort12sort4_stable17hd097c0d8d854db27E+0x8c>
1000037c4: f940000a    	ldr	x10, [x0]
1000037c8: f940100b    	ldr	x11, [x0, #0x20]
1000037cc: eb09011f    	cmp	x8, x9
1000037d0: fa4a9162    	ccmp	x11, x10, #0x2, ls
1000037d4: 1a9f27e9    	cset	w9, lo
1000037d8: f9403808    	ldr	x8, [x0, #0x70]
1000037dc: f940280a    	ldr	x10, [x0, #0x50]
1000037e0: eb0a011f    	cmp	x8, x10
1000037e4: 54fffd62    	b.hs	0x100003790 <__ZN4core5slice4sort6shared9smallsort12sort4_stable17hd097c0d8d854db27E+0x2c>
1000037e8: 9101800a    	add	x10, x0, #0x60
1000037ec: 5280004b    	mov	w11, #0x2               ; =2
1000037f0: 52000128    	eor	w8, w9, #0x1
1000037f4: 8b081408    	add	x8, x0, x8, lsl #5
1000037f8: 2a0903e9    	mov	w9, w9
1000037fc: 8b09140c    	add	x12, x0, x9, lsl #5
100003800: 8b0b1409    	add	x9, x0, x11, lsl #5
100003804: f940094b    	ldr	x11, [x10, #0x10]
100003808: f940098d    	ldr	x13, [x12, #0x10]
10000380c: eb0d017f    	cmp	x11, x13
100003810: 54000322    	b.hs	0x100003874 <__ZN4core5slice4sort6shared9smallsort12sort4_stable17hd097c0d8d854db27E+0x110>
100003814: 5280002e    	mov	w14, #0x1               ; =1
100003818: f940092d    	ldr	x13, [x9, #0x10]
10000381c: f940090f    	ldr	x15, [x8, #0x10]
100003820: eb0f01bf    	cmp	x13, x15
100003824: 540003a3    	b.lo	0x100003898 <__ZN4core5slice4sort6shared9smallsort12sort4_stable17hd097c0d8d854db27E+0x134>
100003828: f940010b    	ldr	x11, [x8]
10000382c: f9400130    	ldr	x16, [x9]
100003830: eb0b021f    	cmp	x16, x11
100003834: 1a9f27f0    	cset	w16, lo
100003838: 710001df    	cmp	w14, #0x0
10000383c: 9a8c114b    	csel	x11, x10, x12, ne
100003840: eb0f01bf    	cmp	x13, x15
100003844: 7a409a04    	ccmp	w16, #0x0, #0x4, ls
100003848: 540005c1    	b.ne	0x100003900 <__ZN4core5slice4sort6shared9smallsort12sort4_stable17hd097c0d8d854db27E+0x19c>
10000384c: 710001df    	cmp	w14, #0x0
100003850: 9a88118c    	csel	x12, x12, x8, ne
100003854: 9a8a110a    	csel	x10, x8, x10, ne
100003858: f940094d    	ldr	x13, [x10, #0x10]
10000385c: aa0903e8    	mov	x8, x9
100003860: aa0a03e9    	mov	x9, x10
100003864: f940098a    	ldr	x10, [x12, #0x10]
100003868: eb0a01bf    	cmp	x13, x10
10000386c: 54000222    	b.hs	0x1000038b0 <__ZN4core5slice4sort6shared9smallsort12sort4_stable17hd097c0d8d854db27E+0x14c>
100003870: 1400001a    	b	0x1000038d8 <__ZN4core5slice4sort6shared9smallsort12sort4_stable17hd097c0d8d854db27E+0x174>
100003874: f940018e    	ldr	x14, [x12]
100003878: f940014f    	ldr	x15, [x10]
10000387c: eb0d017f    	cmp	x11, x13
100003880: fa4e91e2    	ccmp	x15, x14, #0x2, ls
100003884: 1a9f27ee    	cset	w14, lo
100003888: f940092d    	ldr	x13, [x9, #0x10]
10000388c: f940090f    	ldr	x15, [x8, #0x10]
100003890: eb0f01bf    	cmp	x13, x15
100003894: 54fffca2    	b.hs	0x100003828 <__ZN4core5slice4sort6shared9smallsort12sort4_stable17hd097c0d8d854db27E+0xc4>
100003898: 710001df    	cmp	w14, #0x0
10000389c: 9a8c114b    	csel	x11, x10, x12, ne
1000038a0: 9a8a118c    	csel	x12, x12, x10, ne
1000038a4: f940098a    	ldr	x10, [x12, #0x10]
1000038a8: eb0a01bf    	cmp	x13, x10
1000038ac: 54000163    	b.lo	0x1000038d8 <__ZN4core5slice4sort6shared9smallsort12sort4_stable17hd097c0d8d854db27E+0x174>
1000038b0: f940018e    	ldr	x14, [x12]
1000038b4: f940012f    	ldr	x15, [x9]
1000038b8: eb0a01bf    	cmp	x13, x10
1000038bc: 1a9f87ea    	cset	w10, ls
1000038c0: eb0e01ff    	cmp	x15, x14
1000038c4: 1a9f27ed    	cset	w13, lo
1000038c8: 6a0d015f    	tst	w10, w13
1000038cc: 9a8c112a    	csel	x10, x9, x12, ne
1000038d0: 9a89118c    	csel	x12, x12, x9, ne
1000038d4: aa0a03e9    	mov	x9, x10
1000038d8: ad400560    	ldp	q0, q1, [x11]
1000038dc: ad000420    	stp	q0, q1, [x1]
1000038e0: ad400520    	ldp	q0, q1, [x9]
1000038e4: ad010420    	stp	q0, q1, [x1, #0x20]
1000038e8: ad400580    	ldp	q0, q1, [x12]
1000038ec: ad020420    	stp	q0, q1, [x1, #0x40]
1000038f0: ad400500    	ldp	q0, q1, [x8]
1000038f4: ad030420    	stp	q0, q1, [x1, #0x60]
1000038f8: a8c17bfd    	ldp	x29, x30, [sp], #0x10
1000038fc: d65f03c0    	ret
100003900: 710001df    	cmp	w14, #0x0
100003904: 9a8a118c    	csel	x12, x12, x10, ne
100003908: f940098a    	ldr	x10, [x12, #0x10]
10000390c: eb0a01bf    	cmp	x13, x10
100003910: 54fffd02    	b.hs	0x1000038b0 <__ZN4core5slice4sort6shared9smallsort12sort4_stable17hd097c0d8d854db27E+0x14c>
100003914: 17fffff1    	b	0x1000038d8 <__ZN4core5slice4sort6shared9smallsort12sort4_stable17hd097c0d8d854db27E+0x174>

0000000100003918 <__ZN4core5slice4sort6shared9smallsort12sort8_stable17hf478b6ba5da5b2eeE>:
100003918: f9400808    	ldr	x8, [x0, #0x10]
10000391c: f9400009    	ldr	x9, [x0]
100003920: eb09011f    	cmp	x8, x9
100003924: 1a9f37e8    	cset	w8, hs
100003928: 1a9f27e9    	cset	w9, lo
10000392c: f940180a    	ldr	x10, [x0, #0x30]
100003930: f940100b    	ldr	x11, [x0, #0x20]
100003934: 8b295009    	add	x9, x0, w9, uxtw #4
100003938: 8b285008    	add	x8, x0, w8, uxtw #4
10000393c: 5280040c    	mov	w12, #0x20              ; =32
100003940: 5280060d    	mov	w13, #0x30              ; =48
100003944: eb0b015f    	cmp	x10, x11
100003948: 9a8c31aa    	csel	x10, x13, x12, lo
10000394c: 8b0a000a    	add	x10, x0, x10
100003950: 9a8d318b    	csel	x11, x12, x13, lo
100003954: 8b0b000b    	add	x11, x0, x11
100003958: f940014e    	ldr	x14, [x10]
10000395c: f940012f    	ldr	x15, [x9]
100003960: f9400170    	ldr	x16, [x11]
100003964: f9400111    	ldr	x17, [x8]
100003968: eb11021f    	cmp	x16, x17
10000396c: 9a883143    	csel	x3, x10, x8, lo
100003970: eb0f01df    	cmp	x14, x15
100003974: 9a89314e    	csel	x14, x10, x9, lo
100003978: 9a833129    	csel	x9, x9, x3, lo
10000397c: 9a8a310a    	csel	x10, x8, x10, lo
100003980: eb11021f    	cmp	x16, x17
100003984: 9a8b3108    	csel	x8, x8, x11, lo
100003988: 9a8a316a    	csel	x10, x11, x10, lo
10000398c: f940014b    	ldr	x11, [x10]
100003990: f940012f    	ldr	x15, [x9]
100003994: eb0f017f    	cmp	x11, x15
100003998: 9a89314b    	csel	x11, x10, x9, lo
10000399c: 9a8a3129    	csel	x9, x9, x10, lo
1000039a0: 3dc001c0    	ldr	q0, [x14]
1000039a4: 3d800040    	str	q0, [x2]
1000039a8: 3dc00160    	ldr	q0, [x11]
1000039ac: 3d800440    	str	q0, [x2, #0x10]
1000039b0: 3dc00120    	ldr	q0, [x9]
1000039b4: 3d800840    	str	q0, [x2, #0x20]
1000039b8: 3dc00100    	ldr	q0, [x8]
1000039bc: 3d800c40    	str	q0, [x2, #0x30]
1000039c0: f8440c08    	ldr	x8, [x0, #0x40]!
1000039c4: f9400809    	ldr	x9, [x0, #0x10]
1000039c8: eb08013f    	cmp	x9, x8
1000039cc: 1a9f37e8    	cset	w8, hs
1000039d0: 1a9f27e9    	cset	w9, lo
1000039d4: f940180a    	ldr	x10, [x0, #0x30]
1000039d8: f940100b    	ldr	x11, [x0, #0x20]
1000039dc: 8b295009    	add	x9, x0, w9, uxtw #4
1000039e0: 8b285008    	add	x8, x0, w8, uxtw #4
1000039e4: eb0b015f    	cmp	x10, x11
1000039e8: 9a8c31aa    	csel	x10, x13, x12, lo
1000039ec: 8b0a000a    	add	x10, x0, x10
1000039f0: 9a8d318b    	csel	x11, x12, x13, lo
1000039f4: 8b0b000b    	add	x11, x0, x11
1000039f8: f940014c    	ldr	x12, [x10]
1000039fc: f940012d    	ldr	x13, [x9]
100003a00: f940016e    	ldr	x14, [x11]
100003a04: f940010f    	ldr	x15, [x8]
100003a08: eb0f01df    	cmp	x14, x15
100003a0c: 9a883150    	csel	x16, x10, x8, lo
100003a10: eb0d019f    	cmp	x12, x13
100003a14: 9a89314c    	csel	x12, x10, x9, lo
100003a18: 9a903129    	csel	x9, x9, x16, lo
100003a1c: 9a8a310a    	csel	x10, x8, x10, lo
100003a20: 9100c04d    	add	x13, x2, #0x30
100003a24: 91010050    	add	x16, x2, #0x40
100003a28: eb0f01df    	cmp	x14, x15
100003a2c: 9a8b3108    	csel	x8, x8, x11, lo
100003a30: 9a8a316a    	csel	x10, x11, x10, lo
100003a34: f940014b    	ldr	x11, [x10]
100003a38: f940012e    	ldr	x14, [x9]
100003a3c: eb0e017f    	cmp	x11, x14
100003a40: 9a89314b    	csel	x11, x10, x9, lo
100003a44: 9a8a3129    	csel	x9, x9, x10, lo
100003a48: 3dc00180    	ldr	q0, [x12]
100003a4c: 3d801040    	str	q0, [x2, #0x40]
100003a50: 3dc00160    	ldr	q0, [x11]
100003a54: 3d801440    	str	q0, [x2, #0x50]
100003a58: 3dc00120    	ldr	q0, [x9]
100003a5c: 3d801840    	str	q0, [x2, #0x60]
100003a60: 9101c049    	add	x9, x2, #0x70
100003a64: 3dc00100    	ldr	q0, [x8]
100003a68: 3d801c40    	str	q0, [x2, #0x70]
100003a6c: f9402048    	ldr	x8, [x2, #0x40]
100003a70: f940004a    	ldr	x10, [x2]
100003a74: eb0a011f    	cmp	x8, x10
100003a78: 9a823208    	csel	x8, x16, x2, lo
100003a7c: 1a9f37ea    	cset	w10, hs
100003a80: 1a9f27eb    	cset	w11, lo
100003a84: 3dc00100    	ldr	q0, [x8]
100003a88: 3d800020    	str	q0, [x1]
100003a8c: 8b2b5208    	add	x8, x16, w11, uxtw #4
100003a90: 8b2a504a    	add	x10, x2, w10, uxtw #4
100003a94: f940384b    	ldr	x11, [x2, #0x70]
100003a98: f940184c    	ldr	x12, [x2, #0x30]
100003a9c: eb0c017f    	cmp	x11, x12
100003aa0: 9a8931ab    	csel	x11, x13, x9, lo
100003aa4: 3dc00160    	ldr	q0, [x11]
100003aa8: 3d801c20    	str	q0, [x1, #0x70]
100003aac: da9f33eb    	csetm	x11, hs
100003ab0: 8b0b1129    	add	x9, x9, x11, lsl #4
100003ab4: da9f23eb    	csetm	x11, lo
100003ab8: 8b0b11ab    	add	x11, x13, x11, lsl #4
100003abc: f940010c    	ldr	x12, [x8]
100003ac0: f940014d    	ldr	x13, [x10]
100003ac4: eb0d019f    	cmp	x12, x13
100003ac8: 9a8a310c    	csel	x12, x8, x10, lo
100003acc: 1a9f37ed    	cset	w13, hs
100003ad0: 1a9f27ee    	cset	w14, lo
100003ad4: 3dc00180    	ldr	q0, [x12]
100003ad8: 3d800420    	str	q0, [x1, #0x10]
100003adc: 8b2e5108    	add	x8, x8, w14, uxtw #4
100003ae0: 8b2d514a    	add	x10, x10, w13, uxtw #4
100003ae4: f940012c    	ldr	x12, [x9]
100003ae8: f940016d    	ldr	x13, [x11]
100003aec: eb0d019f    	cmp	x12, x13
100003af0: 9a89316c    	csel	x12, x11, x9, lo
100003af4: 3dc00180    	ldr	q0, [x12]
100003af8: 3d801820    	str	q0, [x1, #0x60]
100003afc: da9f33ec    	csetm	x12, hs
100003b00: 8b0c1129    	add	x9, x9, x12, lsl #4
100003b04: da9f23ec    	csetm	x12, lo
100003b08: 8b0c116b    	add	x11, x11, x12, lsl #4
100003b0c: f940010c    	ldr	x12, [x8]
100003b10: f940014d    	ldr	x13, [x10]
100003b14: eb0d019f    	cmp	x12, x13
100003b18: 9a8a310c    	csel	x12, x8, x10, lo
100003b1c: 1a9f37ed    	cset	w13, hs
100003b20: 1a9f27ee    	cset	w14, lo
100003b24: 3dc00180    	ldr	q0, [x12]
100003b28: 3d800820    	str	q0, [x1, #0x20]
100003b2c: 8b2e5108    	add	x8, x8, w14, uxtw #4
100003b30: 8b2d514a    	add	x10, x10, w13, uxtw #4
100003b34: f940012c    	ldr	x12, [x9]
100003b38: f940016d    	ldr	x13, [x11]
100003b3c: eb0d019f    	cmp	x12, x13
100003b40: 9a89316c    	csel	x12, x11, x9, lo
100003b44: 3dc00180    	ldr	q0, [x12]
100003b48: 3d801420    	str	q0, [x1, #0x50]
100003b4c: da9f33ec    	csetm	x12, hs
100003b50: 8b0c1129    	add	x9, x9, x12, lsl #4
100003b54: da9f23ec    	csetm	x12, lo
100003b58: 8b0c116b    	add	x11, x11, x12, lsl #4
100003b5c: f940010c    	ldr	x12, [x8]
100003b60: f940014d    	ldr	x13, [x10]
100003b64: eb0d019f    	cmp	x12, x13
100003b68: 9a8a310c    	csel	x12, x8, x10, lo
100003b6c: 1a9f37ed    	cset	w13, hs
100003b70: 1a9f27ee    	cset	w14, lo
100003b74: 3dc00180    	ldr	q0, [x12]
100003b78: 3d800c20    	str	q0, [x1, #0x30]
100003b7c: 8b2e5108    	add	x8, x8, w14, uxtw #4
100003b80: 8b2d514a    	add	x10, x10, w13, uxtw #4
100003b84: f940012c    	ldr	x12, [x9]
100003b88: f940016d    	ldr	x13, [x11]
100003b8c: eb0d019f    	cmp	x12, x13
100003b90: 9a89316c    	csel	x12, x11, x9, lo
100003b94: 3dc00180    	ldr	q0, [x12]
100003b98: 3d801020    	str	q0, [x1, #0x40]
100003b9c: da9f33ec    	csetm	x12, hs
100003ba0: 8b0c1129    	add	x9, x9, x12, lsl #4
100003ba4: da9f23ec    	csetm	x12, lo
100003ba8: 8b0c116b    	add	x11, x11, x12, lsl #4
100003bac: 9100416b    	add	x11, x11, #0x10
100003bb0: 91004129    	add	x9, x9, #0x10
100003bb4: eb0b015f    	cmp	x10, x11
100003bb8: fa490100    	ccmp	x8, x9, #0x0, eq
100003bbc: 54000041    	b.ne	0x100003bc4 <__ZN4core5slice4sort6shared9smallsort12sort8_stable17hf478b6ba5da5b2eeE+0x2ac>
100003bc0: d65f03c0    	ret
100003bc4: a9bf7bfd    	stp	x29, x30, [sp, #-0x10]!
100003bc8: 910003fd    	mov	x29, sp
100003bcc: 9400c8fe    	bl	0x100035fc4 <__ZN4core5slice4sort6shared9smallsort22panic_on_ord_violation17hde5e51e040c58445E>

0000000100003bd0 <__ZN4core5slice4sort6shared9smallsort18small_sort_general17h6036d4586f05dcacE>:
100003bd0: a9bd57f6    	stp	x22, x21, [sp, #-0x30]!
100003bd4: a9014ff4    	stp	x20, x19, [sp, #0x10]
100003bd8: a9027bfd    	stp	x29, x30, [sp, #0x20]
100003bdc: 910083fd    	add	x29, sp, #0x20
100003be0: d11203ff    	sub	sp, sp, #0x480
100003be4: f90003ff    	str	xzr, [sp]
100003be8: f100083f    	cmp	x1, #0x2
100003bec: 540021c3    	b.lo	0x100004024 <__ZN4core5slice4sort6shared9smallsort18small_sort_general17h6036d4586f05dcacE+0x454>
100003bf0: aa0103f4    	mov	x20, x1
100003bf4: aa0003f3    	mov	x19, x0
100003bf8: d341fc28    	lsr	x8, x1, #1
100003bfc: 8b080509    	add	x9, x8, x8, lsl #1
100003c00: f100203f    	cmp	x1, #0x8
100003c04: 54000dc3    	b.lo	0x100003dbc <__ZN4core5slice4sort6shared9smallsort18small_sort_general17h6036d4586f05dcacE+0x1ec>
100003c08: f940166a    	ldr	x10, [x19, #0x28]
100003c0c: f9400a6b    	ldr	x11, [x19, #0x10]
100003c10: eb0b015f    	cmp	x10, x11
100003c14: 1a9f37ea    	cset	w10, hs
100003c18: 1a9f27eb    	cset	w11, lo
100003c1c: f9402e6c    	ldr	x12, [x19, #0x58]
100003c20: f940226d    	ldr	x13, [x19, #0x40]
100003c24: 5280030e    	mov	w14, #0x18              ; =24
100003c28: 9bae4d6b    	umaddl	x11, w11, w14, x19
100003c2c: 9bae4d4a    	umaddl	x10, w10, w14, x19
100003c30: 5280060f    	mov	w15, #0x30              ; =48
100003c34: 52800910    	mov	w16, #0x48              ; =72
100003c38: eb0d019f    	cmp	x12, x13
100003c3c: 9a8f320c    	csel	x12, x16, x15, lo
100003c40: 8b0c026c    	add	x12, x19, x12
100003c44: 9a9031ed    	csel	x13, x15, x16, lo
100003c48: 8b0d026d    	add	x13, x19, x13
100003c4c: f9400991    	ldr	x17, [x12, #0x10]
100003c50: f9400960    	ldr	x0, [x11, #0x10]
100003c54: f94009a1    	ldr	x1, [x13, #0x10]
100003c58: f9400942    	ldr	x2, [x10, #0x10]
100003c5c: eb02003f    	cmp	x1, x2
100003c60: 9a8a3183    	csel	x3, x12, x10, lo
100003c64: eb00023f    	cmp	x17, x0
100003c68: 9a8b3191    	csel	x17, x12, x11, lo
100003c6c: 9a83316b    	csel	x11, x11, x3, lo
100003c70: 9a8c314c    	csel	x12, x10, x12, lo
100003c74: eb02003f    	cmp	x1, x2
100003c78: 9a8d314a    	csel	x10, x10, x13, lo
100003c7c: 9a8c31ac    	csel	x12, x13, x12, lo
100003c80: f940098d    	ldr	x13, [x12, #0x10]
100003c84: f9400960    	ldr	x0, [x11, #0x10]
100003c88: eb0001bf    	cmp	x13, x0
100003c8c: 9a8b318d    	csel	x13, x12, x11, lo
100003c90: 9a8c316b    	csel	x11, x11, x12, lo
100003c94: 3dc00220    	ldr	q0, [x17]
100003c98: 3d8003e0    	str	q0, [sp]
100003c9c: f9400a2c    	ldr	x12, [x17, #0x10]
100003ca0: f9000bec    	str	x12, [sp, #0x10]
100003ca4: f94009ac    	ldr	x12, [x13, #0x10]
100003ca8: f90017ec    	str	x12, [sp, #0x28]
100003cac: 3dc001a0    	ldr	q0, [x13]
100003cb0: 3c8183e0    	stur	q0, [sp, #0x18]
100003cb4: d37df12c    	lsl	x12, x9, #3
100003cb8: 8b0c026d    	add	x13, x19, x12
100003cbc: f94015b1    	ldr	x17, [x13, #0x28]
100003cc0: f94009a0    	ldr	x0, [x13, #0x10]
100003cc4: eb00023f    	cmp	x17, x0
100003cc8: 1a9f37f1    	cset	w17, hs
100003ccc: 1a9f27e0    	cset	w0, lo
100003cd0: f9402da1    	ldr	x1, [x13, #0x58]
100003cd4: f94021a2    	ldr	x2, [x13, #0x40]
100003cd8: eb02003f    	cmp	x1, x2
100003cdc: 9a8f3201    	csel	x1, x16, x15, lo
100003ce0: 8b0101a1    	add	x1, x13, x1
100003ce4: 9bae3400    	umaddl	x0, w0, w14, x13
100003ce8: 9bae362e    	umaddl	x14, w17, w14, x13
100003cec: 9a9031ef    	csel	x15, x15, x16, lo
100003cf0: 8b0f01ad    	add	x13, x13, x15
100003cf4: f940082f    	ldr	x15, [x1, #0x10]
100003cf8: f9400810    	ldr	x16, [x0, #0x10]
100003cfc: f94009b1    	ldr	x17, [x13, #0x10]
100003d00: f94009c2    	ldr	x2, [x14, #0x10]
100003d04: eb02023f    	cmp	x17, x2
100003d08: 9a8e3023    	csel	x3, x1, x14, lo
100003d0c: eb1001ff    	cmp	x15, x16
100003d10: 9a80302f    	csel	x15, x1, x0, lo
100003d14: 9a833010    	csel	x16, x0, x3, lo
100003d18: 9a8131c0    	csel	x0, x14, x1, lo
100003d1c: f9400961    	ldr	x1, [x11, #0x10]
100003d20: f90023e1    	str	x1, [sp, #0x40]
100003d24: 3dc00160    	ldr	q0, [x11]
100003d28: 3d800fe0    	str	q0, [sp, #0x30]
100003d2c: 3dc00140    	ldr	q0, [x10]
100003d30: 3c8483e0    	stur	q0, [sp, #0x48]
100003d34: f940094a    	ldr	x10, [x10, #0x10]
100003d38: f9002fea    	str	x10, [sp, #0x58]
100003d3c: 910003ea    	mov	x10, sp
100003d40: 8b0c014a    	add	x10, x10, x12
100003d44: eb02023f    	cmp	x17, x2
100003d48: 9a8d31cb    	csel	x11, x14, x13, lo
100003d4c: 9a8031ac    	csel	x12, x13, x0, lo
100003d50: f940098d    	ldr	x13, [x12, #0x10]
100003d54: f9400a0e    	ldr	x14, [x16, #0x10]
100003d58: eb0e01bf    	cmp	x13, x14
100003d5c: 9a90318d    	csel	x13, x12, x16, lo
100003d60: 9a8c320c    	csel	x12, x16, x12, lo
100003d64: 3dc001e0    	ldr	q0, [x15]
100003d68: 3d800140    	str	q0, [x10]
100003d6c: f94009ee    	ldr	x14, [x15, #0x10]
100003d70: f900094e    	str	x14, [x10, #0x10]
100003d74: 3dc001a0    	ldr	q0, [x13]
100003d78: 3c818140    	stur	q0, [x10, #0x18]
100003d7c: f94009ad    	ldr	x13, [x13, #0x10]
100003d80: f900154d    	str	x13, [x10, #0x28]
100003d84: 3dc00180    	ldr	q0, [x12]
100003d88: 3d800d40    	str	q0, [x10, #0x30]
100003d8c: f940098c    	ldr	x12, [x12, #0x10]
100003d90: f900214c    	str	x12, [x10, #0x40]
100003d94: f940096c    	ldr	x12, [x11, #0x10]
100003d98: f9002d4c    	str	x12, [x10, #0x58]
100003d9c: 3dc00160    	ldr	q0, [x11]
100003da0: 3c848140    	stur	q0, [x10, #0x48]
100003da4: 5280008b    	mov	w11, #0x4               ; =4
100003da8: cb08028c    	sub	x12, x20, x8
100003dac: 8b0b056d    	add	x13, x11, x11, lsl #1
100003db0: eb08017f    	cmp	x11, x8
100003db4: 54000263    	b.lo	0x100003e00 <__ZN4core5slice4sort6shared9smallsort18small_sort_general17h6036d4586f05dcacE+0x230>
100003db8: 14000039    	b	0x100003e9c <__ZN4core5slice4sort6shared9smallsort18small_sort_general17h6036d4586f05dcacE+0x2cc>
100003dbc: 3dc00260    	ldr	q0, [x19]
100003dc0: 3d8003e0    	str	q0, [sp]
100003dc4: f9400a6a    	ldr	x10, [x19, #0x10]
100003dc8: f9000bea    	str	x10, [sp, #0x10]
100003dcc: d37df12a    	lsl	x10, x9, #3
100003dd0: 8b0a026b    	add	x11, x19, x10
100003dd4: 910003ec    	mov	x12, sp
100003dd8: 8b0a018a    	add	x10, x12, x10
100003ddc: 3dc00160    	ldr	q0, [x11]
100003de0: 3d800140    	str	q0, [x10]
100003de4: f940096b    	ldr	x11, [x11, #0x10]
100003de8: f900094b    	str	x11, [x10, #0x10]
100003dec: 5280002b    	mov	w11, #0x1               ; =1
100003df0: cb08028c    	sub	x12, x20, x8
100003df4: 8b0b056d    	add	x13, x11, x11, lsl #1
100003df8: eb08017f    	cmp	x11, x8
100003dfc: 54000502    	b.hs	0x100003e9c <__ZN4core5slice4sort6shared9smallsort18small_sort_general17h6036d4586f05dcacE+0x2cc>
100003e00: d37df1aa    	lsl	x10, x13, #3
100003e04: 910003ee    	mov	x14, sp
100003e08: aa0b03ef    	mov	x15, x11
100003e0c: 1400000a    	b	0x100003e34 <__ZN4core5slice4sort6shared9smallsort18small_sort_general17h6036d4586f05dcacE+0x264>
100003e10: 8b0201c1    	add	x1, x14, x2
100003e14: 3dc00200    	ldr	q0, [x16]
100003e18: 3d800020    	str	q0, [x1]
100003e1c: 8b0001d0    	add	x16, x14, x0
100003e20: f81f8211    	stur	x17, [x16, #-0x8]
100003e24: 910005ef    	add	x15, x15, #0x1
100003e28: 9100614a    	add	x10, x10, #0x18
100003e2c: eb0801ff    	cmp	x15, x8
100003e30: 54000360    	b.eq	0x100003e9c <__ZN4core5slice4sort6shared9smallsort18small_sort_general17h6036d4586f05dcacE+0x2cc>
100003e34: 8b0f05f0    	add	x16, x15, x15, lsl #1
100003e38: d37df211    	lsl	x17, x16, #3
100003e3c: 8b110270    	add	x16, x19, x17
100003e40: 8b1101c0    	add	x0, x14, x17
100003e44: 3dc00200    	ldr	q0, [x16]
100003e48: 3d800000    	str	q0, [x0]
100003e4c: f9400a11    	ldr	x17, [x16, #0x10]
100003e50: f9000811    	str	x17, [x0, #0x10]
100003e54: f85f8000    	ldur	x0, [x0, #-0x8]
100003e58: eb00023f    	cmp	x17, x0
100003e5c: 54fffe42    	b.hs	0x100003e24 <__ZN4core5slice4sort6shared9smallsort18small_sort_general17h6036d4586f05dcacE+0x254>
100003e60: aa0a03e2    	mov	x2, x10
100003e64: aa0203e0    	mov	x0, x2
100003e68: 910003e1    	mov	x1, sp
100003e6c: 8b020022    	add	x2, x1, x2
100003e70: 3cde8040    	ldur	q0, [x2, #-0x18]
100003e74: 3d800040    	str	q0, [x2]
100003e78: f85f8043    	ldur	x3, [x2, #-0x8]
100003e7c: f9000843    	str	x3, [x2, #0x10]
100003e80: f1006002    	subs	x2, x0, #0x18
100003e84: 54fffc80    	b.eq	0x100003e14 <__ZN4core5slice4sort6shared9smallsort18small_sort_general17h6036d4586f05dcacE+0x244>
100003e88: 8b0001c1    	add	x1, x14, x0
100003e8c: f85e0021    	ldur	x1, [x1, #-0x20]
100003e90: eb01023f    	cmp	x17, x1
100003e94: 54fffe83    	b.lo	0x100003e64 <__ZN4core5slice4sort6shared9smallsort18small_sort_general17h6036d4586f05dcacE+0x294>
100003e98: 17ffffde    	b	0x100003e10 <__ZN4core5slice4sort6shared9smallsort18small_sort_general17h6036d4586f05dcacE+0x240>
100003e9c: d37df12e    	lsl	x14, x9, #3
100003ea0: 910003e9    	mov	x9, sp
100003ea4: 8b0e012a    	add	x10, x9, x14
100003ea8: eb0c017f    	cmp	x11, x12
100003eac: 54000542    	b.hs	0x100003f54 <__ZN4core5slice4sort6shared9smallsort18small_sort_general17h6036d4586f05dcacE+0x384>
100003eb0: 8b0e026e    	add	x14, x19, x14
100003eb4: d37df1ad    	lsl	x13, x13, #3
100003eb8: 5280030f    	mov	w15, #0x18              ; =24
100003ebc: aa0a03f0    	mov	x16, x10
100003ec0: 1400000a    	b	0x100003ee8 <__ZN4core5slice4sort6shared9smallsort18small_sort_general17h6036d4586f05dcacE+0x318>
100003ec4: aa0a03e2    	mov	x2, x10
100003ec8: 3dc00220    	ldr	q0, [x17]
100003ecc: 3d800040    	str	q0, [x2]
100003ed0: f81f8020    	stur	x0, [x1, #-0x8]
100003ed4: 9100056b    	add	x11, x11, #0x1
100003ed8: d10061ef    	sub	x15, x15, #0x18
100003edc: 91006210    	add	x16, x16, #0x18
100003ee0: eb0c017f    	cmp	x11, x12
100003ee4: 54000380    	b.eq	0x100003f54 <__ZN4core5slice4sort6shared9smallsort18small_sort_general17h6036d4586f05dcacE+0x384>
100003ee8: 8b0b0571    	add	x17, x11, x11, lsl #1
100003eec: d37df220    	lsl	x0, x17, #3
100003ef0: 8b0001d1    	add	x17, x14, x0
100003ef4: 8b000141    	add	x1, x10, x0
100003ef8: 3dc00220    	ldr	q0, [x17]
100003efc: 3d800020    	str	q0, [x1]
100003f00: f9400a20    	ldr	x0, [x17, #0x10]
100003f04: f9000820    	str	x0, [x1, #0x10]
100003f08: f85f8021    	ldur	x1, [x1, #-0x8]
100003f0c: eb01001f    	cmp	x0, x1
100003f10: 54fffe22    	b.hs	0x100003ed4 <__ZN4core5slice4sort6shared9smallsort18small_sort_general17h6036d4586f05dcacE+0x304>
100003f14: aa1003e2    	mov	x2, x16
100003f18: aa0f03e3    	mov	x3, x15
100003f1c: 8b0d0041    	add	x1, x2, x13
100003f20: 3cde8020    	ldur	q0, [x1, #-0x18]
100003f24: 3d800020    	str	q0, [x1]
100003f28: f85f8024    	ldur	x4, [x1, #-0x8]
100003f2c: f9000824    	str	x4, [x1, #0x10]
100003f30: eb0301bf    	cmp	x13, x3
100003f34: 54fffc80    	b.eq	0x100003ec4 <__ZN4core5slice4sort6shared9smallsort18small_sort_general17h6036d4586f05dcacE+0x2f4>
100003f38: f85e0024    	ldur	x4, [x1, #-0x20]
100003f3c: 91006063    	add	x3, x3, #0x18
100003f40: d1006042    	sub	x2, x2, #0x18
100003f44: eb04001f    	cmp	x0, x4
100003f48: 54fffea3    	b.lo	0x100003f1c <__ZN4core5slice4sort6shared9smallsort18small_sort_general17h6036d4586f05dcacE+0x34c>
100003f4c: 8b0d0042    	add	x2, x2, x13
100003f50: 17ffffde    	b	0x100003ec8 <__ZN4core5slice4sort6shared9smallsort18small_sort_general17h6036d4586f05dcacE+0x2f8>
100003f54: d100614c    	sub	x12, x10, #0x18
100003f58: 5280030d    	mov	w13, #0x18              ; =24
100003f5c: 928002eb    	mov	x11, #-0x18             ; =-24
100003f60: 9b0d2e8f    	madd	x15, x20, x13, x11
100003f64: 8b0f012e    	add	x14, x9, x15
100003f68: aa1303eb    	mov	x11, x19
100003f6c: 8b0f0270    	add	x16, x19, x15
100003f70: f9400951    	ldr	x17, [x10, #0x10]
100003f74: f9400920    	ldr	x0, [x9, #0x10]
100003f78: eb00023f    	cmp	x17, x0
100003f7c: 9a893151    	csel	x17, x10, x9, lo
100003f80: 1a9f37e0    	cset	w0, hs
100003f84: 1a9f27e1    	cset	w1, lo
100003f88: 3dc00220    	ldr	q0, [x17]
100003f8c: 3d800160    	str	q0, [x11]
100003f90: f9400a31    	ldr	x17, [x17, #0x10]
100003f94: f9000971    	str	x17, [x11, #0x10]
100003f98: 9bad282a    	umaddl	x10, w1, w13, x10
100003f9c: 9bad2409    	umaddl	x9, w0, w13, x9
100003fa0: 9100616b    	add	x11, x11, #0x18
100003fa4: f94009d1    	ldr	x17, [x14, #0x10]
100003fa8: f9400980    	ldr	x0, [x12, #0x10]
100003fac: eb00023f    	cmp	x17, x0
100003fb0: 9a8e3191    	csel	x17, x12, x14, lo
100003fb4: 3dc00220    	ldr	q0, [x17]
100003fb8: 3d800200    	str	q0, [x16]
100003fbc: f9400a31    	ldr	x17, [x17, #0x10]
100003fc0: f9000a11    	str	x17, [x16, #0x10]
100003fc4: da9f33f0    	csetm	x16, hs
100003fc8: 9b0d3a0e    	madd	x14, x16, x13, x14
100003fcc: da9f23f0    	csetm	x16, lo
100003fd0: 9b0d320c    	madd	x12, x16, x13, x12
100003fd4: d10061ef    	sub	x15, x15, #0x18
100003fd8: f1000508    	subs	x8, x8, #0x1
100003fdc: 54fffc81    	b.ne	0x100003f6c <__ZN4core5slice4sort6shared9smallsort18small_sort_general17h6036d4586f05dcacE+0x39c>
100003fe0: 91006188    	add	x8, x12, #0x18
100003fe4: 910061cc    	add	x12, x14, #0x18
100003fe8: 36000194    	tbz	w20, #0x0, 0x100004018 <__ZN4core5slice4sort6shared9smallsort18small_sort_general17h6036d4586f05dcacE+0x448>
100003fec: eb08013f    	cmp	x9, x8
100003ff0: 9a8a312d    	csel	x13, x9, x10, lo
100003ff4: 1a9f37ee    	cset	w14, hs
100003ff8: 1a9f27ef    	cset	w15, lo
100003ffc: 3dc001a0    	ldr	q0, [x13]
100004000: 3d800160    	str	q0, [x11]
100004004: f94009ad    	ldr	x13, [x13, #0x10]
100004008: f900096d    	str	x13, [x11, #0x10]
10000400c: 5280030b    	mov	w11, #0x18              ; =24
100004010: 9bab25e9    	umaddl	x9, w15, w11, x9
100004014: 9bab29ca    	umaddl	x10, w14, w11, x10
100004018: eb08013f    	cmp	x9, x8
10000401c: fa4c0140    	ccmp	x10, x12, #0x0, eq
100004020: 540000c1    	b.ne	0x100004038 <__ZN4core5slice4sort6shared9smallsort18small_sort_general17h6036d4586f05dcacE+0x468>
100004024: 911203ff    	add	sp, sp, #0x480
100004028: a9427bfd    	ldp	x29, x30, [sp, #0x20]
10000402c: a9414ff4    	ldp	x20, x19, [sp, #0x10]
100004030: a8c357f6    	ldp	x22, x21, [sp], #0x30
100004034: d65f03c0    	ret
100004038: 9400c7e3    	bl	0x100035fc4 <__ZN4core5slice4sort6shared9smallsort22panic_on_ord_violation17hde5e51e040c58445E>
10000403c: d4200020    	brk	#0x1
100004040: aa0003f5    	mov	x21, x0
100004044: 8b140688    	add	x8, x20, x20, lsl #1
100004048: d37df102    	lsl	x2, x8, #3
10000404c: 910003e1    	mov	x1, sp
100004050: aa1303e0    	mov	x0, x19
100004054: 9400c886    	bl	0x10003626c <dyld_stub_binder+0x10003626c>
100004058: aa1503e0    	mov	x0, x21
10000405c: 9400c836    	bl	0x100036134 <dyld_stub_binder+0x100036134>

0000000100004060 <__ZN4core5slice4sort6shared9smallsort18small_sort_general17h6f108fd9f4ceb9b2E>:
100004060: a9ba6ffc    	stp	x28, x27, [sp, #-0x60]!
100004064: a90167fa    	stp	x26, x25, [sp, #0x10]
100004068: a9025ff8    	stp	x24, x23, [sp, #0x20]
10000406c: a90357f6    	stp	x22, x21, [sp, #0x30]
100004070: a9044ff4    	stp	x20, x19, [sp, #0x40]
100004074: a9057bfd    	stp	x29, x30, [sp, #0x50]
100004078: 910143fd    	add	x29, sp, #0x50
10000407c: d11303ff    	sub	sp, sp, #0x4c0
100004080: f90003ff    	str	xzr, [sp]
100004084: f100083f    	cmp	x1, #0x2
100004088: 54001b83    	b.lo	0x1000043f8 <__ZN4core5slice4sort6shared9smallsort18small_sort_general17h6f108fd9f4ceb9b2E+0x398>
10000408c: aa0003fa    	mov	x26, x0
100004090: d341fc38    	lsr	x24, x1, #1
100004094: 8b180708    	add	x8, x24, x24, lsl #1
100004098: d37df108    	lsl	x8, x8, #3
10000409c: 8b080015    	add	x21, x0, x8
1000040a0: 9100c3e9    	add	x9, sp, #0x30
1000040a4: 8b080133    	add	x19, x9, x8
1000040a8: f100203f    	cmp	x1, #0x8
1000040ac: f9000ff5    	str	x21, [sp, #0x18]
1000040b0: 54000163    	b.lo	0x1000040dc <__ZN4core5slice4sort6shared9smallsort18small_sort_general17h6f108fd9f4ceb9b2E+0x7c>
1000040b4: aa0103f4    	mov	x20, x1
1000040b8: 9100c3e1    	add	x1, sp, #0x30
1000040bc: aa1a03e0    	mov	x0, x26
1000040c0: 97fffd49    	bl	0x1000035e4 <__ZN4core5slice4sort6shared9smallsort12sort4_stable17h6c045a2dd3d2cc75E>
1000040c4: aa1503e0    	mov	x0, x21
1000040c8: aa1303e1    	mov	x1, x19
1000040cc: 97fffd46    	bl	0x1000035e4 <__ZN4core5slice4sort6shared9smallsort12sort4_stable17h6c045a2dd3d2cc75E>
1000040d0: aa1403e1    	mov	x1, x20
1000040d4: 52800088    	mov	w8, #0x4                ; =4
1000040d8: 1400000a    	b	0x100004100 <__ZN4core5slice4sort6shared9smallsort18small_sort_general17h6f108fd9f4ceb9b2E+0xa0>
1000040dc: 3dc00340    	ldr	q0, [x26]
1000040e0: 3d800fe0    	str	q0, [sp, #0x30]
1000040e4: f9400b48    	ldr	x8, [x26, #0x10]
1000040e8: f90023e8    	str	x8, [sp, #0x40]
1000040ec: 3dc002a0    	ldr	q0, [x21]
1000040f0: 3d800260    	str	q0, [x19]
1000040f4: f9400aa8    	ldr	x8, [x21, #0x10]
1000040f8: f9000a68    	str	x8, [x19, #0x10]
1000040fc: 52800028    	mov	w8, #0x1                ; =1
100004100: cb180029    	sub	x9, x1, x24
100004104: a9026be9    	stp	x9, x26, [sp, #0x20]
100004108: 8b080509    	add	x9, x8, x8, lsl #1
10000410c: a90027e1    	stp	x1, x9, [sp]
100004110: f9000be8    	str	x8, [sp, #0x10]
100004114: eb18011f    	cmp	x8, x24
100004118: 540006a2    	b.hs	0x1000041ec <__ZN4core5slice4sort6shared9smallsort18small_sort_general17h6f108fd9f4ceb9b2E+0x18c>
10000411c: a940e7e8    	ldp	x8, x25, [sp, #0x8]
100004120: d37df115    	lsl	x21, x8, #3
100004124: 9100c3fc    	add	x28, sp, #0x30
100004128: 14000009    	b	0x10000414c <__ZN4core5slice4sort6shared9smallsort18small_sort_general17h6f108fd9f4ceb9b2E+0xec>
10000412c: 8b140388    	add	x8, x28, x20
100004130: a9006d17    	stp	x23, x27, [x8]
100004134: f900091a    	str	x26, [x8, #0x10]
100004138: f94017fa    	ldr	x26, [sp, #0x28]
10000413c: 91000739    	add	x25, x25, #0x1
100004140: 910062b5    	add	x21, x21, #0x18
100004144: eb18033f    	cmp	x25, x24
100004148: 54000520    	b.eq	0x1000041ec <__ZN4core5slice4sort6shared9smallsort18small_sort_general17h6f108fd9f4ceb9b2E+0x18c>
10000414c: 8b190728    	add	x8, x25, x25, lsl #1
100004150: d37df108    	lsl	x8, x8, #3
100004154: 8b080349    	add	x9, x26, x8
100004158: 8b080394    	add	x20, x28, x8
10000415c: 3dc00120    	ldr	q0, [x9]
100004160: 3d800280    	str	q0, [x20]
100004164: f9400928    	ldr	x8, [x9, #0x10]
100004168: f9000a88    	str	x8, [x20, #0x10]
10000416c: a9406e97    	ldp	x23, x27, [x20]
100004170: a97ea281    	ldp	x1, x8, [x20, #-0x18]
100004174: eb080376    	subs	x22, x27, x8
100004178: 9a883362    	csel	x2, x27, x8, lo
10000417c: aa1703e0    	mov	x0, x23
100004180: 9400c838    	bl	0x100036260 <dyld_stub_binder+0x100036260>
100004184: 93407c08    	sxtw	x8, w0
100004188: 7100001f    	cmp	w0, #0x0
10000418c: 9a8802c8    	csel	x8, x22, x8, eq
100004190: b6fffd68    	tbz	x8, #0x3f, 0x10000413c <__ZN4core5slice4sort6shared9smallsort18small_sort_general17h6f108fd9f4ceb9b2E+0xdc>
100004194: f9400a9a    	ldr	x26, [x20, #0x10]
100004198: aa1503e9    	mov	x9, x21
10000419c: 9100c3e8    	add	x8, sp, #0x30
1000041a0: 8b09010a    	add	x10, x8, x9
1000041a4: 3cde8140    	ldur	q0, [x10, #-0x18]
1000041a8: 3d800140    	str	q0, [x10]
1000041ac: f85f814b    	ldur	x11, [x10, #-0x8]
1000041b0: f900094b    	str	x11, [x10, #0x10]
1000041b4: f1006134    	subs	x20, x9, #0x18
1000041b8: 54fffbc0    	b.eq	0x100004130 <__ZN4core5slice4sort6shared9smallsort18small_sort_general17h6f108fd9f4ceb9b2E+0xd0>
1000041bc: 8b090388    	add	x8, x28, x9
1000041c0: a97d2101    	ldp	x1, x8, [x8, #-0x30]
1000041c4: eb080376    	subs	x22, x27, x8
1000041c8: 9a883362    	csel	x2, x27, x8, lo
1000041cc: aa1703e0    	mov	x0, x23
1000041d0: 9400c824    	bl	0x100036260 <dyld_stub_binder+0x100036260>
1000041d4: 93407c08    	sxtw	x8, w0
1000041d8: 7100001f    	cmp	w0, #0x0
1000041dc: 9a8802c8    	csel	x8, x22, x8, eq
1000041e0: aa1403e9    	mov	x9, x20
1000041e4: b7fffdc8    	tbnz	x8, #0x3f, 0x10000419c <__ZN4core5slice4sort6shared9smallsort18small_sort_general17h6f108fd9f4ceb9b2E+0x13c>
1000041e8: 17ffffd1    	b	0x10000412c <__ZN4core5slice4sort6shared9smallsort18small_sort_general17h6f108fd9f4ceb9b2E+0xcc>
1000041ec: f9400bf6    	ldr	x22, [sp, #0x10]
1000041f0: f94013e8    	ldr	x8, [sp, #0x20]
1000041f4: eb0802df    	cmp	x22, x8
1000041f8: 54000762    	b.hs	0x1000042e4 <__ZN4core5slice4sort6shared9smallsort18small_sort_general17h6f108fd9f4ceb9b2E+0x284>
1000041fc: f94007e8    	ldr	x8, [sp, #0x8]
100004200: d37df11b    	lsl	x27, x8, #3
100004204: 5280031a    	mov	w26, #0x18              ; =24
100004208: aa1303f4    	mov	x20, x19
10000420c: 1400000b    	b	0x100004238 <__ZN4core5slice4sort6shared9smallsort18small_sort_general17h6f108fd9f4ceb9b2E+0x1d8>
100004210: aa1303e8    	mov	x8, x19
100004214: a9006517    	stp	x23, x25, [x8]
100004218: a940dbe9    	ldp	x9, x22, [sp, #0x8]
10000421c: f9000909    	str	x9, [x8, #0x10]
100004220: 910006d6    	add	x22, x22, #0x1
100004224: d100635a    	sub	x26, x26, #0x18
100004228: 91006294    	add	x20, x20, #0x18
10000422c: f94013e8    	ldr	x8, [sp, #0x20]
100004230: eb0802df    	cmp	x22, x8
100004234: 54000580    	b.eq	0x1000042e4 <__ZN4core5slice4sort6shared9smallsort18small_sort_general17h6f108fd9f4ceb9b2E+0x284>
100004238: 8b1606c8    	add	x8, x22, x22, lsl #1
10000423c: d37df108    	lsl	x8, x8, #3
100004240: f9400fe9    	ldr	x9, [sp, #0x18]
100004244: 8b080129    	add	x9, x9, x8
100004248: 8b080275    	add	x21, x19, x8
10000424c: 3dc00120    	ldr	q0, [x9]
100004250: 3d8002a0    	str	q0, [x21]
100004254: f9400928    	ldr	x8, [x9, #0x10]
100004258: f9000aa8    	str	x8, [x21, #0x10]
10000425c: a94066b7    	ldp	x23, x25, [x21]
100004260: a97ea2a1    	ldp	x1, x8, [x21, #-0x18]
100004264: eb08033c    	subs	x28, x25, x8
100004268: 9a883322    	csel	x2, x25, x8, lo
10000426c: aa1703e0    	mov	x0, x23
100004270: 9400c7fc    	bl	0x100036260 <dyld_stub_binder+0x100036260>
100004274: 93407c08    	sxtw	x8, w0
100004278: 7100001f    	cmp	w0, #0x0
10000427c: 9a880388    	csel	x8, x28, x8, eq
100004280: b6fffd08    	tbz	x8, #0x3f, 0x100004220 <__ZN4core5slice4sort6shared9smallsort18small_sort_general17h6f108fd9f4ceb9b2E+0x1c0>
100004284: f9400aa8    	ldr	x8, [x21, #0x10]
100004288: a900dbe8    	stp	x8, x22, [sp, #0x8]
10000428c: aa1403f5    	mov	x21, x20
100004290: aa1a03fc    	mov	x28, x26
100004294: 8b1b02a8    	add	x8, x21, x27
100004298: 3cde8100    	ldur	q0, [x8, #-0x18]
10000429c: 3d800100    	str	q0, [x8]
1000042a0: f85f8109    	ldur	x9, [x8, #-0x8]
1000042a4: f9000909    	str	x9, [x8, #0x10]
1000042a8: eb1c037f    	cmp	x27, x28
1000042ac: 54fffb20    	b.eq	0x100004210 <__ZN4core5slice4sort6shared9smallsort18small_sort_general17h6f108fd9f4ceb9b2E+0x1b0>
1000042b0: a97d2101    	ldp	x1, x8, [x8, #-0x30]
1000042b4: eb080336    	subs	x22, x25, x8
1000042b8: 9a883322    	csel	x2, x25, x8, lo
1000042bc: aa1703e0    	mov	x0, x23
1000042c0: 9400c7e8    	bl	0x100036260 <dyld_stub_binder+0x100036260>
1000042c4: 93407c08    	sxtw	x8, w0
1000042c8: 7100001f    	cmp	w0, #0x0
1000042cc: 9a8802c8    	csel	x8, x22, x8, eq
1000042d0: 9100639c    	add	x28, x28, #0x18
1000042d4: d10062b5    	sub	x21, x21, #0x18
1000042d8: b7fffde8    	tbnz	x8, #0x3f, 0x100004294 <__ZN4core5slice4sort6shared9smallsort18small_sort_general17h6f108fd9f4ceb9b2E+0x234>
1000042dc: 8b1b02a8    	add	x8, x21, x27
1000042e0: 17ffffcd    	b	0x100004214 <__ZN4core5slice4sort6shared9smallsort18small_sort_general17h6f108fd9f4ceb9b2E+0x1b4>
1000042e4: d1006279    	sub	x25, x19, #0x18
1000042e8: 5280031a    	mov	w26, #0x18              ; =24
1000042ec: 928002e8    	mov	x8, #-0x18              ; =-24
1000042f0: f94003e9    	ldr	x9, [sp]
1000042f4: 9b1a213b    	madd	x27, x9, x26, x8
1000042f8: 9100c3f6    	add	x22, sp, #0x30
1000042fc: 8b1b02d5    	add	x21, x22, x27
100004300: f94017f7    	ldr	x23, [sp, #0x28]
100004304: f94017e8    	ldr	x8, [sp, #0x28]
100004308: 8b1b0114    	add	x20, x8, x27
10000430c: a9402260    	ldp	x0, x8, [x19]
100004310: a94026c1    	ldp	x1, x9, [x22]
100004314: eb09011c    	subs	x28, x8, x9
100004318: 9a893102    	csel	x2, x8, x9, lo
10000431c: 9400c7d1    	bl	0x100036260 <dyld_stub_binder+0x100036260>
100004320: 93407c08    	sxtw	x8, w0
100004324: 7100001f    	cmp	w0, #0x0
100004328: 9a880388    	csel	x8, x28, x8, eq
10000432c: f100011f    	cmp	x8, #0x0
100004330: 9a93a2c9    	csel	x9, x22, x19, ge
100004334: 3dc00120    	ldr	q0, [x9]
100004338: 3d8002e0    	str	q0, [x23]
10000433c: f9400929    	ldr	x9, [x9, #0x10]
100004340: f9000ae9    	str	x9, [x23, #0x10]
100004344: d37ffd08    	lsr	x8, x8, #63
100004348: 9bba4d13    	umaddl	x19, w8, w26, x19
10000434c: 52000108    	eor	w8, w8, #0x1
100004350: 9bba5916    	umaddl	x22, w8, w26, x22
100004354: 910062f7    	add	x23, x23, #0x18
100004358: a94022a0    	ldp	x0, x8, [x21]
10000435c: a9402721    	ldp	x1, x9, [x25]
100004360: eb09011c    	subs	x28, x8, x9
100004364: 9a893102    	csel	x2, x8, x9, lo
100004368: 9400c7be    	bl	0x100036260 <dyld_stub_binder+0x100036260>
10000436c: 93407c08    	sxtw	x8, w0
100004370: 7100001f    	cmp	w0, #0x0
100004374: 9a880388    	csel	x8, x28, x8, eq
100004378: f100011f    	cmp	x8, #0x0
10000437c: 9a99a2a9    	csel	x9, x21, x25, ge
100004380: 3dc00120    	ldr	q0, [x9]
100004384: 3d800280    	str	q0, [x20]
100004388: f9400929    	ldr	x9, [x9, #0x10]
10000438c: f9000a89    	str	x9, [x20, #0x10]
100004390: 937ffd08    	asr	x8, x8, #63
100004394: aa2803e9    	mvn	x9, x8
100004398: 9b3a5535    	smaddl	x21, w9, w26, x21
10000439c: 9b3a6519    	smaddl	x25, w8, w26, x25
1000043a0: d100637b    	sub	x27, x27, #0x18
1000043a4: f1000718    	subs	x24, x24, #0x1
1000043a8: 54fffae1    	b.ne	0x100004304 <__ZN4core5slice4sort6shared9smallsort18small_sort_general17h6f108fd9f4ceb9b2E+0x2a4>
1000043ac: 91006328    	add	x8, x25, #0x18
1000043b0: 910062a9    	add	x9, x21, #0x18
1000043b4: f94003f4    	ldr	x20, [sp]
1000043b8: 36000194    	tbz	w20, #0x0, 0x1000043e8 <__ZN4core5slice4sort6shared9smallsort18small_sort_general17h6f108fd9f4ceb9b2E+0x388>
1000043bc: eb0802df    	cmp	x22, x8
1000043c0: 9a9332ca    	csel	x10, x22, x19, lo
1000043c4: 1a9f37eb    	cset	w11, hs
1000043c8: 1a9f27ec    	cset	w12, lo
1000043cc: 3dc00140    	ldr	q0, [x10]
1000043d0: 3d8002e0    	str	q0, [x23]
1000043d4: f940094a    	ldr	x10, [x10, #0x10]
1000043d8: f9000aea    	str	x10, [x23, #0x10]
1000043dc: 5280030a    	mov	w10, #0x18              ; =24
1000043e0: 9baa5996    	umaddl	x22, w12, w10, x22
1000043e4: 9baa4d73    	umaddl	x19, w11, w10, x19
1000043e8: eb0802df    	cmp	x22, x8
1000043ec: fa490260    	ccmp	x19, x9, #0x0, eq
1000043f0: f94017f3    	ldr	x19, [sp, #0x28]
1000043f4: 54000121    	b.ne	0x100004418 <__ZN4core5slice4sort6shared9smallsort18small_sort_general17h6f108fd9f4ceb9b2E+0x3b8>
1000043f8: 911303ff    	add	sp, sp, #0x4c0
1000043fc: a9457bfd    	ldp	x29, x30, [sp, #0x50]
100004400: a9444ff4    	ldp	x20, x19, [sp, #0x40]
100004404: a94357f6    	ldp	x22, x21, [sp, #0x30]
100004408: a9425ff8    	ldp	x24, x23, [sp, #0x20]
10000440c: a94167fa    	ldp	x26, x25, [sp, #0x10]
100004410: a8c66ffc    	ldp	x28, x27, [sp], #0x60
100004414: d65f03c0    	ret
100004418: 9400c6eb    	bl	0x100035fc4 <__ZN4core5slice4sort6shared9smallsort22panic_on_ord_violation17hde5e51e040c58445E>
10000441c: d4200020    	brk	#0x1
100004420: aa0003f5    	mov	x21, x0
100004424: 8b140688    	add	x8, x20, x20, lsl #1
100004428: d37df102    	lsl	x2, x8, #3
10000442c: 9100c3e1    	add	x1, sp, #0x30
100004430: aa1303e0    	mov	x0, x19
100004434: 9400c78e    	bl	0x10003626c <dyld_stub_binder+0x10003626c>
100004438: aa1503e0    	mov	x0, x21
10000443c: 9400c73e    	bl	0x100036134 <dyld_stub_binder+0x100036134>

0000000100004440 <__ZN4core5slice4sort6shared9smallsort25insertion_sort_shift_left17h13b8d464043e6663E>:
100004440: f100043f    	cmp	x1, #0x1
100004444: 540007a0    	b.eq	0x100004538 <__ZN4core5slice4sort6shared9smallsort25insertion_sort_shift_left17h13b8d464043e6663E+0xf8>
100004448: a9ba6ffc    	stp	x28, x27, [sp, #-0x60]!
10000444c: a90167fa    	stp	x26, x25, [sp, #0x10]
100004450: a9025ff8    	stp	x24, x23, [sp, #0x20]
100004454: a90357f6    	stp	x22, x21, [sp, #0x30]
100004458: a9044ff4    	stp	x20, x19, [sp, #0x40]
10000445c: a9057bfd    	stp	x29, x30, [sp, #0x50]
100004460: 910143fd    	add	x29, sp, #0x50
100004464: aa0003f3    	mov	x19, x0
100004468: d2800015    	mov	x21, #0x0               ; =0
10000446c: 52800308    	mov	w8, #0x18               ; =24
100004470: 9b080036    	madd	x22, x1, x8, x0
100004474: 91006008    	add	x8, x0, #0x18
100004478: aa0003f9    	mov	x25, x0
10000447c: 14000009    	b	0x1000044a0 <__ZN4core5slice4sort6shared9smallsort25insertion_sort_shift_left17h13b8d464043e6663E+0x60>
100004480: aa1303e8    	mov	x8, x19
100004484: a9006114    	stp	x20, x24, [x8]
100004488: f9000919    	str	x25, [x8, #0x10]
10000448c: 910062e8    	add	x8, x23, #0x18
100004490: 910062b5    	add	x21, x21, #0x18
100004494: aa1703f9    	mov	x25, x23
100004498: eb16011f    	cmp	x8, x22
10000449c: 54000420    	b.eq	0x100004520 <__ZN4core5slice4sort6shared9smallsort25insertion_sort_shift_left17h13b8d464043e6663E+0xe0>
1000044a0: aa0803f7    	mov	x23, x8
1000044a4: a941e334    	ldp	x20, x24, [x25, #0x18]
1000044a8: a9402321    	ldp	x1, x8, [x25]
1000044ac: eb08031a    	subs	x26, x24, x8
1000044b0: 9a883302    	csel	x2, x24, x8, lo
1000044b4: aa1403e0    	mov	x0, x20
1000044b8: 9400c76a    	bl	0x100036260 <dyld_stub_binder+0x100036260>
1000044bc: 93407c08    	sxtw	x8, w0
1000044c0: 7100001f    	cmp	w0, #0x0
1000044c4: 9a880348    	csel	x8, x26, x8, eq
1000044c8: b6fffe28    	tbz	x8, #0x3f, 0x10000448c <__ZN4core5slice4sort6shared9smallsort25insertion_sort_shift_left17h13b8d464043e6663E+0x4c>
1000044cc: f9401739    	ldr	x25, [x25, #0x28]
1000044d0: aa1503fa    	mov	x26, x21
1000044d4: 8b1a0268    	add	x8, x19, x26
1000044d8: 3dc00100    	ldr	q0, [x8]
1000044dc: 3c818100    	stur	q0, [x8, #0x18]
1000044e0: f9400909    	ldr	x9, [x8, #0x10]
1000044e4: f9001509    	str	x9, [x8, #0x28]
1000044e8: b4fffcda    	cbz	x26, 0x100004480 <__ZN4core5slice4sort6shared9smallsort25insertion_sort_shift_left17h13b8d464043e6663E+0x40>
1000044ec: a97ea101    	ldp	x1, x8, [x8, #-0x18]
1000044f0: eb08031b    	subs	x27, x24, x8
1000044f4: 9a883302    	csel	x2, x24, x8, lo
1000044f8: aa1403e0    	mov	x0, x20
1000044fc: 9400c759    	bl	0x100036260 <dyld_stub_binder+0x100036260>
100004500: 93407c08    	sxtw	x8, w0
100004504: 7100001f    	cmp	w0, #0x0
100004508: 9a880368    	csel	x8, x27, x8, eq
10000450c: d100635a    	sub	x26, x26, #0x18
100004510: b7fffe28    	tbnz	x8, #0x3f, 0x1000044d4 <__ZN4core5slice4sort6shared9smallsort25insertion_sort_shift_left17h13b8d464043e6663E+0x94>
100004514: 8b1a0268    	add	x8, x19, x26
100004518: 91006108    	add	x8, x8, #0x18
10000451c: 17ffffda    	b	0x100004484 <__ZN4core5slice4sort6shared9smallsort25insertion_sort_shift_left17h13b8d464043e6663E+0x44>
100004520: a9457bfd    	ldp	x29, x30, [sp, #0x50]
100004524: a9444ff4    	ldp	x20, x19, [sp, #0x40]
100004528: a94357f6    	ldp	x22, x21, [sp, #0x30]
10000452c: a9425ff8    	ldp	x24, x23, [sp, #0x20]
100004530: a94167fa    	ldp	x26, x25, [sp, #0x10]
100004534: a8c66ffc    	ldp	x28, x27, [sp], #0x60
100004538: d65f03c0    	ret

000000010000453c <__ZN4core5slice4sort6shared9smallsort25insertion_sort_shift_left17h315eceba815562d9E>:
10000453c: f100043f    	cmp	x1, #0x1
100004540: 54000440    	b.eq	0x1000045c8 <__ZN4core5slice4sort6shared9smallsort25insertion_sort_shift_left17h315eceba815562d9E+0x8c>
100004544: a9bf7bfd    	stp	x29, x30, [sp, #-0x10]!
100004548: 910003fd    	mov	x29, sp
10000454c: d2800008    	mov	x8, #0x0                ; =0
100004550: 9100400b    	add	x11, x0, #0x10
100004554: aa0003ec    	mov	x12, x0
100004558: 8b011009    	add	x9, x0, x1, lsl #4
10000455c: 14000008    	b	0x10000457c <__ZN4core5slice4sort6shared9smallsort25insertion_sort_shift_left17h315eceba815562d9E+0x40>
100004560: aa0003ed    	mov	x13, x0
100004564: a90031ab    	stp	x11, x12, [x13]
100004568: 9100414b    	add	x11, x10, #0x10
10000456c: 91004108    	add	x8, x8, #0x10
100004570: aa0a03ec    	mov	x12, x10
100004574: eb09017f    	cmp	x11, x9
100004578: 54000260    	b.eq	0x1000045c4 <__ZN4core5slice4sort6shared9smallsort25insertion_sort_shift_left17h315eceba815562d9E+0x88>
10000457c: aa0b03ea    	mov	x10, x11
100004580: f940098b    	ldr	x11, [x12, #0x10]
100004584: f940018d    	ldr	x13, [x12]
100004588: eb0d017f    	cmp	x11, x13
10000458c: 54fffee2    	b.hs	0x100004568 <__ZN4core5slice4sort6shared9smallsort25insertion_sort_shift_left17h315eceba815562d9E+0x2c>
100004590: f9400d8c    	ldr	x12, [x12, #0x18]
100004594: aa0803ed    	mov	x13, x8
100004598: 8b0d000e    	add	x14, x0, x13
10000459c: 3dc001c0    	ldr	q0, [x14]
1000045a0: 3d8005c0    	str	q0, [x14, #0x10]
1000045a4: b4fffded    	cbz	x13, 0x100004560 <__ZN4core5slice4sort6shared9smallsort25insertion_sort_shift_left17h315eceba815562d9E+0x24>
1000045a8: f85f01ce    	ldur	x14, [x14, #-0x10]
1000045ac: d10041ad    	sub	x13, x13, #0x10
1000045b0: eb0e017f    	cmp	x11, x14
1000045b4: 54ffff23    	b.lo	0x100004598 <__ZN4core5slice4sort6shared9smallsort25insertion_sort_shift_left17h315eceba815562d9E+0x5c>
1000045b8: 8b0d000d    	add	x13, x0, x13
1000045bc: 910041ad    	add	x13, x13, #0x10
1000045c0: 17ffffe9    	b	0x100004564 <__ZN4core5slice4sort6shared9smallsort25insertion_sort_shift_left17h315eceba815562d9E+0x28>
1000045c4: a8c17bfd    	ldp	x29, x30, [sp], #0x10
1000045c8: d65f03c0    	ret

00000001000045cc <__ZN4core5slice4sort6shared9smallsort25insertion_sort_shift_left17h48b1b382cbc01c19E>:
1000045cc: f100043f    	cmp	x1, #0x1
1000045d0: 54000520    	b.eq	0x100004674 <__ZN4core5slice4sort6shared9smallsort25insertion_sort_shift_left17h48b1b382cbc01c19E+0xa8>
1000045d4: d10083ff    	sub	sp, sp, #0x20
1000045d8: a9017bfd    	stp	x29, x30, [sp, #0x10]
1000045dc: 910043fd    	add	x29, sp, #0x10
1000045e0: d2800008    	mov	x8, #0x0                ; =0
1000045e4: 52800309    	mov	w9, #0x18               ; =24
1000045e8: 9b090029    	madd	x9, x1, x9, x0
1000045ec: 9100600c    	add	x12, x0, #0x18
1000045f0: aa0003ea    	mov	x10, x0
1000045f4: 14000009    	b	0x100004618 <__ZN4core5slice4sort6shared9smallsort25insertion_sort_shift_left17h48b1b382cbc01c19E+0x4c>
1000045f8: aa0003ed    	mov	x13, x0
1000045fc: 3dc003e0    	ldr	q0, [sp]
100004600: 3d8001a0    	str	q0, [x13]
100004604: f900098b    	str	x11, [x12, #0x10]
100004608: 9100614c    	add	x12, x10, #0x18
10000460c: 91006108    	add	x8, x8, #0x18
100004610: eb09019f    	cmp	x12, x9
100004614: 540002c0    	b.eq	0x10000466c <__ZN4core5slice4sort6shared9smallsort25insertion_sort_shift_left17h48b1b382cbc01c19E+0xa0>
100004618: f940154b    	ldr	x11, [x10, #0x28]
10000461c: f940094d    	ldr	x13, [x10, #0x10]
100004620: aa0c03ea    	mov	x10, x12
100004624: eb0d017f    	cmp	x11, x13
100004628: 54ffff02    	b.hs	0x100004608 <__ZN4core5slice4sort6shared9smallsort25insertion_sort_shift_left17h48b1b382cbc01c19E+0x3c>
10000462c: 3dc00140    	ldr	q0, [x10]
100004630: 3d8003e0    	str	q0, [sp]
100004634: aa0803ed    	mov	x13, x8
100004638: 8b0d000c    	add	x12, x0, x13
10000463c: 3dc00180    	ldr	q0, [x12]
100004640: 3c818180    	stur	q0, [x12, #0x18]
100004644: f940098e    	ldr	x14, [x12, #0x10]
100004648: f900158e    	str	x14, [x12, #0x28]
10000464c: b4fffd6d    	cbz	x13, 0x1000045f8 <__ZN4core5slice4sort6shared9smallsort25insertion_sort_shift_left17h48b1b382cbc01c19E+0x2c>
100004650: f85f818e    	ldur	x14, [x12, #-0x8]
100004654: d10061ad    	sub	x13, x13, #0x18
100004658: eb0e017f    	cmp	x11, x14
10000465c: 54fffee3    	b.lo	0x100004638 <__ZN4core5slice4sort6shared9smallsort25insertion_sort_shift_left17h48b1b382cbc01c19E+0x6c>
100004660: 8b0d000d    	add	x13, x0, x13
100004664: 910061ad    	add	x13, x13, #0x18
100004668: 17ffffe5    	b	0x1000045fc <__ZN4core5slice4sort6shared9smallsort25insertion_sort_shift_left17h48b1b382cbc01c19E+0x30>
10000466c: a9417bfd    	ldp	x29, x30, [sp, #0x10]
100004670: 910083ff    	add	sp, sp, #0x20
100004674: d65f03c0    	ret

0000000100004678 <__ZN4core5slice4sort6shared9smallsort25insertion_sort_shift_left17h67c4a31b98bbd239E>:
100004678: f100043f    	cmp	x1, #0x1
10000467c: 540005a0    	b.eq	0x100004730 <__ZN4core5slice4sort6shared9smallsort25insertion_sort_shift_left17h67c4a31b98bbd239E+0xb8>
100004680: d100c3ff    	sub	sp, sp, #0x30
100004684: a9027bfd    	stp	x29, x30, [sp, #0x20]
100004688: 910083fd    	add	x29, sp, #0x20
10000468c: d2800008    	mov	x8, #0x0                ; =0
100004690: 52800509    	mov	w9, #0x28               ; =40
100004694: 9b090029    	madd	x9, x1, x9, x0
100004698: 9100a00b    	add	x11, x0, #0x28
10000469c: aa0003ec    	mov	x12, x0
1000046a0: 1400000b    	b	0x1000046cc <__ZN4core5slice4sort6shared9smallsort25insertion_sort_shift_left17h67c4a31b98bbd239E+0x54>
1000046a4: aa0003ed    	mov	x13, x0
1000046a8: ad4007e0    	ldp	q0, q1, [sp]
1000046ac: 3d8001a1    	str	q1, [x13]
1000046b0: f900098b    	str	x11, [x12, #0x10]
1000046b4: 3c818180    	stur	q0, [x12, #0x18]
1000046b8: 9100a14b    	add	x11, x10, #0x28
1000046bc: 9100a108    	add	x8, x8, #0x28
1000046c0: aa0a03ec    	mov	x12, x10
1000046c4: eb09017f    	cmp	x11, x9
1000046c8: 54000300    	b.eq	0x100004728 <__ZN4core5slice4sort6shared9smallsort25insertion_sort_shift_left17h67c4a31b98bbd239E+0xb0>
1000046cc: aa0b03ea    	mov	x10, x11
1000046d0: f9401d8b    	ldr	x11, [x12, #0x38]
1000046d4: f940098d    	ldr	x13, [x12, #0x10]
1000046d8: eb0d017f    	cmp	x11, x13
1000046dc: 54fffee2    	b.hs	0x1000046b8 <__ZN4core5slice4sort6shared9smallsort25insertion_sort_shift_left17h67c4a31b98bbd239E+0x40>
1000046e0: 3dc00141    	ldr	q1, [x10]
1000046e4: 3dc01180    	ldr	q0, [x12, #0x40]
1000046e8: ad0007e0    	stp	q0, q1, [sp]
1000046ec: aa0803ed    	mov	x13, x8
1000046f0: 8b0d000c    	add	x12, x0, x13
1000046f4: ad400580    	ldp	q0, q1, [x12]
1000046f8: 3c828180    	stur	q0, [x12, #0x28]
1000046fc: 3c838181    	stur	q1, [x12, #0x38]
100004700: f940118e    	ldr	x14, [x12, #0x20]
100004704: f900258e    	str	x14, [x12, #0x48]
100004708: b4fffced    	cbz	x13, 0x1000046a4 <__ZN4core5slice4sort6shared9smallsort25insertion_sort_shift_left17h67c4a31b98bbd239E+0x2c>
10000470c: f85e818e    	ldur	x14, [x12, #-0x18]
100004710: d100a1ad    	sub	x13, x13, #0x28
100004714: eb0e017f    	cmp	x11, x14
100004718: 54fffec3    	b.lo	0x1000046f0 <__ZN4core5slice4sort6shared9smallsort25insertion_sort_shift_left17h67c4a31b98bbd239E+0x78>
10000471c: 8b0d000d    	add	x13, x0, x13
100004720: 9100a1ad    	add	x13, x13, #0x28
100004724: 17ffffe1    	b	0x1000046a8 <__ZN4core5slice4sort6shared9smallsort25insertion_sort_shift_left17h67c4a31b98bbd239E+0x30>
100004728: a9427bfd    	ldp	x29, x30, [sp, #0x20]
10000472c: 9100c3ff    	add	sp, sp, #0x30
100004730: d65f03c0    	ret

0000000100004734 <__ZN4core5slice4sort6shared9smallsort25insertion_sort_shift_left17h6e44e631d56ebf03E>:
100004734: f100043f    	cmp	x1, #0x1
100004738: 54000560    	b.eq	0x1000047e4 <__ZN4core5slice4sort6shared9smallsort25insertion_sort_shift_left17h6e44e631d56ebf03E+0xb0>
10000473c: d100c3ff    	sub	sp, sp, #0x30
100004740: a9027bfd    	stp	x29, x30, [sp, #0x20]
100004744: 910083fd    	add	x29, sp, #0x20
100004748: d2800008    	mov	x8, #0x0                ; =0
10000474c: 9100800b    	add	x11, x0, #0x20
100004750: aa0003ec    	mov	x12, x0
100004754: 8b011409    	add	x9, x0, x1, lsl #5
100004758: 1400000c    	b	0x100004788 <__ZN4core5slice4sort6shared9smallsort25insertion_sort_shift_left17h6e44e631d56ebf03E+0x54>
10000475c: aa0003ec    	mov	x12, x0
100004760: f900018b    	str	x11, [x12]
100004764: 3dc003e0    	ldr	q0, [sp]
100004768: 3c808180    	stur	q0, [x12, #0x8]
10000476c: f9400beb    	ldr	x11, [sp, #0x10]
100004770: f9000d8b    	str	x11, [x12, #0x18]
100004774: 9100814b    	add	x11, x10, #0x20
100004778: 91008108    	add	x8, x8, #0x20
10000477c: aa0a03ec    	mov	x12, x10
100004780: eb09017f    	cmp	x11, x9
100004784: 540002c0    	b.eq	0x1000047dc <__ZN4core5slice4sort6shared9smallsort25insertion_sort_shift_left17h6e44e631d56ebf03E+0xa8>
100004788: aa0b03ea    	mov	x10, x11
10000478c: f940118b    	ldr	x11, [x12, #0x20]
100004790: f940018d    	ldr	x13, [x12]
100004794: eb0d017f    	cmp	x11, x13
100004798: 54fffee2    	b.hs	0x100004774 <__ZN4core5slice4sort6shared9smallsort25insertion_sort_shift_left17h6e44e631d56ebf03E+0x40>
10000479c: 3cc28180    	ldur	q0, [x12, #0x28]
1000047a0: 3d8003e0    	str	q0, [sp]
1000047a4: f9401d8c    	ldr	x12, [x12, #0x38]
1000047a8: f9000bec    	str	x12, [sp, #0x10]
1000047ac: aa0803ec    	mov	x12, x8
1000047b0: 8b0c000d    	add	x13, x0, x12
1000047b4: ad4005a0    	ldp	q0, q1, [x13]
1000047b8: ad0105a0    	stp	q0, q1, [x13, #0x20]
1000047bc: b4fffd0c    	cbz	x12, 0x10000475c <__ZN4core5slice4sort6shared9smallsort25insertion_sort_shift_left17h6e44e631d56ebf03E+0x28>
1000047c0: f85e01ad    	ldur	x13, [x13, #-0x20]
1000047c4: d100818c    	sub	x12, x12, #0x20
1000047c8: eb0d017f    	cmp	x11, x13
1000047cc: 54ffff23    	b.lo	0x1000047b0 <__ZN4core5slice4sort6shared9smallsort25insertion_sort_shift_left17h6e44e631d56ebf03E+0x7c>
1000047d0: 8b0c000c    	add	x12, x0, x12
1000047d4: 9100818c    	add	x12, x12, #0x20
1000047d8: 17ffffe2    	b	0x100004760 <__ZN4core5slice4sort6shared9smallsort25insertion_sort_shift_left17h6e44e631d56ebf03E+0x2c>
1000047dc: a9427bfd    	ldp	x29, x30, [sp, #0x20]
1000047e0: 9100c3ff    	add	sp, sp, #0x30
1000047e4: d65f03c0    	ret

00000001000047e8 <__ZN4core5slice4sort6shared9smallsort25insertion_sort_shift_left17h6eebe7488f1fda13E>:
1000047e8: f100043f    	cmp	x1, #0x1
1000047ec: 54000500    	b.eq	0x10000488c <__ZN4core5slice4sort6shared9smallsort25insertion_sort_shift_left17h6eebe7488f1fda13E+0xa4>
1000047f0: d10083ff    	sub	sp, sp, #0x20
1000047f4: a9017bfd    	stp	x29, x30, [sp, #0x10]
1000047f8: 910043fd    	add	x29, sp, #0x10
1000047fc: d2800008    	mov	x8, #0x0                ; =0
100004800: 9100800b    	add	x11, x0, #0x20
100004804: aa0003ec    	mov	x12, x0
100004808: 8b011409    	add	x9, x0, x1, lsl #5
10000480c: 1400000a    	b	0x100004834 <__ZN4core5slice4sort6shared9smallsort25insertion_sort_shift_left17h6eebe7488f1fda13E+0x4c>
100004810: aa0003ee    	mov	x14, x0
100004814: 3dc003e0    	ldr	q0, [sp]
100004818: 3d8001c0    	str	q0, [x14]
10000481c: a90131ab    	stp	x11, x12, [x13, #0x10]
100004820: 9100814b    	add	x11, x10, #0x20
100004824: 91008108    	add	x8, x8, #0x20
100004828: aa0a03ec    	mov	x12, x10
10000482c: eb09017f    	cmp	x11, x9
100004830: 540002a0    	b.eq	0x100004884 <__ZN4core5slice4sort6shared9smallsort25insertion_sort_shift_left17h6eebe7488f1fda13E+0x9c>
100004834: aa0b03ea    	mov	x10, x11
100004838: f940198b    	ldr	x11, [x12, #0x30]
10000483c: f940098d    	ldr	x13, [x12, #0x10]
100004840: eb0d017f    	cmp	x11, x13
100004844: 54fffee2    	b.hs	0x100004820 <__ZN4core5slice4sort6shared9smallsort25insertion_sort_shift_left17h6eebe7488f1fda13E+0x38>
100004848: 3dc00140    	ldr	q0, [x10]
10000484c: 3d8003e0    	str	q0, [sp]
100004850: f9401d8c    	ldr	x12, [x12, #0x38]
100004854: aa0803ee    	mov	x14, x8
100004858: 8b0e000d    	add	x13, x0, x14
10000485c: ad4005a0    	ldp	q0, q1, [x13]
100004860: ad0105a0    	stp	q0, q1, [x13, #0x20]
100004864: b4fffd6e    	cbz	x14, 0x100004810 <__ZN4core5slice4sort6shared9smallsort25insertion_sort_shift_left17h6eebe7488f1fda13E+0x28>
100004868: f85f01af    	ldur	x15, [x13, #-0x10]
10000486c: d10081ce    	sub	x14, x14, #0x20
100004870: eb0f017f    	cmp	x11, x15
100004874: 54ffff23    	b.lo	0x100004858 <__ZN4core5slice4sort6shared9smallsort25insertion_sort_shift_left17h6eebe7488f1fda13E+0x70>
100004878: 8b0e000e    	add	x14, x0, x14
10000487c: 910081ce    	add	x14, x14, #0x20
100004880: 17ffffe5    	b	0x100004814 <__ZN4core5slice4sort6shared9smallsort25insertion_sort_shift_left17h6eebe7488f1fda13E+0x2c>
100004884: a9417bfd    	ldp	x29, x30, [sp, #0x10]
100004888: 910083ff    	add	sp, sp, #0x20
10000488c: d65f03c0    	ret

0000000100004890 <__ZN4core5slice4sort6shared9smallsort25insertion_sort_shift_left17h99ace36e15ef35a8E>:
100004890: f100043f    	cmp	x1, #0x1
100004894: 54000540    	b.eq	0x10000493c <__ZN4core5slice4sort6shared9smallsort25insertion_sort_shift_left17h99ace36e15ef35a8E+0xac>
100004898: d10083ff    	sub	sp, sp, #0x20
10000489c: a9017bfd    	stp	x29, x30, [sp, #0x10]
1000048a0: 910043fd    	add	x29, sp, #0x10
1000048a4: d2800008    	mov	x8, #0x0                ; =0
1000048a8: 52800309    	mov	w9, #0x18               ; =24
1000048ac: 9b090029    	madd	x9, x1, x9, x0
1000048b0: 9100600b    	add	x11, x0, #0x18
1000048b4: aa0003ec    	mov	x12, x0
1000048b8: 1400000a    	b	0x1000048e0 <__ZN4core5slice4sort6shared9smallsort25insertion_sort_shift_left17h99ace36e15ef35a8E+0x50>
1000048bc: aa0003ec    	mov	x12, x0
1000048c0: f900018b    	str	x11, [x12]
1000048c4: 3dc003e0    	ldr	q0, [sp]
1000048c8: 3c808180    	stur	q0, [x12, #0x8]
1000048cc: 9100614b    	add	x11, x10, #0x18
1000048d0: 91006108    	add	x8, x8, #0x18
1000048d4: aa0a03ec    	mov	x12, x10
1000048d8: eb09017f    	cmp	x11, x9
1000048dc: 540002c0    	b.eq	0x100004934 <__ZN4core5slice4sort6shared9smallsort25insertion_sort_shift_left17h99ace36e15ef35a8E+0xa4>
1000048e0: aa0b03ea    	mov	x10, x11
1000048e4: f9400d8b    	ldr	x11, [x12, #0x18]
1000048e8: f940018d    	ldr	x13, [x12]
1000048ec: eb0d017f    	cmp	x11, x13
1000048f0: 54fffee2    	b.hs	0x1000048cc <__ZN4core5slice4sort6shared9smallsort25insertion_sort_shift_left17h99ace36e15ef35a8E+0x3c>
1000048f4: 3dc00980    	ldr	q0, [x12, #0x20]
1000048f8: 3d8003e0    	str	q0, [sp]
1000048fc: aa0803ec    	mov	x12, x8
100004900: 8b0c000d    	add	x13, x0, x12
100004904: 3dc001a0    	ldr	q0, [x13]
100004908: 3c8181a0    	stur	q0, [x13, #0x18]
10000490c: f94009ae    	ldr	x14, [x13, #0x10]
100004910: f90015ae    	str	x14, [x13, #0x28]
100004914: b4fffd4c    	cbz	x12, 0x1000048bc <__ZN4core5slice4sort6shared9smallsort25insertion_sort_shift_left17h99ace36e15ef35a8E+0x2c>
100004918: f85e81ad    	ldur	x13, [x13, #-0x18]
10000491c: d100618c    	sub	x12, x12, #0x18
100004920: eb0d017f    	cmp	x11, x13
100004924: 54fffee3    	b.lo	0x100004900 <__ZN4core5slice4sort6shared9smallsort25insertion_sort_shift_left17h99ace36e15ef35a8E+0x70>
100004928: 8b0c000c    	add	x12, x0, x12
10000492c: 9100618c    	add	x12, x12, #0x18
100004930: 17ffffe4    	b	0x1000048c0 <__ZN4core5slice4sort6shared9smallsort25insertion_sort_shift_left17h99ace36e15ef35a8E+0x30>
100004934: a9417bfd    	ldp	x29, x30, [sp, #0x10]
100004938: 910083ff    	add	sp, sp, #0x20
10000493c: d65f03c0    	ret

0000000100004940 <__ZN4core5slice4sort6shared9smallsort25insertion_sort_shift_left17hfe1c4cee2a5b93edE>:
100004940: f100043f    	cmp	x1, #0x1
100004944: 54000620    	b.eq	0x100004a08 <__ZN4core5slice4sort6shared9smallsort25insertion_sort_shift_left17hfe1c4cee2a5b93edE+0xc8>
100004948: a9bf7bfd    	stp	x29, x30, [sp, #-0x10]!
10000494c: 910003fd    	mov	x29, sp
100004950: d2800008    	mov	x8, #0x0                ; =0
100004954: 9100800b    	add	x11, x0, #0x20
100004958: aa0003ef    	mov	x15, x0
10000495c: 8b011409    	add	x9, x0, x1, lsl #5
100004960: 14000009    	b	0x100004984 <__ZN4core5slice4sort6shared9smallsort25insertion_sort_shift_left17hfe1c4cee2a5b93edE+0x44>
100004964: aa0003f0    	mov	x16, x0
100004968: a9003a0c    	stp	x12, x14, [x16]
10000496c: a901360b    	stp	x11, x13, [x16, #0x10]
100004970: 9100814b    	add	x11, x10, #0x20
100004974: 91008108    	add	x8, x8, #0x20
100004978: aa0a03ef    	mov	x15, x10
10000497c: eb09017f    	cmp	x11, x9
100004980: 54000420    	b.eq	0x100004a04 <__ZN4core5slice4sort6shared9smallsort25insertion_sort_shift_left17hfe1c4cee2a5b93edE+0xc4>
100004984: aa0b03ea    	mov	x10, x11
100004988: f94019eb    	ldr	x11, [x15, #0x30]
10000498c: f94009ed    	ldr	x13, [x15, #0x10]
100004990: f94011ec    	ldr	x12, [x15, #0x20]
100004994: eb0d017f    	cmp	x11, x13
100004998: 54000083    	b.lo	0x1000049a8 <__ZN4core5slice4sort6shared9smallsort25insertion_sort_shift_left17hfe1c4cee2a5b93edE+0x68>
10000499c: f94001ed    	ldr	x13, [x15]
1000049a0: fa4d9182    	ccmp	x12, x13, #0x2, ls
1000049a4: 54fffe62    	b.hs	0x100004970 <__ZN4core5slice4sort6shared9smallsort25insertion_sort_shift_left17hfe1c4cee2a5b93edE+0x30>
1000049a8: f94015ee    	ldr	x14, [x15, #0x28]
1000049ac: f9401ded    	ldr	x13, [x15, #0x38]
1000049b0: ad4005e0    	ldp	q0, q1, [x15]
1000049b4: ad000540    	stp	q0, q1, [x10]
1000049b8: aa0003f0    	mov	x16, x0
1000049bc: eb0001ff    	cmp	x15, x0
1000049c0: 54fffd40    	b.eq	0x100004968 <__ZN4core5slice4sort6shared9smallsort25insertion_sort_shift_left17hfe1c4cee2a5b93edE+0x28>
1000049c4: aa0803ef    	mov	x15, x8
1000049c8: 14000005    	b	0x1000049dc <__ZN4core5slice4sort6shared9smallsort25insertion_sort_shift_left17hfe1c4cee2a5b93edE+0x9c>
1000049cc: ad400620    	ldp	q0, q1, [x17]
1000049d0: ad000600    	stp	q0, q1, [x16]
1000049d4: f10081ef    	subs	x15, x15, #0x20
1000049d8: 54fffc60    	b.eq	0x100004964 <__ZN4core5slice4sort6shared9smallsort25insertion_sort_shift_left17hfe1c4cee2a5b93edE+0x24>
1000049dc: 8b0f0010    	add	x16, x0, x15
1000049e0: d1008211    	sub	x17, x16, #0x20
1000049e4: f85f0201    	ldur	x1, [x16, #-0x10]
1000049e8: eb01017f    	cmp	x11, x1
1000049ec: 54ffff03    	b.lo	0x1000049cc <__ZN4core5slice4sort6shared9smallsort25insertion_sort_shift_left17hfe1c4cee2a5b93edE+0x8c>
1000049f0: f9400221    	ldr	x1, [x17]
1000049f4: fa419182    	ccmp	x12, x1, #0x2, ls
1000049f8: 54fffea3    	b.lo	0x1000049cc <__ZN4core5slice4sort6shared9smallsort25insertion_sort_shift_left17hfe1c4cee2a5b93edE+0x8c>
1000049fc: 8b0f0010    	add	x16, x0, x15
100004a00: 17ffffda    	b	0x100004968 <__ZN4core5slice4sort6shared9smallsort25insertion_sort_shift_left17hfe1c4cee2a5b93edE+0x28>
100004a04: a8c17bfd    	ldp	x29, x30, [sp], #0x10
100004a08: d65f03c0    	ret

0000000100004a0c <__ZN4core5slice4sort6stable14driftsort_main17h235089c2da1fb2f7E>:
100004a0c: a9bb6ffc    	stp	x28, x27, [sp, #-0x50]!
100004a10: a9015ff8    	stp	x24, x23, [sp, #0x10]
100004a14: a90257f6    	stp	x22, x21, [sp, #0x20]
100004a18: a9034ff4    	stp	x20, x19, [sp, #0x30]
100004a1c: a9047bfd    	stp	x29, x30, [sp, #0x40]
100004a20: 910103fd    	add	x29, sp, #0x40
100004a24: d14007ff    	sub	sp, sp, #0x1, lsl #12   ; =0x1000
100004a28: f90003ff    	str	xzr, [sp]
100004a2c: d341fc28    	lsr	x8, x1, #1
100004a30: 52942409    	mov	w9, #0xa120             ; =41248
100004a34: 72a000e9    	movk	w9, #0x7, lsl #16
100004a38: eb09003f    	cmp	x1, x9
100004a3c: 9a893029    	csel	x9, x1, x9, lo
100004a40: eb09011f    	cmp	x8, x9
100004a44: 9a898108    	csel	x8, x8, x9, hi
100004a48: 52800609    	mov	w9, #0x30               ; =48
100004a4c: f100c11f    	cmp	x8, #0x30
100004a50: 9a898114    	csel	x20, x8, x9, hi
100004a54: f104051f    	cmp	x8, #0x101
100004a58: 540001a2    	b.hs	0x100004a8c <__ZN4core5slice4sort6stable14driftsort_main17h235089c2da1fb2f7E+0x80>
100004a5c: f101043f    	cmp	x1, #0x41
100004a60: 1a9f27e4    	cset	w4, lo
100004a64: 910003e2    	mov	x2, sp
100004a68: 52802003    	mov	w3, #0x100              ; =256
100004a6c: 9400065b    	bl	0x1000063d8 <__ZN4core5slice4sort6stable5drift4sort17haed293010cbdd2caE>
100004a70: 914007ff    	add	sp, sp, #0x1, lsl #12   ; =0x1000
100004a74: a9447bfd    	ldp	x29, x30, [sp, #0x40]
100004a78: a9434ff4    	ldp	x20, x19, [sp, #0x30]
100004a7c: a94257f6    	ldp	x22, x21, [sp, #0x20]
100004a80: a9415ff8    	ldp	x24, x23, [sp, #0x10]
100004a84: a8c56ffc    	ldp	x28, x27, [sp], #0x50
100004a88: d65f03c0    	ret
100004a8c: d2800015    	mov	x21, #0x0               ; =0
100004a90: d37cee93    	lsl	x19, x20, #4
100004a94: d37dfc28    	lsr	x8, x1, #61
100004a98: b5000408    	cbnz	x8, 0x100004b18 <__ZN4core5slice4sort6stable14driftsort_main17h235089c2da1fb2f7E+0x10c>
100004a9c: b27defe8    	mov	x8, #0x7ffffffffffffff8 ; =9223372036854775800
100004aa0: eb08027f    	cmp	x19, x8
100004aa4: 540003a8    	b.hi	0x100004b18 <__ZN4core5slice4sort6stable14driftsort_main17h235089c2da1fb2f7E+0x10c>
100004aa8: aa0003f7    	mov	x23, x0
100004aac: aa0103f8    	mov	x24, x1
100004ab0: 90000228    	adrp	x8, 0x100048000 <dyld_stub_binder+0x100048000>
100004ab4: 910e0508    	add	x8, x8, #0x381
100004ab8: 3940011f    	ldrb	wzr, [x8]
100004abc: 52800115    	mov	w21, #0x8               ; =8
100004ac0: aa1303e0    	mov	x0, x19
100004ac4: 52800101    	mov	w1, #0x8                ; =8
100004ac8: 97ffefbc    	bl	0x1000009b8 <___rust_alloc>
100004acc: b4000260    	cbz	x0, 0x100004b18 <__ZN4core5slice4sort6stable14driftsort_main17h235089c2da1fb2f7E+0x10c>
100004ad0: aa0003f6    	mov	x22, x0
100004ad4: aa1803e1    	mov	x1, x24
100004ad8: f101071f    	cmp	x24, #0x41
100004adc: 1a9f27e4    	cset	w4, lo
100004ae0: aa1703e0    	mov	x0, x23
100004ae4: aa1603e2    	mov	x2, x22
100004ae8: aa1403e3    	mov	x3, x20
100004aec: 9400063b    	bl	0x1000063d8 <__ZN4core5slice4sort6stable5drift4sort17haed293010cbdd2caE>
100004af0: aa1603e0    	mov	x0, x22
100004af4: aa1303e1    	mov	x1, x19
100004af8: 52800102    	mov	w2, #0x8                ; =8
100004afc: 914007ff    	add	sp, sp, #0x1, lsl #12   ; =0x1000
100004b00: a9447bfd    	ldp	x29, x30, [sp, #0x40]
100004b04: a9434ff4    	ldp	x20, x19, [sp, #0x30]
100004b08: a94257f6    	ldp	x22, x21, [sp, #0x20]
100004b0c: a9415ff8    	ldp	x24, x23, [sp, #0x10]
100004b10: a8c56ffc    	ldp	x28, x27, [sp], #0x50
100004b14: 17ffefaa    	b	0x1000009bc <___rust_dealloc>
100004b18: 90000202    	adrp	x2, 0x100044000 <dyld_stub_binder+0x100044000>
100004b1c: 9106e042    	add	x2, x2, #0x1b8
100004b20: aa1503e0    	mov	x0, x21
100004b24: aa1303e1    	mov	x1, x19
100004b28: 9400c436    	bl	0x100035c00 <__ZN5alloc7raw_vec12handle_error17h601d29026320c7bcE>
100004b2c: aa0003f4    	mov	x20, x0
100004b30: aa1603e0    	mov	x0, x22
100004b34: aa1303e1    	mov	x1, x19
100004b38: 52800102    	mov	w2, #0x8                ; =8
100004b3c: 97ffefa0    	bl	0x1000009bc <___rust_dealloc>
100004b40: aa1403e0    	mov	x0, x20
100004b44: 9400c57c    	bl	0x100036134 <dyld_stub_binder+0x100036134>

0000000100004b48 <__ZN4core5slice4sort6stable14driftsort_main17h26013f2a2afed6c9E>:
100004b48: a9bb6ffc    	stp	x28, x27, [sp, #-0x50]!
100004b4c: a9015ff8    	stp	x24, x23, [sp, #0x10]
100004b50: a90257f6    	stp	x22, x21, [sp, #0x20]
100004b54: a9034ff4    	stp	x20, x19, [sp, #0x30]
100004b58: a9047bfd    	stp	x29, x30, [sp, #0x40]
100004b5c: 910103fd    	add	x29, sp, #0x40
100004b60: d14007ff    	sub	sp, sp, #0x1, lsl #12   ; =0x1000
100004b64: f90003ff    	str	xzr, [sp]
100004b68: d341fc28    	lsr	x8, x1, #1
100004b6c: 529a1209    	mov	w9, #0xd090             ; =53392
100004b70: 72a00069    	movk	w9, #0x3, lsl #16
100004b74: eb09003f    	cmp	x1, x9
100004b78: 9a893029    	csel	x9, x1, x9, lo
100004b7c: eb09011f    	cmp	x8, x9
100004b80: 9a898108    	csel	x8, x8, x9, hi
100004b84: 52800609    	mov	w9, #0x30               ; =48
100004b88: f100c11f    	cmp	x8, #0x30
100004b8c: 9a898114    	csel	x20, x8, x9, hi
100004b90: f102051f    	cmp	x8, #0x81
100004b94: 540001a2    	b.hs	0x100004bc8 <__ZN4core5slice4sort6stable14driftsort_main17h26013f2a2afed6c9E+0x80>
100004b98: f101043f    	cmp	x1, #0x41
100004b9c: 1a9f27e4    	cset	w4, lo
100004ba0: 910003e2    	mov	x2, sp
100004ba4: 52801003    	mov	w3, #0x80               ; =128
100004ba8: 940004a2    	bl	0x100005e30 <__ZN4core5slice4sort6stable5drift4sort17h2a75905af51625f8E>
100004bac: 914007ff    	add	sp, sp, #0x1, lsl #12   ; =0x1000
100004bb0: a9447bfd    	ldp	x29, x30, [sp, #0x40]
100004bb4: a9434ff4    	ldp	x20, x19, [sp, #0x30]
100004bb8: a94257f6    	ldp	x22, x21, [sp, #0x20]
100004bbc: a9415ff8    	ldp	x24, x23, [sp, #0x10]
100004bc0: a8c56ffc    	ldp	x28, x27, [sp], #0x50
100004bc4: d65f03c0    	ret
100004bc8: d2800015    	mov	x21, #0x0               ; =0
100004bcc: d37bea93    	lsl	x19, x20, #5
100004bd0: d37cfc28    	lsr	x8, x1, #60
100004bd4: b5000408    	cbnz	x8, 0x100004c54 <__ZN4core5slice4sort6stable14driftsort_main17h26013f2a2afed6c9E+0x10c>
100004bd8: b27defe8    	mov	x8, #0x7ffffffffffffff8 ; =9223372036854775800
100004bdc: eb08027f    	cmp	x19, x8
100004be0: 540003a8    	b.hi	0x100004c54 <__ZN4core5slice4sort6stable14driftsort_main17h26013f2a2afed6c9E+0x10c>
100004be4: aa0003f7    	mov	x23, x0
100004be8: aa0103f8    	mov	x24, x1
100004bec: 90000228    	adrp	x8, 0x100048000 <dyld_stub_binder+0x100048000>
100004bf0: 910e0508    	add	x8, x8, #0x381
100004bf4: 3940011f    	ldrb	wzr, [x8]
100004bf8: 52800115    	mov	w21, #0x8               ; =8
100004bfc: aa1303e0    	mov	x0, x19
100004c00: 52800101    	mov	w1, #0x8                ; =8
100004c04: 97ffef6d    	bl	0x1000009b8 <___rust_alloc>
100004c08: b4000260    	cbz	x0, 0x100004c54 <__ZN4core5slice4sort6stable14driftsort_main17h26013f2a2afed6c9E+0x10c>
100004c0c: aa0003f6    	mov	x22, x0
100004c10: aa1803e1    	mov	x1, x24
100004c14: f101071f    	cmp	x24, #0x41
100004c18: 1a9f27e4    	cset	w4, lo
100004c1c: aa1703e0    	mov	x0, x23
100004c20: aa1603e2    	mov	x2, x22
100004c24: aa1403e3    	mov	x3, x20
100004c28: 94000482    	bl	0x100005e30 <__ZN4core5slice4sort6stable5drift4sort17h2a75905af51625f8E>
100004c2c: aa1603e0    	mov	x0, x22
100004c30: aa1303e1    	mov	x1, x19
100004c34: 52800102    	mov	w2, #0x8                ; =8
100004c38: 914007ff    	add	sp, sp, #0x1, lsl #12   ; =0x1000
100004c3c: a9447bfd    	ldp	x29, x30, [sp, #0x40]
100004c40: a9434ff4    	ldp	x20, x19, [sp, #0x30]
100004c44: a94257f6    	ldp	x22, x21, [sp, #0x20]
100004c48: a9415ff8    	ldp	x24, x23, [sp, #0x10]
100004c4c: a8c56ffc    	ldp	x28, x27, [sp], #0x50
100004c50: 17ffef5b    	b	0x1000009bc <___rust_dealloc>
100004c54: 90000202    	adrp	x2, 0x100044000 <dyld_stub_binder+0x100044000>
100004c58: 9106e042    	add	x2, x2, #0x1b8
100004c5c: aa1503e0    	mov	x0, x21
100004c60: aa1303e1    	mov	x1, x19
100004c64: 9400c3e7    	bl	0x100035c00 <__ZN5alloc7raw_vec12handle_error17h601d29026320c7bcE>
100004c68: aa0003f4    	mov	x20, x0
100004c6c: aa1603e0    	mov	x0, x22
100004c70: aa1303e1    	mov	x1, x19
100004c74: 52800102    	mov	w2, #0x8                ; =8
100004c78: 97ffef51    	bl	0x1000009bc <___rust_dealloc>
100004c7c: aa1403e0    	mov	x0, x20
100004c80: 9400c52d    	bl	0x100036134 <dyld_stub_binder+0x100036134>

0000000100004c84 <__ZN4core5slice4sort6stable14driftsort_main17h357f62adcadd0827E>:
100004c84: a9bc5ff8    	stp	x24, x23, [sp, #-0x40]!
100004c88: a90157f6    	stp	x22, x21, [sp, #0x10]
100004c8c: a9024ff4    	stp	x20, x19, [sp, #0x20]
100004c90: a9037bfd    	stp	x29, x30, [sp, #0x30]
100004c94: 9100c3fd    	add	x29, sp, #0x30
100004c98: d14007ff    	sub	sp, sp, #0x1, lsl #12   ; =0x1000
100004c9c: f90003ff    	str	xzr, [sp]
100004ca0: d341fc28    	lsr	x8, x1, #1
100004ca4: 5282c2a9    	mov	w9, #0x1615             ; =5653
100004ca8: 72a000a9    	movk	w9, #0x5, lsl #16
100004cac: eb09003f    	cmp	x1, x9
100004cb0: 9a893029    	csel	x9, x1, x9, lo
100004cb4: eb09011f    	cmp	x8, x9
100004cb8: 9a898108    	csel	x8, x8, x9, hi
100004cbc: 52800609    	mov	w9, #0x30               ; =48
100004cc0: f100c11f    	cmp	x8, #0x30
100004cc4: 9a898113    	csel	x19, x8, x9, hi
100004cc8: f102ad1f    	cmp	x8, #0xab
100004ccc: 54000182    	b.hs	0x100004cfc <__ZN4core5slice4sort6stable14driftsort_main17h357f62adcadd0827E+0x78>
100004cd0: f101043f    	cmp	x1, #0x41
100004cd4: 1a9f27e4    	cset	w4, lo
100004cd8: 910003e2    	mov	x2, sp
100004cdc: 52801543    	mov	w3, #0xaa               ; =170
100004ce0: 94000844    	bl	0x100006df0 <__ZN4core5slice4sort6stable5drift4sort17hde2de3c55f28f1ccE>
100004ce4: 914007ff    	add	sp, sp, #0x1, lsl #12   ; =0x1000
100004ce8: a9437bfd    	ldp	x29, x30, [sp, #0x30]
100004cec: a9424ff4    	ldp	x20, x19, [sp, #0x20]
100004cf0: a94157f6    	ldp	x22, x21, [sp, #0x10]
100004cf4: a8c45ff8    	ldp	x24, x23, [sp], #0x40
100004cf8: d65f03c0    	ret
100004cfc: d2800016    	mov	x22, #0x0               ; =0
100004d00: 52800308    	mov	w8, #0x18               ; =24
100004d04: 9bc87e68    	umulh	x8, x19, x8
100004d08: 8b130669    	add	x9, x19, x19, lsl #1
100004d0c: d37df135    	lsl	x21, x9, #3
100004d10: eb0803ff    	cmp	xzr, x8
100004d14: 54000481    	b.ne	0x100004da4 <__ZN4core5slice4sort6stable14driftsort_main17h357f62adcadd0827E+0x120>
100004d18: b27defe8    	mov	x8, #0x7ffffffffffffff8 ; =9223372036854775800
100004d1c: eb0802bf    	cmp	x21, x8
100004d20: 54000428    	b.hi	0x100004da4 <__ZN4core5slice4sort6stable14driftsort_main17h357f62adcadd0827E+0x120>
100004d24: b40001f5    	cbz	x21, 0x100004d60 <__ZN4core5slice4sort6stable14driftsort_main17h357f62adcadd0827E+0xdc>
100004d28: 90000228    	adrp	x8, 0x100048000 <dyld_stub_binder+0x100048000>
100004d2c: 910e0508    	add	x8, x8, #0x381
100004d30: 3940011f    	ldrb	wzr, [x8]
100004d34: 52800116    	mov	w22, #0x8               ; =8
100004d38: aa0003f7    	mov	x23, x0
100004d3c: aa1503e0    	mov	x0, x21
100004d40: aa0103f4    	mov	x20, x1
100004d44: 52800101    	mov	w1, #0x8                ; =8
100004d48: 97ffef1c    	bl	0x1000009b8 <___rust_alloc>
100004d4c: aa1403e1    	mov	x1, x20
100004d50: aa0003f4    	mov	x20, x0
100004d54: b4000280    	cbz	x0, 0x100004da4 <__ZN4core5slice4sort6stable14driftsort_main17h357f62adcadd0827E+0x120>
100004d58: aa1703e0    	mov	x0, x23
100004d5c: 14000003    	b	0x100004d68 <__ZN4core5slice4sort6stable14driftsort_main17h357f62adcadd0827E+0xe4>
100004d60: d2800013    	mov	x19, #0x0               ; =0
100004d64: 52800114    	mov	w20, #0x8               ; =8
100004d68: f101043f    	cmp	x1, #0x41
100004d6c: 1a9f27e4    	cset	w4, lo
100004d70: aa1403e2    	mov	x2, x20
100004d74: aa1303e3    	mov	x3, x19
100004d78: 9400081e    	bl	0x100006df0 <__ZN4core5slice4sort6stable5drift4sort17hde2de3c55f28f1ccE>
100004d7c: 8b130668    	add	x8, x19, x19, lsl #1
100004d80: d37df101    	lsl	x1, x8, #3
100004d84: aa1403e0    	mov	x0, x20
100004d88: 52800102    	mov	w2, #0x8                ; =8
100004d8c: 914007ff    	add	sp, sp, #0x1, lsl #12   ; =0x1000
100004d90: a9437bfd    	ldp	x29, x30, [sp, #0x30]
100004d94: a9424ff4    	ldp	x20, x19, [sp, #0x20]
100004d98: a94157f6    	ldp	x22, x21, [sp, #0x10]
100004d9c: a8c45ff8    	ldp	x24, x23, [sp], #0x40
100004da0: 17ffef07    	b	0x1000009bc <___rust_dealloc>
100004da4: 90000202    	adrp	x2, 0x100044000 <dyld_stub_binder+0x100044000>
100004da8: 9106e042    	add	x2, x2, #0x1b8
100004dac: aa1603e0    	mov	x0, x22
100004db0: aa1503e1    	mov	x1, x21
100004db4: 9400c393    	bl	0x100035c00 <__ZN5alloc7raw_vec12handle_error17h601d29026320c7bcE>
100004db8: aa0003f5    	mov	x21, x0
100004dbc: 8b130668    	add	x8, x19, x19, lsl #1
100004dc0: d37df101    	lsl	x1, x8, #3
100004dc4: aa1403e0    	mov	x0, x20
100004dc8: 52800102    	mov	w2, #0x8                ; =8
100004dcc: 97ffeefc    	bl	0x1000009bc <___rust_dealloc>
100004dd0: aa1503e0    	mov	x0, x21
100004dd4: 9400c4d8    	bl	0x100036134 <dyld_stub_binder+0x100036134>

0000000100004dd8 <__ZN4core5slice4sort6stable14driftsort_main17h801a49988ac95e60E>:
100004dd8: a9bb6ffc    	stp	x28, x27, [sp, #-0x50]!
100004ddc: a9015ff8    	stp	x24, x23, [sp, #0x10]
100004de0: a90257f6    	stp	x22, x21, [sp, #0x20]
100004de4: a9034ff4    	stp	x20, x19, [sp, #0x30]
100004de8: a9047bfd    	stp	x29, x30, [sp, #0x40]
100004dec: 910103fd    	add	x29, sp, #0x40
100004df0: d14007ff    	sub	sp, sp, #0x1, lsl #12   ; =0x1000
100004df4: f90003ff    	str	xzr, [sp]
100004df8: d341fc28    	lsr	x8, x1, #1
100004dfc: 529a1209    	mov	w9, #0xd090             ; =53392
100004e00: 72a00069    	movk	w9, #0x3, lsl #16
100004e04: eb09003f    	cmp	x1, x9
100004e08: 9a893029    	csel	x9, x1, x9, lo
100004e0c: eb09011f    	cmp	x8, x9
100004e10: 9a898108    	csel	x8, x8, x9, hi
100004e14: 52800609    	mov	w9, #0x30               ; =48
100004e18: f100c11f    	cmp	x8, #0x30
100004e1c: 9a898114    	csel	x20, x8, x9, hi
100004e20: f102051f    	cmp	x8, #0x81
100004e24: 540001a2    	b.hs	0x100004e58 <__ZN4core5slice4sort6stable14driftsort_main17h801a49988ac95e60E+0x80>
100004e28: f101043f    	cmp	x1, #0x41
100004e2c: 1a9f27e4    	cset	w4, lo
100004e30: 910003e2    	mov	x2, sp
100004e34: 52801003    	mov	w3, #0x80               ; =128
100004e38: 940000db    	bl	0x1000051a4 <__ZN4core5slice4sort6stable5drift4sort17h015b846e08754a9fE>
100004e3c: 914007ff    	add	sp, sp, #0x1, lsl #12   ; =0x1000
100004e40: a9447bfd    	ldp	x29, x30, [sp, #0x40]
100004e44: a9434ff4    	ldp	x20, x19, [sp, #0x30]
100004e48: a94257f6    	ldp	x22, x21, [sp, #0x20]
100004e4c: a9415ff8    	ldp	x24, x23, [sp, #0x10]
100004e50: a8c56ffc    	ldp	x28, x27, [sp], #0x50
100004e54: d65f03c0    	ret
100004e58: d2800015    	mov	x21, #0x0               ; =0
100004e5c: d37bea93    	lsl	x19, x20, #5
100004e60: d37cfc28    	lsr	x8, x1, #60
100004e64: b5000408    	cbnz	x8, 0x100004ee4 <__ZN4core5slice4sort6stable14driftsort_main17h801a49988ac95e60E+0x10c>
100004e68: b27defe8    	mov	x8, #0x7ffffffffffffff8 ; =9223372036854775800
100004e6c: eb08027f    	cmp	x19, x8
100004e70: 540003a8    	b.hi	0x100004ee4 <__ZN4core5slice4sort6stable14driftsort_main17h801a49988ac95e60E+0x10c>
100004e74: aa0003f7    	mov	x23, x0
100004e78: aa0103f8    	mov	x24, x1
100004e7c: 90000228    	adrp	x8, 0x100048000 <dyld_stub_binder+0x100048000>
100004e80: 910e0508    	add	x8, x8, #0x381
100004e84: 3940011f    	ldrb	wzr, [x8]
100004e88: 52800115    	mov	w21, #0x8               ; =8
100004e8c: aa1303e0    	mov	x0, x19
100004e90: 52800101    	mov	w1, #0x8                ; =8
100004e94: 97ffeec9    	bl	0x1000009b8 <___rust_alloc>
100004e98: b4000260    	cbz	x0, 0x100004ee4 <__ZN4core5slice4sort6stable14driftsort_main17h801a49988ac95e60E+0x10c>
100004e9c: aa0003f6    	mov	x22, x0
100004ea0: aa1803e1    	mov	x1, x24
100004ea4: f101071f    	cmp	x24, #0x41
100004ea8: 1a9f27e4    	cset	w4, lo
100004eac: aa1703e0    	mov	x0, x23
100004eb0: aa1603e2    	mov	x2, x22
100004eb4: aa1403e3    	mov	x3, x20
100004eb8: 940000bb    	bl	0x1000051a4 <__ZN4core5slice4sort6stable5drift4sort17h015b846e08754a9fE>
100004ebc: aa1603e0    	mov	x0, x22
100004ec0: aa1303e1    	mov	x1, x19
100004ec4: 52800102    	mov	w2, #0x8                ; =8
100004ec8: 914007ff    	add	sp, sp, #0x1, lsl #12   ; =0x1000
100004ecc: a9447bfd    	ldp	x29, x30, [sp, #0x40]
100004ed0: a9434ff4    	ldp	x20, x19, [sp, #0x30]
100004ed4: a94257f6    	ldp	x22, x21, [sp, #0x20]
100004ed8: a9415ff8    	ldp	x24, x23, [sp, #0x10]
100004edc: a8c56ffc    	ldp	x28, x27, [sp], #0x50
100004ee0: 17ffeeb7    	b	0x1000009bc <___rust_dealloc>
100004ee4: 90000202    	adrp	x2, 0x100044000 <dyld_stub_binder+0x100044000>
100004ee8: 9106e042    	add	x2, x2, #0x1b8
100004eec: aa1503e0    	mov	x0, x21
100004ef0: aa1303e1    	mov	x1, x19
100004ef4: 9400c343    	bl	0x100035c00 <__ZN5alloc7raw_vec12handle_error17h601d29026320c7bcE>
100004ef8: aa0003f4    	mov	x20, x0
100004efc: aa1603e0    	mov	x0, x22
100004f00: aa1303e1    	mov	x1, x19
100004f04: 52800102    	mov	w2, #0x8                ; =8
100004f08: 97ffeead    	bl	0x1000009bc <___rust_dealloc>
100004f0c: aa1403e0    	mov	x0, x20
100004f10: 9400c489    	bl	0x100036134 <dyld_stub_binder+0x100036134>

0000000100004f14 <__ZN4core5slice4sort6stable14driftsort_main17h9125827666859264E>:
100004f14: a9bc5ff8    	stp	x24, x23, [sp, #-0x40]!
100004f18: a90157f6    	stp	x22, x21, [sp, #0x10]
100004f1c: a9024ff4    	stp	x20, x19, [sp, #0x20]
100004f20: a9037bfd    	stp	x29, x30, [sp, #0x30]
100004f24: 9100c3fd    	add	x29, sp, #0x30
100004f28: d14007ff    	sub	sp, sp, #0x1, lsl #12   ; =0x1000
100004f2c: f90003ff    	str	xzr, [sp]
100004f30: d341fc28    	lsr	x8, x1, #1
100004f34: 5281a809    	mov	w9, #0xd40              ; =3392
100004f38: 72a00069    	movk	w9, #0x3, lsl #16
100004f3c: eb09003f    	cmp	x1, x9
100004f40: 9a893029    	csel	x9, x1, x9, lo
100004f44: eb09011f    	cmp	x8, x9
100004f48: 9a898108    	csel	x8, x8, x9, hi
100004f4c: 52800609    	mov	w9, #0x30               ; =48
100004f50: f100c11f    	cmp	x8, #0x30
100004f54: 9a898113    	csel	x19, x8, x9, hi
100004f58: f1019d1f    	cmp	x8, #0x67
100004f5c: 54000182    	b.hs	0x100004f8c <__ZN4core5slice4sort6stable14driftsort_main17h9125827666859264E+0x78>
100004f60: f101043f    	cmp	x1, #0x41
100004f64: 1a9f27e4    	cset	w4, lo
100004f68: 910003e2    	mov	x2, sp
100004f6c: 52800cc3    	mov	w3, #0x66               ; =102
100004f70: 94000651    	bl	0x1000068b4 <__ZN4core5slice4sort6stable5drift4sort17hc7f9f68490e940f2E>
100004f74: 914007ff    	add	sp, sp, #0x1, lsl #12   ; =0x1000
100004f78: a9437bfd    	ldp	x29, x30, [sp, #0x30]
100004f7c: a9424ff4    	ldp	x20, x19, [sp, #0x20]
100004f80: a94157f6    	ldp	x22, x21, [sp, #0x10]
100004f84: a8c45ff8    	ldp	x24, x23, [sp], #0x40
100004f88: d65f03c0    	ret
100004f8c: d2800016    	mov	x22, #0x0               ; =0
100004f90: 52800508    	mov	w8, #0x28               ; =40
100004f94: 9bc87e68    	umulh	x8, x19, x8
100004f98: 8b130a69    	add	x9, x19, x19, lsl #2
100004f9c: d37df135    	lsl	x21, x9, #3
100004fa0: eb0803ff    	cmp	xzr, x8
100004fa4: 54000481    	b.ne	0x100005034 <__ZN4core5slice4sort6stable14driftsort_main17h9125827666859264E+0x120>
100004fa8: b27defe8    	mov	x8, #0x7ffffffffffffff8 ; =9223372036854775800
100004fac: eb0802bf    	cmp	x21, x8
100004fb0: 54000428    	b.hi	0x100005034 <__ZN4core5slice4sort6stable14driftsort_main17h9125827666859264E+0x120>
100004fb4: b40001f5    	cbz	x21, 0x100004ff0 <__ZN4core5slice4sort6stable14driftsort_main17h9125827666859264E+0xdc>
100004fb8: 90000228    	adrp	x8, 0x100048000 <dyld_stub_binder+0x100048000>
100004fbc: 910e0508    	add	x8, x8, #0x381
100004fc0: 3940011f    	ldrb	wzr, [x8]
100004fc4: 52800116    	mov	w22, #0x8               ; =8
100004fc8: aa0003f7    	mov	x23, x0
100004fcc: aa1503e0    	mov	x0, x21
100004fd0: aa0103f4    	mov	x20, x1
100004fd4: 52800101    	mov	w1, #0x8                ; =8
100004fd8: 97ffee78    	bl	0x1000009b8 <___rust_alloc>
100004fdc: aa1403e1    	mov	x1, x20
100004fe0: aa0003f4    	mov	x20, x0
100004fe4: b4000280    	cbz	x0, 0x100005034 <__ZN4core5slice4sort6stable14driftsort_main17h9125827666859264E+0x120>
100004fe8: aa1703e0    	mov	x0, x23
100004fec: 14000003    	b	0x100004ff8 <__ZN4core5slice4sort6stable14driftsort_main17h9125827666859264E+0xe4>
100004ff0: d2800013    	mov	x19, #0x0               ; =0
100004ff4: 52800114    	mov	w20, #0x8               ; =8
100004ff8: f101043f    	cmp	x1, #0x41
100004ffc: 1a9f27e4    	cset	w4, lo
100005000: aa1403e2    	mov	x2, x20
100005004: aa1303e3    	mov	x3, x19
100005008: 9400062b    	bl	0x1000068b4 <__ZN4core5slice4sort6stable5drift4sort17hc7f9f68490e940f2E>
10000500c: 8b130a68    	add	x8, x19, x19, lsl #2
100005010: d37df101    	lsl	x1, x8, #3
100005014: aa1403e0    	mov	x0, x20
100005018: 52800102    	mov	w2, #0x8                ; =8
10000501c: 914007ff    	add	sp, sp, #0x1, lsl #12   ; =0x1000
100005020: a9437bfd    	ldp	x29, x30, [sp, #0x30]
100005024: a9424ff4    	ldp	x20, x19, [sp, #0x20]
100005028: a94157f6    	ldp	x22, x21, [sp, #0x10]
10000502c: a8c45ff8    	ldp	x24, x23, [sp], #0x40
100005030: 17ffee63    	b	0x1000009bc <___rust_dealloc>
100005034: f00001e2    	adrp	x2, 0x100044000 <dyld_stub_binder+0x100044000>
100005038: 9106e042    	add	x2, x2, #0x1b8
10000503c: aa1603e0    	mov	x0, x22
100005040: aa1503e1    	mov	x1, x21
100005044: 9400c2ef    	bl	0x100035c00 <__ZN5alloc7raw_vec12handle_error17h601d29026320c7bcE>
100005048: aa0003f5    	mov	x21, x0
10000504c: 8b130a68    	add	x8, x19, x19, lsl #2
100005050: d37df101    	lsl	x1, x8, #3
100005054: aa1403e0    	mov	x0, x20
100005058: 52800102    	mov	w2, #0x8                ; =8
10000505c: 97ffee58    	bl	0x1000009bc <___rust_dealloc>
100005060: aa1503e0    	mov	x0, x21
100005064: 9400c434    	bl	0x100036134 <dyld_stub_binder+0x100036134>

0000000100005068 <__ZN4core5slice4sort6stable14driftsort_main17hc1768f3bf38aec53E>:
100005068: a9bb6ffc    	stp	x28, x27, [sp, #-0x50]!
10000506c: a9015ff8    	stp	x24, x23, [sp, #0x10]
100005070: a90257f6    	stp	x22, x21, [sp, #0x20]
100005074: a9034ff4    	stp	x20, x19, [sp, #0x30]
100005078: a9047bfd    	stp	x29, x30, [sp, #0x40]
10000507c: 910103fd    	add	x29, sp, #0x40
100005080: d14007ff    	sub	sp, sp, #0x1, lsl #12   ; =0x1000
100005084: f90003ff    	str	xzr, [sp]
100005088: d341fc28    	lsr	x8, x1, #1
10000508c: 529a1209    	mov	w9, #0xd090             ; =53392
100005090: 72a00069    	movk	w9, #0x3, lsl #16
100005094: eb09003f    	cmp	x1, x9
100005098: 9a893029    	csel	x9, x1, x9, lo
10000509c: eb09011f    	cmp	x8, x9
1000050a0: 9a898108    	csel	x8, x8, x9, hi
1000050a4: 52800609    	mov	w9, #0x30               ; =48
1000050a8: f100c11f    	cmp	x8, #0x30
1000050ac: 9a898114    	csel	x20, x8, x9, hi
1000050b0: f102051f    	cmp	x8, #0x81
1000050b4: 540001a2    	b.hs	0x1000050e8 <__ZN4core5slice4sort6stable14driftsort_main17hc1768f3bf38aec53E+0x80>
1000050b8: f101043f    	cmp	x1, #0x41
1000050bc: 1a9f27e4    	cset	w4, lo
1000050c0: 910003e2    	mov	x2, sp
1000050c4: 52801003    	mov	w3, #0x80               ; =128
1000050c8: 940001ee    	bl	0x100005880 <__ZN4core5slice4sort6stable5drift4sort17h17aa28f081c4a7a6E>
1000050cc: 914007ff    	add	sp, sp, #0x1, lsl #12   ; =0x1000
1000050d0: a9447bfd    	ldp	x29, x30, [sp, #0x40]
1000050d4: a9434ff4    	ldp	x20, x19, [sp, #0x30]
1000050d8: a94257f6    	ldp	x22, x21, [sp, #0x20]
1000050dc: a9415ff8    	ldp	x24, x23, [sp, #0x10]
1000050e0: a8c56ffc    	ldp	x28, x27, [sp], #0x50
1000050e4: d65f03c0    	ret
1000050e8: d2800016    	mov	x22, #0x0               ; =0
1000050ec: d37bea93    	lsl	x19, x20, #5
1000050f0: d37cfc28    	lsr	x8, x1, #60
1000050f4: b5000448    	cbnz	x8, 0x10000517c <__ZN4core5slice4sort6stable14driftsort_main17hc1768f3bf38aec53E+0x114>
1000050f8: b27defe8    	mov	x8, #0x7ffffffffffffff8 ; =9223372036854775800
1000050fc: eb08027f    	cmp	x19, x8
100005100: 540003e8    	b.hi	0x10000517c <__ZN4core5slice4sort6stable14driftsort_main17hc1768f3bf38aec53E+0x114>
100005104: aa0003f5    	mov	x21, x0
100005108: aa0103f8    	mov	x24, x1
10000510c: f0000208    	adrp	x8, 0x100048000 <dyld_stub_binder+0x100048000>
100005110: 910e0508    	add	x8, x8, #0x381
100005114: 3940011f    	ldrb	wzr, [x8]
100005118: 52800116    	mov	w22, #0x8               ; =8
10000511c: aa1303e0    	mov	x0, x19
100005120: 52800101    	mov	w1, #0x8                ; =8
100005124: 97ffee25    	bl	0x1000009b8 <___rust_alloc>
100005128: b40002a0    	cbz	x0, 0x10000517c <__ZN4core5slice4sort6stable14driftsort_main17hc1768f3bf38aec53E+0x114>
10000512c: aa0003f7    	mov	x23, x0
100005130: a90003f4    	stp	x20, x0, [sp]
100005134: f9000bff    	str	xzr, [sp, #0x10]
100005138: aa1803e1    	mov	x1, x24
10000513c: f101071f    	cmp	x24, #0x41
100005140: 1a9f27e4    	cset	w4, lo
100005144: aa1503e0    	mov	x0, x21
100005148: aa1703e2    	mov	x2, x23
10000514c: aa1403e3    	mov	x3, x20
100005150: 940001cc    	bl	0x100005880 <__ZN4core5slice4sort6stable5drift4sort17h17aa28f081c4a7a6E>
100005154: aa1703e0    	mov	x0, x23
100005158: aa1303e1    	mov	x1, x19
10000515c: 52800102    	mov	w2, #0x8                ; =8
100005160: 914007ff    	add	sp, sp, #0x1, lsl #12   ; =0x1000
100005164: a9447bfd    	ldp	x29, x30, [sp, #0x40]
100005168: a9434ff4    	ldp	x20, x19, [sp, #0x30]
10000516c: a94257f6    	ldp	x22, x21, [sp, #0x20]
100005170: a9415ff8    	ldp	x24, x23, [sp, #0x10]
100005174: a8c56ffc    	ldp	x28, x27, [sp], #0x50
100005178: 17ffee11    	b	0x1000009bc <___rust_dealloc>
10000517c: f00001e2    	adrp	x2, 0x100044000 <dyld_stub_binder+0x100044000>
100005180: 9106e042    	add	x2, x2, #0x1b8
100005184: aa1603e0    	mov	x0, x22
100005188: aa1303e1    	mov	x1, x19
10000518c: 9400c29d    	bl	0x100035c00 <__ZN5alloc7raw_vec12handle_error17h601d29026320c7bcE>
100005190: aa0003f3    	mov	x19, x0
100005194: 910003e0    	mov	x0, sp
100005198: 97fff515    	bl	0x1000025ec <__ZN4core3ptr67drop_in_place$LT$alloc..vec..Vec$LT$addr2line..LineSequence$GT$$GT$17hc20f43175fe5fb80E>
10000519c: aa1303e0    	mov	x0, x19
1000051a0: 9400c3e5    	bl	0x100036134 <dyld_stub_binder+0x100036134>

00000001000051a4 <__ZN4core5slice4sort6stable5drift4sort17h015b846e08754a9fE>:
1000051a4: a9ba6ffc    	stp	x28, x27, [sp, #-0x60]!
1000051a8: a90167fa    	stp	x26, x25, [sp, #0x10]
1000051ac: a9025ff8    	stp	x24, x23, [sp, #0x20]
1000051b0: a90357f6    	stp	x22, x21, [sp, #0x30]
1000051b4: a9044ff4    	stp	x20, x19, [sp, #0x40]
1000051b8: a9057bfd    	stp	x29, x30, [sp, #0x50]
1000051bc: 910143fd    	add	x29, sp, #0x50
1000051c0: d10c03ff    	sub	sp, sp, #0x300
1000051c4: b9003fe4    	str	w4, [sp, #0x3c]
1000051c8: f90047e2    	str	x2, [sp, #0x88]
1000051cc: aa0103f4    	mov	x20, x1
1000051d0: aa0003f5    	mov	x21, x0
1000051d4: 92f80008    	mov	x8, #0x3fffffffffffffff ; =4611686018427387903
1000051d8: 8b080033    	add	x19, x1, x8
1000051dc: f140043f    	cmp	x1, #0x1, lsl #12       ; =0x1000
1000051e0: f9004fe3    	str	x3, [sp, #0x98]
1000051e4: 540000e8    	b.hi	0x100005200 <__ZN4core5slice4sort6stable5drift4sort17h015b846e08754a9fE+0x5c>
1000051e8: cb540688    	sub	x8, x20, x20, lsr #1
1000051ec: 52800809    	mov	w9, #0x40               ; =64
1000051f0: f101011f    	cmp	x8, #0x40
1000051f4: 9a893108    	csel	x8, x8, x9, lo
1000051f8: f90033e8    	str	x8, [sp, #0x60]
1000051fc: 14000005    	b	0x100005210 <__ZN4core5slice4sort6stable5drift4sort17h015b846e08754a9fE+0x6c>
100005200: aa1403e0    	mov	x0, x20
100005204: 9400b488    	bl	0x100032424 <__ZN4core5slice4sort6stable5drift11sqrt_approx17hf95746fd6ef160bfE>
100005208: f9404fe3    	ldr	x3, [sp, #0x98]
10000520c: f90033e0    	str	x0, [sp, #0x60]
100005210: d2800016    	mov	x22, #0x0               ; =0
100005214: d2800017    	mov	x23, #0x0               ; =0
100005218: d10022a9    	sub	x9, x21, #0x8
10000521c: d10042aa    	sub	x10, x21, #0x10
100005220: d10062a8    	sub	x8, x21, #0x18
100005224: a900a3e9    	stp	x9, x8, [sp, #0x8]
100005228: d10082a8    	sub	x8, x21, #0x20
10000522c: a904a3f4    	stp	x20, x8, [sp, #0x48]
100005230: 910142a8    	add	x8, x21, #0x50
100005234: a9022be8    	stp	x8, x10, [sp, #0x20]
100005238: 910102a8    	add	x8, x21, #0x40
10000523c: f9001be8    	str	x8, [sp, #0x30]
100005240: d10102a8    	sub	x8, x21, #0x40
100005244: f90003e8    	str	x8, [sp]
100005248: 910042a8    	add	x8, x21, #0x10
10000524c: f9000fe8    	str	x8, [sp, #0x18]
100005250: 5280003c    	mov	w28, #0x1               ; =1
100005254: 9ad40a68    	udiv	x8, x19, x20
100005258: f90023e8    	str	x8, [sp, #0x40]
10000525c: f9003ff5    	str	x21, [sp, #0x78]
100005260: eb160289    	subs	x9, x20, x22
100005264: 540000e9    	b.ls	0x100005280 <__ZN4core5slice4sort6stable5drift4sort17h015b846e08754a9fE+0xdc>
100005268: 1400000b    	b	0x100005294 <__ZN4core5slice4sort6stable5drift4sort17h015b846e08754a9fE+0xf0>
10000526c: 910006f7    	add	x23, x23, #0x1
100005270: 8b4b06d6    	add	x22, x22, x11, lsr #1
100005274: aa0b03fc    	mov	x28, x11
100005278: eb160289    	subs	x9, x20, x22
10000527c: 540000c8    	b.hi	0x100005294 <__ZN4core5slice4sort6stable5drift4sort17h015b846e08754a9fE+0xf0>
100005280: 5280000a    	mov	w10, #0x0               ; =0
100005284: 5280002b    	mov	w11, #0x1               ; =1
100005288: f1000aff    	cmp	x23, #0x2
10000528c: 540017e2    	b.hs	0x100005588 <__ZN4core5slice4sort6stable5drift4sort17h015b846e08754a9fE+0x3e4>
100005290: 1400015d    	b	0x100005804 <__ZN4core5slice4sort6stable5drift4sort17h015b846e08754a9fE+0x660>
100005294: 8b1616a0    	add	x0, x21, x22, lsl #5
100005298: f94033e8    	ldr	x8, [sp, #0x60]
10000529c: eb08013f    	cmp	x9, x8
1000052a0: 54000202    	b.hs	0x1000052e0 <__ZN4core5slice4sort6stable5drift4sort17h015b846e08754a9fE+0x13c>
1000052a4: b9403fe8    	ldr	w8, [sp, #0x3c]
1000052a8: 36000428    	tbz	w8, #0x0, 0x10000532c <__ZN4core5slice4sort6stable5drift4sort17h015b846e08754a9fE+0x188>
1000052ac: f100813f    	cmp	x9, #0x20
1000052b0: 52800408    	mov	w8, #0x20               ; =32
1000052b4: 9a883139    	csel	x25, x9, x8, lo
1000052b8: aa1903e1    	mov	x1, x25
1000052bc: f94047e2    	ldr	x2, [sp, #0x88]
1000052c0: f9404fe3    	ldr	x3, [sp, #0x98]
1000052c4: 52800004    	mov	w4, #0x0                ; =0
1000052c8: d2800005    	mov	x5, #0x0                ; =0
1000052cc: 94000e01    	bl	0x100008ad0 <__ZN4core5slice4sort6stable9quicksort9quicksort17h4313d4c7b4ad0ab9E>
1000052d0: f9404fe3    	ldr	x3, [sp, #0x98]
1000052d4: 52800028    	mov	w8, #0x1                ; =1
1000052d8: aa19050b    	orr	x11, x8, x25, lsl #1
1000052dc: 140000a1    	b	0x100005560 <__ZN4core5slice4sort6stable5drift4sort17h015b846e08754a9fE+0x3bc>
1000052e0: f100093f    	cmp	x9, #0x2
1000052e4: 540013a3    	b.lo	0x100005558 <__ZN4core5slice4sort6stable5drift4sort17h015b846e08754a9fE+0x3b4>
1000052e8: f940180a    	ldr	x10, [x0, #0x30]
1000052ec: f9400808    	ldr	x8, [x0, #0x10]
1000052f0: eb08015f    	cmp	x10, x8
1000052f4: 54000263    	b.lo	0x100005340 <__ZN4core5slice4sort6stable5drift4sort17h015b846e08754a9fE+0x19c>
1000052f8: f940000c    	ldr	x12, [x0]
1000052fc: f940100b    	ldr	x11, [x0, #0x20]
100005300: eb08015f    	cmp	x10, x8
100005304: fa4c9162    	ccmp	x11, x12, #0x2, ls
100005308: 540001c3    	b.lo	0x100005340 <__ZN4core5slice4sort6stable5drift4sort17h015b846e08754a9fE+0x19c>
10000530c: f100093f    	cmp	x9, #0x2
100005310: 54000601    	b.ne	0x1000053d0 <__ZN4core5slice4sort6stable5drift4sort17h015b846e08754a9fE+0x22c>
100005314: 5280000a    	mov	w10, #0x0               ; =0
100005318: 52800048    	mov	w8, #0x2                ; =2
10000531c: f94033eb    	ldr	x11, [sp, #0x60]
100005320: eb0b011f    	cmp	x8, x11
100005324: 54fffc03    	b.lo	0x1000052a4 <__ZN4core5slice4sort6stable5drift4sort17h015b846e08754a9fE+0x100>
100005328: 14000045    	b	0x10000543c <__ZN4core5slice4sort6stable5drift4sort17h015b846e08754a9fE+0x298>
10000532c: f94033e8    	ldr	x8, [sp, #0x60]
100005330: eb09011f    	cmp	x8, x9
100005334: 9a893108    	csel	x8, x8, x9, lo
100005338: d37ff90b    	lsl	x11, x8, #1
10000533c: 14000089    	b	0x100005560 <__ZN4core5slice4sort6stable5drift4sort17h015b846e08754a9fE+0x3bc>
100005340: f100093f    	cmp	x9, #0x2
100005344: 540000e1    	b.ne	0x100005360 <__ZN4core5slice4sort6stable5drift4sort17h015b846e08754a9fE+0x1bc>
100005348: 5280002a    	mov	w10, #0x1               ; =1
10000534c: 52800048    	mov	w8, #0x2                ; =2
100005350: f94033eb    	ldr	x11, [sp, #0x60]
100005354: eb0b011f    	cmp	x8, x11
100005358: 54fffa63    	b.lo	0x1000052a4 <__ZN4core5slice4sort6stable5drift4sort17h015b846e08754a9fE+0x100>
10000535c: 14000038    	b	0x10000543c <__ZN4core5slice4sort6stable5drift4sort17h015b846e08754a9fE+0x298>
100005360: f9401be8    	ldr	x8, [sp, #0x30]
100005364: 8b16150b    	add	x11, x8, x22, lsl #5
100005368: 52800048    	mov	w8, #0x2                ; =2
10000536c: 14000006    	b	0x100005384 <__ZN4core5slice4sort6stable5drift4sort17h015b846e08754a9fE+0x1e0>
100005370: 91000508    	add	x8, x8, #0x1
100005374: 9100816b    	add	x11, x11, #0x20
100005378: aa0c03ea    	mov	x10, x12
10000537c: eb08013f    	cmp	x9, x8
100005380: 540001c0    	b.eq	0x1000053b8 <__ZN4core5slice4sort6stable5drift4sort17h015b846e08754a9fE+0x214>
100005384: f940096c    	ldr	x12, [x11, #0x10]
100005388: eb0a019f    	cmp	x12, x10
10000538c: 54ffff23    	b.lo	0x100005370 <__ZN4core5slice4sort6stable5drift4sort17h015b846e08754a9fE+0x1cc>
100005390: f85e016d    	ldur	x13, [x11, #-0x20]
100005394: f940016e    	ldr	x14, [x11]
100005398: eb0a019f    	cmp	x12, x10
10000539c: fa4d91c2    	ccmp	x14, x13, #0x2, ls
1000053a0: 54fffe83    	b.lo	0x100005370 <__ZN4core5slice4sort6stable5drift4sort17h015b846e08754a9fE+0x1cc>
1000053a4: 5280002a    	mov	w10, #0x1               ; =1
1000053a8: f94033eb    	ldr	x11, [sp, #0x60]
1000053ac: eb0b011f    	cmp	x8, x11
1000053b0: 54fff7a3    	b.lo	0x1000052a4 <__ZN4core5slice4sort6stable5drift4sort17h015b846e08754a9fE+0x100>
1000053b4: 14000022    	b	0x10000543c <__ZN4core5slice4sort6stable5drift4sort17h015b846e08754a9fE+0x298>
1000053b8: 5280002a    	mov	w10, #0x1               ; =1
1000053bc: aa0903e8    	mov	x8, x9
1000053c0: f94033eb    	ldr	x11, [sp, #0x60]
1000053c4: eb0b013f    	cmp	x9, x11
1000053c8: 54fff6e3    	b.lo	0x1000052a4 <__ZN4core5slice4sort6stable5drift4sort17h015b846e08754a9fE+0x100>
1000053cc: 1400001c    	b	0x10000543c <__ZN4core5slice4sort6stable5drift4sort17h015b846e08754a9fE+0x298>
1000053d0: f94013e8    	ldr	x8, [sp, #0x20]
1000053d4: 8b16150d    	add	x13, x8, x22, lsl #5
1000053d8: 52800048    	mov	w8, #0x2                ; =2
1000053dc: aa0d03ec    	mov	x12, x13
1000053e0: f842058e    	ldr	x14, [x12], #0x20
1000053e4: eb0a01df    	cmp	x14, x10
1000053e8: 54000223    	b.lo	0x10000542c <__ZN4core5slice4sort6stable5drift4sort17h015b846e08754a9fE+0x288>
1000053ec: f85f01af    	ldur	x15, [x13, #-0x10]
1000053f0: eb0a01df    	cmp	x14, x10
1000053f4: fa4b91e2    	ccmp	x15, x11, #0x2, ls
1000053f8: 540001a3    	b.lo	0x10000542c <__ZN4core5slice4sort6stable5drift4sort17h015b846e08754a9fE+0x288>
1000053fc: 91000508    	add	x8, x8, #0x1
100005400: aa0c03ed    	mov	x13, x12
100005404: aa0f03eb    	mov	x11, x15
100005408: aa0e03ea    	mov	x10, x14
10000540c: eb08013f    	cmp	x9, x8
100005410: 54fffe81    	b.ne	0x1000053e0 <__ZN4core5slice4sort6stable5drift4sort17h015b846e08754a9fE+0x23c>
100005414: 5280000a    	mov	w10, #0x0               ; =0
100005418: aa0903e8    	mov	x8, x9
10000541c: f94033eb    	ldr	x11, [sp, #0x60]
100005420: eb0b013f    	cmp	x9, x11
100005424: 54fff403    	b.lo	0x1000052a4 <__ZN4core5slice4sort6stable5drift4sort17h015b846e08754a9fE+0x100>
100005428: 14000005    	b	0x10000543c <__ZN4core5slice4sort6stable5drift4sort17h015b846e08754a9fE+0x298>
10000542c: 5280000a    	mov	w10, #0x0               ; =0
100005430: f94033eb    	ldr	x11, [sp, #0x60]
100005434: eb0b011f    	cmp	x8, x11
100005438: 54fff363    	b.lo	0x1000052a4 <__ZN4core5slice4sort6stable5drift4sort17h015b846e08754a9fE+0x100>
10000543c: 360008ca    	tbz	w10, #0x0, 0x100005554 <__ZN4core5slice4sort6stable5drift4sort17h015b846e08754a9fE+0x3b0>
100005440: f100091f    	cmp	x8, #0x2
100005444: 54000062    	b.hs	0x100005450 <__ZN4core5slice4sort6stable5drift4sort17h015b846e08754a9fE+0x2ac>
100005448: 52800029    	mov	w9, #0x1                ; =1
10000544c: 14000043    	b	0x100005558 <__ZN4core5slice4sort6stable5drift4sort17h015b846e08754a9fE+0x3b4>
100005450: d341fd09    	lsr	x9, x8, #1
100005454: f100511f    	cmp	x8, #0x14
100005458: 54000062    	b.hs	0x100005464 <__ZN4core5slice4sort6stable5drift4sort17h015b846e08754a9fE+0x2c0>
10000545c: d280000a    	mov	x10, #0x0               ; =0
100005460: 1400002c    	b	0x100005510 <__ZN4core5slice4sort6stable5drift4sort17h015b846e08754a9fE+0x36c>
100005464: d280000a    	mov	x10, #0x0               ; =0
100005468: d100052c    	sub	x12, x9, #0x1
10000546c: 8b16010b    	add	x11, x8, x22
100005470: d37be96b    	lsl	x11, x11, #5
100005474: d37be98d    	lsl	x13, x12, #5
100005478: f9402bee    	ldr	x14, [sp, #0x50]
10000547c: 8b0b01ce    	add	x14, x14, x11
100005480: cb0d01cf    	sub	x15, x14, x13
100005484: eb0e01ff    	cmp	x15, x14
100005488: 54000448    	b.hi	0x100005510 <__ZN4core5slice4sort6stable5drift4sort17h015b846e08754a9fE+0x36c>
10000548c: f9400bee    	ldr	x14, [sp, #0x10]
100005490: 8b0b01ce    	add	x14, x14, x11
100005494: cb0d01cf    	sub	x15, x14, x13
100005498: eb0e01ff    	cmp	x15, x14
10000549c: 540003a8    	b.hi	0x100005510 <__ZN4core5slice4sort6stable5drift4sort17h015b846e08754a9fE+0x36c>
1000054a0: f94007ee    	ldr	x14, [sp, #0x8]
1000054a4: 8b0b01ce    	add	x14, x14, x11
1000054a8: cb0d01cf    	sub	x15, x14, x13
1000054ac: eb0e01ff    	cmp	x15, x14
1000054b0: 54000308    	b.hi	0x100005510 <__ZN4core5slice4sort6stable5drift4sort17h015b846e08754a9fE+0x36c>
1000054b4: f94017ee    	ldr	x14, [sp, #0x28]
1000054b8: 8b0b01ce    	add	x14, x14, x11
1000054bc: cb0d01cd    	sub	x13, x14, x13
1000054c0: eb0e01bf    	cmp	x13, x14
1000054c4: 54000268    	b.hi	0x100005510 <__ZN4core5slice4sort6stable5drift4sort17h015b846e08754a9fE+0x36c>
1000054c8: d37bfd8c    	lsr	x12, x12, #59
1000054cc: b500022c    	cbnz	x12, 0x100005510 <__ZN4core5slice4sort6stable5drift4sort17h015b846e08754a9fE+0x36c>
1000054d0: 927fe92a    	and	x10, x9, #0xffffffffffffffe
1000054d4: f94003ec    	ldr	x12, [sp]
1000054d8: 8b0b018b    	add	x11, x12, x11
1000054dc: aa0a03ec    	mov	x12, x10
1000054e0: ad410001    	ldp	q1, q0, [x0, #0x20]
1000054e4: ad400803    	ldp	q3, q2, [x0]
1000054e8: ad411165    	ldp	q5, q4, [x11, #0x20]
1000054ec: ad401967    	ldp	q7, q6, [x11]
1000054f0: ad011807    	stp	q7, q6, [x0, #0x20]
1000054f4: ad010963    	stp	q3, q2, [x11, #0x20]
1000054f8: acbe0161    	stp	q1, q0, [x11], #-0x40
1000054fc: ac821005    	stp	q5, q4, [x0], #0x40
100005500: f100098c    	subs	x12, x12, #0x2
100005504: 54fffee1    	b.ne	0x1000054e0 <__ZN4core5slice4sort6stable5drift4sort17h015b846e08754a9fE+0x33c>
100005508: eb0a013f    	cmp	x9, x10
10000550c: 54000240    	b.eq	0x100005554 <__ZN4core5slice4sort6stable5drift4sort17h015b846e08754a9fE+0x3b0>
100005510: cb0a0129    	sub	x9, x9, x10
100005514: d37be94b    	lsl	x11, x10, #5
100005518: 8b16156a    	add	x10, x11, x22, lsl #5
10000551c: f9400fec    	ldr	x12, [sp, #0x18]
100005520: 8b0a018a    	add	x10, x12, x10
100005524: 8b16010c    	add	x12, x8, x22
100005528: f94017ed    	ldr	x13, [sp, #0x28]
10000552c: cb0b01ab    	sub	x11, x13, x11
100005530: 8b0c156b    	add	x11, x11, x12, lsl #5
100005534: ad7f8540    	ldp	q0, q1, [x10, #-0x10]
100005538: ad7f8d62    	ldp	q2, q3, [x11, #-0x10]
10000553c: ad3f8d42    	stp	q2, q3, [x10, #-0x10]
100005540: ad3f8560    	stp	q0, q1, [x11, #-0x10]
100005544: 9100814a    	add	x10, x10, #0x20
100005548: d100816b    	sub	x11, x11, #0x20
10000554c: d1000529    	sub	x9, x9, #0x1
100005550: b5ffff29    	cbnz	x9, 0x100005534 <__ZN4core5slice4sort6stable5drift4sort17h015b846e08754a9fE+0x390>
100005554: aa0803e9    	mov	x9, x8
100005558: 52800028    	mov	w8, #0x1                ; =1
10000555c: aa09050b    	orr	x11, x8, x9, lsl #1
100005560: d37ffac8    	lsl	x8, x22, #1
100005564: cb5c0509    	sub	x9, x8, x28, lsr #1
100005568: 8b4b0508    	add	x8, x8, x11, lsr #1
10000556c: f94023ea    	ldr	x10, [sp, #0x40]
100005570: 9b0a7d29    	mul	x9, x9, x10
100005574: 9b0a7d08    	mul	x8, x8, x10
100005578: ca090108    	eor	x8, x8, x9
10000557c: dac0110a    	clz	x10, x8
100005580: f1000aff    	cmp	x23, #0x2
100005584: 54001403    	b.lo	0x100005804 <__ZN4core5slice4sort6stable5drift4sort17h015b846e08754a9fE+0x660>
100005588: d37beac8    	lsl	x8, x22, #5
10000558c: 8b0802a9    	add	x9, x21, x8
100005590: f9002fe9    	str	x9, [sp, #0x58]
100005594: f9402be9    	ldr	x9, [sp, #0x50]
100005598: 8b080128    	add	x8, x9, x8
10000559c: a906afe8    	stp	x8, x11, [sp, #0x68]
1000055a0: f9004bea    	str	x10, [sp, #0x90]
1000055a4: f90043f6    	str	x22, [sp, #0x80]
1000055a8: 1400000d    	b	0x1000055dc <__ZN4core5slice4sort6stable5drift4sort17h015b846e08754a9fE+0x438>
1000055ac: aa1903f4    	mov	x20, x25
1000055b0: aa1503e1    	mov	x1, x21
1000055b4: f9403ff5    	ldr	x21, [sp, #0x78]
1000055b8: cb010102    	sub	x2, x8, x1
1000055bc: aa1403e0    	mov	x0, x20
1000055c0: 9400c32b    	bl	0x10003626c <dyld_stub_binder+0x10003626c>
1000055c4: a9490fea    	ldp	x10, x3, [sp, #0x90]
1000055c8: 52800028    	mov	w8, #0x1                ; =1
1000055cc: aa13051c    	orr	x28, x8, x19, lsl #1
1000055d0: f94043f6    	ldr	x22, [sp, #0x80]
1000055d4: f100071f    	cmp	x24, #0x1
1000055d8: 54001109    	b.ls	0x1000057f8 <__ZN4core5slice4sort6stable5drift4sort17h015b846e08754a9fE+0x654>
1000055dc: d10006f8    	sub	x24, x23, #0x1
1000055e0: d1026ba8    	sub	x8, x29, #0x9a
1000055e4: 38786908    	ldrb	w8, [x8, x24]
1000055e8: 6b0a011f    	cmp	w8, w10
1000055ec: 54001083    	b.lo	0x1000057fc <__ZN4core5slice4sort6stable5drift4sort17h015b846e08754a9fE+0x658>
1000055f0: aa1803f7    	mov	x23, x24
1000055f4: 910283e8    	add	x8, sp, #0xa0
1000055f8: f8787919    	ldr	x25, [x8, x24, lsl #3]
1000055fc: d341ff3a    	lsr	x26, x25, #1
100005600: d341ff9b    	lsr	x27, x28, #1
100005604: 2a1c0328    	orr	w8, w25, w28
100005608: 92400108    	and	x8, x8, #0x1
10000560c: 8b1b0353    	add	x19, x26, x27
100005610: eb03027f    	cmp	x19, x3
100005614: fa409900    	ccmp	x8, #0x0, #0x0, ls
100005618: 54000260    	b.eq	0x100005664 <__ZN4core5slice4sort6stable5drift4sort17h015b846e08754a9fE+0x4c0>
10000561c: cb1302c8    	sub	x8, x22, x19
100005620: 8b0816b4    	add	x20, x21, x8, lsl #5
100005624: 37000299    	tbnz	w25, #0x0, 0x100005674 <__ZN4core5slice4sort6stable5drift4sort17h015b846e08754a9fE+0x4d0>
100005628: b2400348    	orr	x8, x26, #0x1
10000562c: dac01108    	clz	x8, x8
100005630: 531f7908    	lsl	w8, w8, #1
100005634: 521f1504    	eor	w4, w8, #0x7e
100005638: aa1403e0    	mov	x0, x20
10000563c: aa1a03e1    	mov	x1, x26
100005640: f94047e2    	ldr	x2, [sp, #0x88]
100005644: f9404fe3    	ldr	x3, [sp, #0x98]
100005648: d2800005    	mov	x5, #0x0                ; =0
10000564c: 94000d21    	bl	0x100008ad0 <__ZN4core5slice4sort6stable9quicksort9quicksort17h4313d4c7b4ad0ab9E>
100005650: a9490fea    	ldp	x10, x3, [sp, #0x90]
100005654: 3600013c    	tbz	w28, #0x0, 0x100005678 <__ZN4core5slice4sort6stable5drift4sort17h015b846e08754a9fE+0x4d4>
100005658: f1000b9f    	cmp	x28, #0x2
10000565c: 54000282    	b.hs	0x1000056ac <__ZN4core5slice4sort6stable5drift4sort17h015b846e08754a9fE+0x508>
100005660: 17ffffda    	b	0x1000055c8 <__ZN4core5slice4sort6stable5drift4sort17h015b846e08754a9fE+0x424>
100005664: d37ffa7c    	lsl	x28, x19, #1
100005668: f100071f    	cmp	x24, #0x1
10000566c: 54fffb88    	b.hi	0x1000055dc <__ZN4core5slice4sort6stable5drift4sort17h015b846e08754a9fE+0x438>
100005670: 14000062    	b	0x1000057f8 <__ZN4core5slice4sort6stable5drift4sort17h015b846e08754a9fE+0x654>
100005674: 3707ff3c    	tbnz	w28, #0x0, 0x100005658 <__ZN4core5slice4sort6stable5drift4sort17h015b846e08754a9fE+0x4b4>
100005678: 8b1a1680    	add	x0, x20, x26, lsl #5
10000567c: b2400368    	orr	x8, x27, #0x1
100005680: dac01108    	clz	x8, x8
100005684: 531f7908    	lsl	w8, w8, #1
100005688: 521f1504    	eor	w4, w8, #0x7e
10000568c: aa1b03e1    	mov	x1, x27
100005690: f94047e2    	ldr	x2, [sp, #0x88]
100005694: f9404fe3    	ldr	x3, [sp, #0x98]
100005698: d2800005    	mov	x5, #0x0                ; =0
10000569c: 94000d0d    	bl	0x100008ad0 <__ZN4core5slice4sort6stable9quicksort9quicksort17h4313d4c7b4ad0ab9E>
1000056a0: a9490fea    	ldp	x10, x3, [sp, #0x90]
1000056a4: f1000b9f    	cmp	x28, #0x2
1000056a8: 54fff903    	b.lo	0x1000055c8 <__ZN4core5slice4sort6stable5drift4sort17h015b846e08754a9fE+0x424>
1000056ac: f1000b3f    	cmp	x25, #0x2
1000056b0: 54fff8c3    	b.lo	0x1000055c8 <__ZN4core5slice4sort6stable5drift4sort17h015b846e08754a9fE+0x424>
1000056b4: eb1b035f    	cmp	x26, x27
1000056b8: 9a9b3356    	csel	x22, x26, x27, lo
1000056bc: eb0302df    	cmp	x22, x3
1000056c0: 54fff848    	b.hi	0x1000055c8 <__ZN4core5slice4sort6stable5drift4sort17h015b846e08754a9fE+0x424>
1000056c4: 8b1a1699    	add	x25, x20, x26, lsl #5
1000056c8: eb1a037f    	cmp	x27, x26
1000056cc: 9a943321    	csel	x1, x25, x20, lo
1000056d0: d37beadc    	lsl	x28, x22, #5
1000056d4: f94047f5    	ldr	x21, [sp, #0x88]
1000056d8: aa1503e0    	mov	x0, x21
1000056dc: aa1c03e2    	mov	x2, x28
1000056e0: 9400c2e3    	bl	0x10003626c <dyld_stub_binder+0x10003626c>
1000056e4: 8b1c02a8    	add	x8, x21, x28
1000056e8: eb1a037f    	cmp	x27, x26
1000056ec: 540003c2    	b.hs	0x100005764 <__ZN4core5slice4sort6stable5drift4sort17h015b846e08754a9fE+0x5c0>
1000056f0: f94037e9    	ldr	x9, [sp, #0x68]
1000056f4: 14000013    	b	0x100005740 <__ZN4core5slice4sort6stable5drift4sort17h015b846e08754a9fE+0x59c>
1000056f8: f940016d    	ldr	x13, [x11]
1000056fc: f940014e    	ldr	x14, [x10]
100005700: eb0c011f    	cmp	x8, x12
100005704: 1a9f87e8    	cset	w8, ls
100005708: eb0d01df    	cmp	x14, x13
10000570c: 1a9f27ec    	cset	w12, lo
100005710: 6a0c0108    	ands	w8, w8, w12
100005714: 9a8a116c    	csel	x12, x11, x10, ne
100005718: ad400580    	ldp	q0, q1, [x12]
10000571c: acbf0520    	stp	q0, q1, [x9], #-0x20
100005720: 2a2803ec    	mvn	w12, w8
100005724: 9240018c    	and	x12, x12, #0x1
100005728: 8b0c1579    	add	x25, x11, x12, lsl #5
10000572c: 92400108    	and	x8, x8, #0x1
100005730: 8b081548    	add	x8, x10, x8, lsl #5
100005734: eb14033f    	cmp	x25, x20
100005738: fa551104    	ccmp	x8, x21, #0x4, ne
10000573c: 54fff380    	b.eq	0x1000055ac <__ZN4core5slice4sort6stable5drift4sort17h015b846e08754a9fE+0x408>
100005740: d100832b    	sub	x11, x25, #0x20
100005744: d100810a    	sub	x10, x8, #0x20
100005748: f85f0108    	ldur	x8, [x8, #-0x10]
10000574c: f85f032c    	ldur	x12, [x25, #-0x10]
100005750: eb0c011f    	cmp	x8, x12
100005754: 54fffd22    	b.hs	0x1000056f8 <__ZN4core5slice4sort6stable5drift4sort17h015b846e08754a9fE+0x554>
100005758: 52800028    	mov	w8, #0x1                ; =1
10000575c: aa0b03ec    	mov	x12, x11
100005760: 17ffffee    	b	0x100005718 <__ZN4core5slice4sort6stable5drift4sort17h015b846e08754a9fE+0x574>
100005764: b4fff276    	cbz	x22, 0x1000055b0 <__ZN4core5slice4sort6stable5drift4sort17h015b846e08754a9fE+0x40c>
100005768: aa1503e1    	mov	x1, x21
10000576c: f9403ff5    	ldr	x21, [sp, #0x78]
100005770: f9402fed    	ldr	x13, [sp, #0x58]
100005774: 14000014    	b	0x1000057c4 <__ZN4core5slice4sort6stable5drift4sort17h015b846e08754a9fE+0x620>
100005778: f940002b    	ldr	x11, [x1]
10000577c: f940032c    	ldr	x12, [x25]
100005780: eb0a013f    	cmp	x9, x10
100005784: 1a9f87e9    	cset	w9, ls
100005788: eb0b019f    	cmp	x12, x11
10000578c: 1a9f27ea    	cset	w10, lo
100005790: 6a0a0129    	ands	w9, w9, w10
100005794: 5200012a    	eor	w10, w9, #0x1
100005798: 9a81132b    	csel	x11, x25, x1, ne
10000579c: ad400560    	ldp	q0, q1, [x11]
1000057a0: ac810680    	stp	q0, q1, [x20], #0x20
1000057a4: 9240014a    	and	x10, x10, #0x1
1000057a8: 8b0a1421    	add	x1, x1, x10, lsl #5
1000057ac: eb08003f    	cmp	x1, x8
1000057b0: 54fff040    	b.eq	0x1000055b8 <__ZN4core5slice4sort6stable5drift4sort17h015b846e08754a9fE+0x414>
1000057b4: 92400129    	and	x9, x9, #0x1
1000057b8: 8b091739    	add	x25, x25, x9, lsl #5
1000057bc: eb0d033f    	cmp	x25, x13
1000057c0: 54ffefc0    	b.eq	0x1000055b8 <__ZN4core5slice4sort6stable5drift4sort17h015b846e08754a9fE+0x414>
1000057c4: f9400b29    	ldr	x9, [x25, #0x10]
1000057c8: f940082a    	ldr	x10, [x1, #0x10]
1000057cc: eb0a013f    	cmp	x9, x10
1000057d0: 54fffd42    	b.hs	0x100005778 <__ZN4core5slice4sort6stable5drift4sort17h015b846e08754a9fE+0x5d4>
1000057d4: 5280000a    	mov	w10, #0x0               ; =0
1000057d8: 52800029    	mov	w9, #0x1                ; =1
1000057dc: ad400720    	ldp	q0, q1, [x25]
1000057e0: ac810680    	stp	q0, q1, [x20], #0x20
1000057e4: 9240014a    	and	x10, x10, #0x1
1000057e8: 8b0a1421    	add	x1, x1, x10, lsl #5
1000057ec: eb08003f    	cmp	x1, x8
1000057f0: 54fffe21    	b.ne	0x1000057b4 <__ZN4core5slice4sort6stable5drift4sort17h015b846e08754a9fE+0x610>
1000057f4: 17ffff71    	b	0x1000055b8 <__ZN4core5slice4sort6stable5drift4sort17h015b846e08754a9fE+0x414>
1000057f8: 52800037    	mov	w23, #0x1               ; =1
1000057fc: f94027f4    	ldr	x20, [sp, #0x48]
100005800: f9403beb    	ldr	x11, [sp, #0x70]
100005804: 910283e8    	add	x8, sp, #0xa0
100005808: f837791c    	str	x28, [x8, x23, lsl #3]
10000580c: d1026ba8    	sub	x8, x29, #0x9a
100005810: 3837690a    	strb	w10, [x8, x23]
100005814: eb16029f    	cmp	x20, x22
100005818: 54ffd2a8    	b.hi	0x10000526c <__ZN4core5slice4sort6stable5drift4sort17h015b846e08754a9fE+0xc8>
10000581c: 3700023c    	tbnz	w28, #0x0, 0x100005860 <__ZN4core5slice4sort6stable5drift4sort17h015b846e08754a9fE+0x6bc>
100005820: b2400288    	orr	x8, x20, #0x1
100005824: dac01108    	clz	x8, x8
100005828: 531f7908    	lsl	w8, w8, #1
10000582c: 521f1504    	eor	w4, w8, #0x7e
100005830: aa1503e0    	mov	x0, x21
100005834: aa1403e1    	mov	x1, x20
100005838: f94047e2    	ldr	x2, [sp, #0x88]
10000583c: d2800005    	mov	x5, #0x0                ; =0
100005840: 910c03ff    	add	sp, sp, #0x300
100005844: a9457bfd    	ldp	x29, x30, [sp, #0x50]
100005848: a9444ff4    	ldp	x20, x19, [sp, #0x40]
10000584c: a94357f6    	ldp	x22, x21, [sp, #0x30]
100005850: a9425ff8    	ldp	x24, x23, [sp, #0x20]
100005854: a94167fa    	ldp	x26, x25, [sp, #0x10]
100005858: a8c66ffc    	ldp	x28, x27, [sp], #0x60
10000585c: 14000c9d    	b	0x100008ad0 <__ZN4core5slice4sort6stable9quicksort9quicksort17h4313d4c7b4ad0ab9E>
100005860: 910c03ff    	add	sp, sp, #0x300
100005864: a9457bfd    	ldp	x29, x30, [sp, #0x50]
100005868: a9444ff4    	ldp	x20, x19, [sp, #0x40]
10000586c: a94357f6    	ldp	x22, x21, [sp, #0x30]
100005870: a9425ff8    	ldp	x24, x23, [sp, #0x20]
100005874: a94167fa    	ldp	x26, x25, [sp, #0x10]
100005878: a8c66ffc    	ldp	x28, x27, [sp], #0x60
10000587c: d65f03c0    	ret

0000000100005880 <__ZN4core5slice4sort6stable5drift4sort17h17aa28f081c4a7a6E>:
100005880: a9ba6ffc    	stp	x28, x27, [sp, #-0x60]!
100005884: a90167fa    	stp	x26, x25, [sp, #0x10]
100005888: a9025ff8    	stp	x24, x23, [sp, #0x20]
10000588c: a90357f6    	stp	x22, x21, [sp, #0x30]
100005890: a9044ff4    	stp	x20, x19, [sp, #0x40]
100005894: a9057bfd    	stp	x29, x30, [sp, #0x50]
100005898: 910143fd    	add	x29, sp, #0x50
10000589c: d10b83ff    	sub	sp, sp, #0x2e0
1000058a0: b9001fe4    	str	w4, [sp, #0x1c]
1000058a4: f90037e2    	str	x2, [sp, #0x68]
1000058a8: aa0103f4    	mov	x20, x1
1000058ac: aa0003f5    	mov	x21, x0
1000058b0: 92f80008    	mov	x8, #0x3fffffffffffffff ; =4611686018427387903
1000058b4: 8b080033    	add	x19, x1, x8
1000058b8: f140043f    	cmp	x1, #0x1, lsl #12       ; =0x1000
1000058bc: f9003fe3    	str	x3, [sp, #0x78]
1000058c0: 540000e8    	b.hi	0x1000058dc <__ZN4core5slice4sort6stable5drift4sort17h17aa28f081c4a7a6E+0x5c>
1000058c4: cb540688    	sub	x8, x20, x20, lsr #1
1000058c8: 52800809    	mov	w9, #0x40               ; =64
1000058cc: f101011f    	cmp	x8, #0x40
1000058d0: 9a893108    	csel	x8, x8, x9, lo
1000058d4: f90023e8    	str	x8, [sp, #0x40]
1000058d8: 14000005    	b	0x1000058ec <__ZN4core5slice4sort6stable5drift4sort17h17aa28f081c4a7a6E+0x6c>
1000058dc: aa1403e0    	mov	x0, x20
1000058e0: 9400b2d1    	bl	0x100032424 <__ZN4core5slice4sort6stable5drift11sqrt_approx17hf95746fd6ef160bfE>
1000058e4: f9403fe3    	ldr	x3, [sp, #0x78]
1000058e8: f90023e0    	str	x0, [sp, #0x40]
1000058ec: d2800016    	mov	x22, #0x0               ; =0
1000058f0: d2800017    	mov	x23, #0x0               ; =0
1000058f4: 910142a9    	add	x9, x21, #0x50
1000058f8: 910042a8    	add	x8, x21, #0x10
1000058fc: a900a7e8    	stp	x8, x9, [sp, #0x8]
100005900: d10082a9    	sub	x9, x21, #0x20
100005904: 5280003c    	mov	w28, #0x1               ; =1
100005908: 9ad40a68    	udiv	x8, x19, x20
10000590c: a90227e8    	stp	x8, x9, [sp, #0x20]
100005910: f9001bf4    	str	x20, [sp, #0x30]
100005914: f9002ff5    	str	x21, [sp, #0x58]
100005918: eb160289    	subs	x9, x20, x22
10000591c: 540000e9    	b.ls	0x100005938 <__ZN4core5slice4sort6stable5drift4sort17h17aa28f081c4a7a6E+0xb8>
100005920: 1400000b    	b	0x10000594c <__ZN4core5slice4sort6stable5drift4sort17h17aa28f081c4a7a6E+0xcc>
100005924: 910006f7    	add	x23, x23, #0x1
100005928: 8b4b06d6    	add	x22, x22, x11, lsr #1
10000592c: aa0b03fc    	mov	x28, x11
100005930: eb160289    	subs	x9, x20, x22
100005934: 540000c8    	b.hi	0x10000594c <__ZN4core5slice4sort6stable5drift4sort17h17aa28f081c4a7a6E+0xcc>
100005938: 5280000a    	mov	w10, #0x0               ; =0
10000593c: 5280002b    	mov	w11, #0x1               ; =1
100005940: f1000aff    	cmp	x23, #0x2
100005944: 540013a2    	b.hs	0x100005bb8 <__ZN4core5slice4sort6stable5drift4sort17h17aa28f081c4a7a6E+0x338>
100005948: 1400011b    	b	0x100005db4 <__ZN4core5slice4sort6stable5drift4sort17h17aa28f081c4a7a6E+0x534>
10000594c: 8b1616a0    	add	x0, x21, x22, lsl #5
100005950: f94023e8    	ldr	x8, [sp, #0x40]
100005954: eb08013f    	cmp	x9, x8
100005958: 54000202    	b.hs	0x100005998 <__ZN4core5slice4sort6stable5drift4sort17h17aa28f081c4a7a6E+0x118>
10000595c: b9401fe8    	ldr	w8, [sp, #0x1c]
100005960: 36000408    	tbz	w8, #0x0, 0x1000059e0 <__ZN4core5slice4sort6stable5drift4sort17h17aa28f081c4a7a6E+0x160>
100005964: f100813f    	cmp	x9, #0x20
100005968: 52800408    	mov	w8, #0x20               ; =32
10000596c: 9a883139    	csel	x25, x9, x8, lo
100005970: aa1903e1    	mov	x1, x25
100005974: f94037e2    	ldr	x2, [sp, #0x68]
100005978: f9403fe3    	ldr	x3, [sp, #0x78]
10000597c: 52800004    	mov	w4, #0x0                ; =0
100005980: d2800005    	mov	x5, #0x0                ; =0
100005984: 940006a1    	bl	0x100007408 <__ZN4core5slice4sort6stable9quicksort9quicksort17h07c2ad961e258bf6E>
100005988: f9403fe3    	ldr	x3, [sp, #0x78]
10000598c: 52800028    	mov	w8, #0x1                ; =1
100005990: aa19050b    	orr	x11, x8, x25, lsl #1
100005994: 1400007f    	b	0x100005b90 <__ZN4core5slice4sort6stable5drift4sort17h17aa28f081c4a7a6E+0x310>
100005998: f100093f    	cmp	x9, #0x2
10000599c: 54000f63    	b.lo	0x100005b88 <__ZN4core5slice4sort6stable5drift4sort17h17aa28f081c4a7a6E+0x308>
1000059a0: f940180a    	ldr	x10, [x0, #0x30]
1000059a4: f940080b    	ldr	x11, [x0, #0x10]
1000059a8: eb0b015f    	cmp	x10, x11
1000059ac: 54000242    	b.hs	0x1000059f4 <__ZN4core5slice4sort6stable5drift4sort17h17aa28f081c4a7a6E+0x174>
1000059b0: f100093f    	cmp	x9, #0x2
1000059b4: 540002e1    	b.ne	0x100005a10 <__ZN4core5slice4sort6stable5drift4sort17h17aa28f081c4a7a6E+0x190>
1000059b8: f94023e8    	ldr	x8, [sp, #0x40]
1000059bc: f100091f    	cmp	x8, #0x2
1000059c0: 54fffce8    	b.hi	0x10000595c <__ZN4core5slice4sort6stable5drift4sort17h17aa28f081c4a7a6E+0xdc>
1000059c4: 91008009    	add	x9, x0, #0x20
1000059c8: 5280002a    	mov	w10, #0x1               ; =1
1000059cc: 52800048    	mov	w8, #0x2                ; =2
1000059d0: f100295f    	cmp	x10, #0xa
1000059d4: 540006a2    	b.hs	0x100005aa8 <__ZN4core5slice4sort6stable5drift4sort17h17aa28f081c4a7a6E+0x228>
1000059d8: d280000b    	mov	x11, #0x0               ; =0
1000059dc: 1400005a    	b	0x100005b44 <__ZN4core5slice4sort6stable5drift4sort17h17aa28f081c4a7a6E+0x2c4>
1000059e0: f94023e8    	ldr	x8, [sp, #0x40]
1000059e4: eb09011f    	cmp	x8, x9
1000059e8: 9a893108    	csel	x8, x8, x9, lo
1000059ec: d37ff90b    	lsl	x11, x8, #1
1000059f0: 14000068    	b	0x100005b90 <__ZN4core5slice4sort6stable5drift4sort17h17aa28f081c4a7a6E+0x310>
1000059f4: f100093f    	cmp	x9, #0x2
1000059f8: 54000241    	b.ne	0x100005a40 <__ZN4core5slice4sort6stable5drift4sort17h17aa28f081c4a7a6E+0x1c0>
1000059fc: f94023e8    	ldr	x8, [sp, #0x40]
100005a00: f100091f    	cmp	x8, #0x2
100005a04: 54fffac8    	b.hi	0x10000595c <__ZN4core5slice4sort6stable5drift4sort17h17aa28f081c4a7a6E+0xdc>
100005a08: 52800049    	mov	w9, #0x2                ; =2
100005a0c: 1400005f    	b	0x100005b88 <__ZN4core5slice4sort6stable5drift4sort17h17aa28f081c4a7a6E+0x308>
100005a10: f9400be8    	ldr	x8, [sp, #0x10]
100005a14: 8b16150c    	add	x12, x8, x22, lsl #5
100005a18: aa0a03ed    	mov	x13, x10
100005a1c: 52800048    	mov	w8, #0x2                ; =2
100005a20: f842058e    	ldr	x14, [x12], #0x20
100005a24: eb0d01df    	cmp	x14, x13
100005a28: 54000242    	b.hs	0x100005a70 <__ZN4core5slice4sort6stable5drift4sort17h17aa28f081c4a7a6E+0x1f0>
100005a2c: 91000508    	add	x8, x8, #0x1
100005a30: aa0e03ed    	mov	x13, x14
100005a34: eb08013f    	cmp	x9, x8
100005a38: 54ffff41    	b.ne	0x100005a20 <__ZN4core5slice4sort6stable5drift4sort17h17aa28f081c4a7a6E+0x1a0>
100005a3c: 1400000c    	b	0x100005a6c <__ZN4core5slice4sort6stable5drift4sort17h17aa28f081c4a7a6E+0x1ec>
100005a40: f9400be8    	ldr	x8, [sp, #0x10]
100005a44: 8b16150c    	add	x12, x8, x22, lsl #5
100005a48: aa0a03ed    	mov	x13, x10
100005a4c: 52800048    	mov	w8, #0x2                ; =2
100005a50: f842058e    	ldr	x14, [x12], #0x20
100005a54: eb0d01df    	cmp	x14, x13
100005a58: 540000c3    	b.lo	0x100005a70 <__ZN4core5slice4sort6stable5drift4sort17h17aa28f081c4a7a6E+0x1f0>
100005a5c: 91000508    	add	x8, x8, #0x1
100005a60: aa0e03ed    	mov	x13, x14
100005a64: eb08013f    	cmp	x9, x8
100005a68: 54ffff41    	b.ne	0x100005a50 <__ZN4core5slice4sort6stable5drift4sort17h17aa28f081c4a7a6E+0x1d0>
100005a6c: aa0903e8    	mov	x8, x9
100005a70: f94023ec    	ldr	x12, [sp, #0x40]
100005a74: eb0c011f    	cmp	x8, x12
100005a78: 54fff723    	b.lo	0x10000595c <__ZN4core5slice4sort6stable5drift4sort17h17aa28f081c4a7a6E+0xdc>
100005a7c: eb0b015f    	cmp	x10, x11
100005a80: 54000822    	b.hs	0x100005b84 <__ZN4core5slice4sort6stable5drift4sort17h17aa28f081c4a7a6E+0x304>
100005a84: f100091f    	cmp	x8, #0x2
100005a88: 54000062    	b.hs	0x100005a94 <__ZN4core5slice4sort6stable5drift4sort17h17aa28f081c4a7a6E+0x214>
100005a8c: 52800029    	mov	w9, #0x1                ; =1
100005a90: 1400003e    	b	0x100005b88 <__ZN4core5slice4sort6stable5drift4sort17h17aa28f081c4a7a6E+0x308>
100005a94: d341fd0a    	lsr	x10, x8, #1
100005a98: 8b081409    	add	x9, x0, x8, lsl #5
100005a9c: cb0a1529    	sub	x9, x9, x10, lsl #5
100005aa0: f100295f    	cmp	x10, #0xa
100005aa4: 54fff9a3    	b.lo	0x1000059d8 <__ZN4core5slice4sort6stable5drift4sort17h17aa28f081c4a7a6E+0x158>
100005aa8: d280000b    	mov	x11, #0x0               ; =0
100005aac: d100054d    	sub	x13, x10, #0x1
100005ab0: d37be94c    	lsl	x12, x10, #5
100005ab4: 8b0c012e    	add	x14, x9, x12
100005ab8: d37be9af    	lsl	x15, x13, #5
100005abc: d10081d0    	sub	x16, x14, #0x20
100005ac0: cb0f0211    	sub	x17, x16, x15
100005ac4: eb10023f    	cmp	x17, x16
100005ac8: 540003e8    	b.hi	0x100005b44 <__ZN4core5slice4sort6stable5drift4sort17h17aa28f081c4a7a6E+0x2c4>
100005acc: d10061d0    	sub	x16, x14, #0x18
100005ad0: cb0f0211    	sub	x17, x16, x15
100005ad4: eb10023f    	cmp	x17, x16
100005ad8: 54000368    	b.hi	0x100005b44 <__ZN4core5slice4sort6stable5drift4sort17h17aa28f081c4a7a6E+0x2c4>
100005adc: d10021d0    	sub	x16, x14, #0x8
100005ae0: cb0f0211    	sub	x17, x16, x15
100005ae4: eb10023f    	cmp	x17, x16
100005ae8: 540002e8    	b.hi	0x100005b44 <__ZN4core5slice4sort6stable5drift4sort17h17aa28f081c4a7a6E+0x2c4>
100005aec: d10041ce    	sub	x14, x14, #0x10
100005af0: cb0f01cf    	sub	x15, x14, x15
100005af4: eb0e01ff    	cmp	x15, x14
100005af8: 54000268    	b.hi	0x100005b44 <__ZN4core5slice4sort6stable5drift4sort17h17aa28f081c4a7a6E+0x2c4>
100005afc: d37bfdad    	lsr	x13, x13, #59
100005b00: b500022d    	cbnz	x13, 0x100005b44 <__ZN4core5slice4sort6stable5drift4sort17h17aa28f081c4a7a6E+0x2c4>
100005b04: 927fe94b    	and	x11, x10, #0xffffffffffffffe
100005b08: 8b0c012c    	add	x12, x9, x12
100005b0c: d101018c    	sub	x12, x12, #0x40
100005b10: aa0b03ed    	mov	x13, x11
100005b14: ad410001    	ldp	q1, q0, [x0, #0x20]
100005b18: ad400803    	ldp	q3, q2, [x0]
100005b1c: ad411185    	ldp	q5, q4, [x12, #0x20]
100005b20: ad401987    	ldp	q7, q6, [x12]
100005b24: ad011807    	stp	q7, q6, [x0, #0x20]
100005b28: ad010983    	stp	q3, q2, [x12, #0x20]
100005b2c: acbe0181    	stp	q1, q0, [x12], #-0x40
100005b30: ac821005    	stp	q5, q4, [x0], #0x40
100005b34: f10009ad    	subs	x13, x13, #0x2
100005b38: 54fffee1    	b.ne	0x100005b14 <__ZN4core5slice4sort6stable5drift4sort17h17aa28f081c4a7a6E+0x294>
100005b3c: eb0b015f    	cmp	x10, x11
100005b40: 54000220    	b.eq	0x100005b84 <__ZN4core5slice4sort6stable5drift4sort17h17aa28f081c4a7a6E+0x304>
100005b44: cb0b014c    	sub	x12, x10, x11
100005b48: d37be96b    	lsl	x11, x11, #5
100005b4c: cb0b0129    	sub	x9, x9, x11
100005b50: 8b0a1529    	add	x9, x9, x10, lsl #5
100005b54: d1004129    	sub	x9, x9, #0x10
100005b58: 8b16156a    	add	x10, x11, x22, lsl #5
100005b5c: f94007eb    	ldr	x11, [sp, #0x8]
100005b60: 8b0a016a    	add	x10, x11, x10
100005b64: ad7f8520    	ldp	q0, q1, [x9, #-0x10]
100005b68: ad7f8d42    	ldp	q2, q3, [x10, #-0x10]
100005b6c: ad3f8540    	stp	q0, q1, [x10, #-0x10]
100005b70: ad3f8d22    	stp	q2, q3, [x9, #-0x10]
100005b74: d1008129    	sub	x9, x9, #0x20
100005b78: 9100814a    	add	x10, x10, #0x20
100005b7c: d100058c    	sub	x12, x12, #0x1
100005b80: b5ffff2c    	cbnz	x12, 0x100005b64 <__ZN4core5slice4sort6stable5drift4sort17h17aa28f081c4a7a6E+0x2e4>
100005b84: aa0803e9    	mov	x9, x8
100005b88: 52800028    	mov	w8, #0x1                ; =1
100005b8c: aa09050b    	orr	x11, x8, x9, lsl #1
100005b90: d37ffac8    	lsl	x8, x22, #1
100005b94: cb5c0509    	sub	x9, x8, x28, lsr #1
100005b98: 8b4b0508    	add	x8, x8, x11, lsr #1
100005b9c: f94013ea    	ldr	x10, [sp, #0x20]
100005ba0: 9b0a7d29    	mul	x9, x9, x10
100005ba4: 9b0a7d08    	mul	x8, x8, x10
100005ba8: ca090108    	eor	x8, x8, x9
100005bac: dac0110a    	clz	x10, x8
100005bb0: f1000aff    	cmp	x23, #0x2
100005bb4: 54001003    	b.lo	0x100005db4 <__ZN4core5slice4sort6stable5drift4sort17h17aa28f081c4a7a6E+0x534>
100005bb8: d37beac8    	lsl	x8, x22, #5
100005bbc: 8b0802a9    	add	x9, x21, x8
100005bc0: f9001fe9    	str	x9, [sp, #0x38]
100005bc4: f94017e9    	ldr	x9, [sp, #0x28]
100005bc8: 8b080128    	add	x8, x9, x8
100005bcc: a904afe8    	stp	x8, x11, [sp, #0x48]
100005bd0: f9003bea    	str	x10, [sp, #0x70]
100005bd4: f90033f6    	str	x22, [sp, #0x60]
100005bd8: 1400000c    	b	0x100005c08 <__ZN4core5slice4sort6stable5drift4sort17h17aa28f081c4a7a6E+0x388>
100005bdc: aa1503e1    	mov	x1, x21
100005be0: f9402ff5    	ldr	x21, [sp, #0x58]
100005be4: cb010102    	sub	x2, x8, x1
100005be8: aa1403e0    	mov	x0, x20
100005bec: 9400c1a0    	bl	0x10003626c <dyld_stub_binder+0x10003626c>
100005bf0: a9470fea    	ldp	x10, x3, [sp, #0x70]
100005bf4: 52800028    	mov	w8, #0x1                ; =1
100005bf8: aa13051c    	orr	x28, x8, x19, lsl #1
100005bfc: f94033f6    	ldr	x22, [sp, #0x60]
100005c00: f100071f    	cmp	x24, #0x1
100005c04: 54000d29    	b.ls	0x100005da8 <__ZN4core5slice4sort6stable5drift4sort17h17aa28f081c4a7a6E+0x528>
100005c08: d10006f8    	sub	x24, x23, #0x1
100005c0c: d1026ba8    	sub	x8, x29, #0x9a
100005c10: 38786908    	ldrb	w8, [x8, x24]
100005c14: 6b0a011f    	cmp	w8, w10
100005c18: 54000ca3    	b.lo	0x100005dac <__ZN4core5slice4sort6stable5drift4sort17h17aa28f081c4a7a6E+0x52c>
100005c1c: aa1803f7    	mov	x23, x24
100005c20: 910203e8    	add	x8, sp, #0x80
100005c24: f8787919    	ldr	x25, [x8, x24, lsl #3]
100005c28: d341ff3a    	lsr	x26, x25, #1
100005c2c: d341ff9b    	lsr	x27, x28, #1
100005c30: 2a1c0328    	orr	w8, w25, w28
100005c34: 92400108    	and	x8, x8, #0x1
100005c38: 8b1b0353    	add	x19, x26, x27
100005c3c: eb03027f    	cmp	x19, x3
100005c40: fa409900    	ccmp	x8, #0x0, #0x0, ls
100005c44: 54000260    	b.eq	0x100005c90 <__ZN4core5slice4sort6stable5drift4sort17h17aa28f081c4a7a6E+0x410>
100005c48: cb1302c8    	sub	x8, x22, x19
100005c4c: 8b0816b4    	add	x20, x21, x8, lsl #5
100005c50: 37000299    	tbnz	w25, #0x0, 0x100005ca0 <__ZN4core5slice4sort6stable5drift4sort17h17aa28f081c4a7a6E+0x420>
100005c54: b2400348    	orr	x8, x26, #0x1
100005c58: dac01108    	clz	x8, x8
100005c5c: 531f7908    	lsl	w8, w8, #1
100005c60: 521f1504    	eor	w4, w8, #0x7e
100005c64: aa1403e0    	mov	x0, x20
100005c68: aa1a03e1    	mov	x1, x26
100005c6c: f94037e2    	ldr	x2, [sp, #0x68]
100005c70: f9403fe3    	ldr	x3, [sp, #0x78]
100005c74: d2800005    	mov	x5, #0x0                ; =0
100005c78: 940005e4    	bl	0x100007408 <__ZN4core5slice4sort6stable9quicksort9quicksort17h07c2ad961e258bf6E>
100005c7c: a9470fea    	ldp	x10, x3, [sp, #0x70]
100005c80: 3600013c    	tbz	w28, #0x0, 0x100005ca4 <__ZN4core5slice4sort6stable5drift4sort17h17aa28f081c4a7a6E+0x424>
100005c84: f1000b9f    	cmp	x28, #0x2
100005c88: 54000282    	b.hs	0x100005cd8 <__ZN4core5slice4sort6stable5drift4sort17h17aa28f081c4a7a6E+0x458>
100005c8c: 17ffffda    	b	0x100005bf4 <__ZN4core5slice4sort6stable5drift4sort17h17aa28f081c4a7a6E+0x374>
100005c90: d37ffa7c    	lsl	x28, x19, #1
100005c94: f100071f    	cmp	x24, #0x1
100005c98: 54fffb88    	b.hi	0x100005c08 <__ZN4core5slice4sort6stable5drift4sort17h17aa28f081c4a7a6E+0x388>
100005c9c: 14000043    	b	0x100005da8 <__ZN4core5slice4sort6stable5drift4sort17h17aa28f081c4a7a6E+0x528>
100005ca0: 3707ff3c    	tbnz	w28, #0x0, 0x100005c84 <__ZN4core5slice4sort6stable5drift4sort17h17aa28f081c4a7a6E+0x404>
100005ca4: 8b1a1680    	add	x0, x20, x26, lsl #5
100005ca8: b2400368    	orr	x8, x27, #0x1
100005cac: dac01108    	clz	x8, x8
100005cb0: 531f7908    	lsl	w8, w8, #1
100005cb4: 521f1504    	eor	w4, w8, #0x7e
100005cb8: aa1b03e1    	mov	x1, x27
100005cbc: f94037e2    	ldr	x2, [sp, #0x68]
100005cc0: f9403fe3    	ldr	x3, [sp, #0x78]
100005cc4: d2800005    	mov	x5, #0x0                ; =0
100005cc8: 940005d0    	bl	0x100007408 <__ZN4core5slice4sort6stable9quicksort9quicksort17h07c2ad961e258bf6E>
100005ccc: a9470fea    	ldp	x10, x3, [sp, #0x70]
100005cd0: f1000b9f    	cmp	x28, #0x2
100005cd4: 54fff903    	b.lo	0x100005bf4 <__ZN4core5slice4sort6stable5drift4sort17h17aa28f081c4a7a6E+0x374>
100005cd8: f1000b3f    	cmp	x25, #0x2
100005cdc: 54fff8c3    	b.lo	0x100005bf4 <__ZN4core5slice4sort6stable5drift4sort17h17aa28f081c4a7a6E+0x374>
100005ce0: eb1b035f    	cmp	x26, x27
100005ce4: 9a9b3356    	csel	x22, x26, x27, lo
100005ce8: eb0302df    	cmp	x22, x3
100005cec: 54fff848    	b.hi	0x100005bf4 <__ZN4core5slice4sort6stable5drift4sort17h17aa28f081c4a7a6E+0x374>
100005cf0: 8b1a1699    	add	x25, x20, x26, lsl #5
100005cf4: eb1a037f    	cmp	x27, x26
100005cf8: 9a943321    	csel	x1, x25, x20, lo
100005cfc: d37beadc    	lsl	x28, x22, #5
100005d00: f94037f5    	ldr	x21, [sp, #0x68]
100005d04: aa1503e0    	mov	x0, x21
100005d08: aa1c03e2    	mov	x2, x28
100005d0c: 9400c158    	bl	0x10003626c <dyld_stub_binder+0x10003626c>
100005d10: 8b1c02a8    	add	x8, x21, x28
100005d14: eb1a037f    	cmp	x27, x26
100005d18: 54000262    	b.hs	0x100005d64 <__ZN4core5slice4sort6stable5drift4sort17h17aa28f081c4a7a6E+0x4e4>
100005d1c: f94027e9    	ldr	x9, [sp, #0x48]
100005d20: d100832a    	sub	x10, x25, #0x20
100005d24: d100810b    	sub	x11, x8, #0x20
100005d28: f85f0108    	ldur	x8, [x8, #-0x10]
100005d2c: f85f032c    	ldur	x12, [x25, #-0x10]
100005d30: eb0c011f    	cmp	x8, x12
100005d34: 9a8b3148    	csel	x8, x10, x11, lo
100005d38: 1a9f27ec    	cset	w12, lo
100005d3c: 1a9f37ed    	cset	w13, hs
100005d40: ad400101    	ldp	q1, q0, [x8]
100005d44: acbf0121    	stp	q1, q0, [x9], #-0x20
100005d48: 8b0d1559    	add	x25, x10, x13, lsl #5
100005d4c: 8b0c1568    	add	x8, x11, x12, lsl #5
100005d50: eb14033f    	cmp	x25, x20
100005d54: fa551104    	ccmp	x8, x21, #0x4, ne
100005d58: 54fffe41    	b.ne	0x100005d20 <__ZN4core5slice4sort6stable5drift4sort17h17aa28f081c4a7a6E+0x4a0>
100005d5c: aa1903f4    	mov	x20, x25
100005d60: 17ffff9f    	b	0x100005bdc <__ZN4core5slice4sort6stable5drift4sort17h17aa28f081c4a7a6E+0x35c>
100005d64: b4fff3d6    	cbz	x22, 0x100005bdc <__ZN4core5slice4sort6stable5drift4sort17h17aa28f081c4a7a6E+0x35c>
100005d68: aa1503e1    	mov	x1, x21
100005d6c: f9401fec    	ldr	x12, [sp, #0x38]
100005d70: f9400b29    	ldr	x9, [x25, #0x10]
100005d74: f940082a    	ldr	x10, [x1, #0x10]
100005d78: eb0a013f    	cmp	x9, x10
100005d7c: 9a813329    	csel	x9, x25, x1, lo
100005d80: 1a9f27ea    	cset	w10, lo
100005d84: 1a9f37eb    	cset	w11, hs
100005d88: ad400121    	ldp	q1, q0, [x9]
100005d8c: ac810281    	stp	q1, q0, [x20], #0x20
100005d90: 8b0b1421    	add	x1, x1, x11, lsl #5
100005d94: 8b0a1739    	add	x25, x25, x10, lsl #5
100005d98: eb08003f    	cmp	x1, x8
100005d9c: fa4c1324    	ccmp	x25, x12, #0x4, ne
100005da0: 54fffe81    	b.ne	0x100005d70 <__ZN4core5slice4sort6stable5drift4sort17h17aa28f081c4a7a6E+0x4f0>
100005da4: 17ffff8f    	b	0x100005be0 <__ZN4core5slice4sort6stable5drift4sort17h17aa28f081c4a7a6E+0x360>
100005da8: 52800037    	mov	w23, #0x1               ; =1
100005dac: f9401bf4    	ldr	x20, [sp, #0x30]
100005db0: f9402beb    	ldr	x11, [sp, #0x50]
100005db4: 910203e8    	add	x8, sp, #0x80
100005db8: f837791c    	str	x28, [x8, x23, lsl #3]
100005dbc: d1026ba8    	sub	x8, x29, #0x9a
100005dc0: 3837690a    	strb	w10, [x8, x23]
100005dc4: eb16029f    	cmp	x20, x22
100005dc8: 54ffdae8    	b.hi	0x100005924 <__ZN4core5slice4sort6stable5drift4sort17h17aa28f081c4a7a6E+0xa4>
100005dcc: 3700023c    	tbnz	w28, #0x0, 0x100005e10 <__ZN4core5slice4sort6stable5drift4sort17h17aa28f081c4a7a6E+0x590>
100005dd0: b2400288    	orr	x8, x20, #0x1
100005dd4: dac01108    	clz	x8, x8
100005dd8: 531f7908    	lsl	w8, w8, #1
100005ddc: 521f1504    	eor	w4, w8, #0x7e
100005de0: aa1503e0    	mov	x0, x21
100005de4: aa1403e1    	mov	x1, x20
100005de8: f94037e2    	ldr	x2, [sp, #0x68]
100005dec: d2800005    	mov	x5, #0x0                ; =0
100005df0: 910b83ff    	add	sp, sp, #0x2e0
100005df4: a9457bfd    	ldp	x29, x30, [sp, #0x50]
100005df8: a9444ff4    	ldp	x20, x19, [sp, #0x40]
100005dfc: a94357f6    	ldp	x22, x21, [sp, #0x30]
100005e00: a9425ff8    	ldp	x24, x23, [sp, #0x20]
100005e04: a94167fa    	ldp	x26, x25, [sp, #0x10]
100005e08: a8c66ffc    	ldp	x28, x27, [sp], #0x60
100005e0c: 1400057f    	b	0x100007408 <__ZN4core5slice4sort6stable9quicksort9quicksort17h07c2ad961e258bf6E>
100005e10: 910b83ff    	add	sp, sp, #0x2e0
100005e14: a9457bfd    	ldp	x29, x30, [sp, #0x50]
100005e18: a9444ff4    	ldp	x20, x19, [sp, #0x40]
100005e1c: a94357f6    	ldp	x22, x21, [sp, #0x30]
100005e20: a9425ff8    	ldp	x24, x23, [sp, #0x20]
100005e24: a94167fa    	ldp	x26, x25, [sp, #0x10]
100005e28: a8c66ffc    	ldp	x28, x27, [sp], #0x60
100005e2c: d65f03c0    	ret

0000000100005e30 <__ZN4core5slice4sort6stable5drift4sort17h2a75905af51625f8E>:
100005e30: a9ba6ffc    	stp	x28, x27, [sp, #-0x60]!
100005e34: a90167fa    	stp	x26, x25, [sp, #0x10]
100005e38: a9025ff8    	stp	x24, x23, [sp, #0x20]
100005e3c: a90357f6    	stp	x22, x21, [sp, #0x30]
100005e40: a9044ff4    	stp	x20, x19, [sp, #0x40]
100005e44: a9057bfd    	stp	x29, x30, [sp, #0x50]
100005e48: 910143fd    	add	x29, sp, #0x50
100005e4c: d10b83ff    	sub	sp, sp, #0x2e0
100005e50: b9001fe4    	str	w4, [sp, #0x1c]
100005e54: f90037e2    	str	x2, [sp, #0x68]
100005e58: aa0103f4    	mov	x20, x1
100005e5c: aa0003f5    	mov	x21, x0
100005e60: 92f80008    	mov	x8, #0x3fffffffffffffff ; =4611686018427387903
100005e64: 8b080033    	add	x19, x1, x8
100005e68: f140043f    	cmp	x1, #0x1, lsl #12       ; =0x1000
100005e6c: f9003fe3    	str	x3, [sp, #0x78]
100005e70: 540000e8    	b.hi	0x100005e8c <__ZN4core5slice4sort6stable5drift4sort17h2a75905af51625f8E+0x5c>
100005e74: cb540688    	sub	x8, x20, x20, lsr #1
100005e78: 52800809    	mov	w9, #0x40               ; =64
100005e7c: f101011f    	cmp	x8, #0x40
100005e80: 9a893108    	csel	x8, x8, x9, lo
100005e84: f90023e8    	str	x8, [sp, #0x40]
100005e88: 14000005    	b	0x100005e9c <__ZN4core5slice4sort6stable5drift4sort17h2a75905af51625f8E+0x6c>
100005e8c: aa1403e0    	mov	x0, x20
100005e90: 9400b165    	bl	0x100032424 <__ZN4core5slice4sort6stable5drift11sqrt_approx17hf95746fd6ef160bfE>
100005e94: f9403fe3    	ldr	x3, [sp, #0x78]
100005e98: f90023e0    	str	x0, [sp, #0x40]
100005e9c: d2800016    	mov	x22, #0x0               ; =0
100005ea0: d2800017    	mov	x23, #0x0               ; =0
100005ea4: 910102a9    	add	x9, x21, #0x40
100005ea8: 910042a8    	add	x8, x21, #0x10
100005eac: a900a7e8    	stp	x8, x9, [sp, #0x8]
100005eb0: d10082a9    	sub	x9, x21, #0x20
100005eb4: 5280003c    	mov	w28, #0x1               ; =1
100005eb8: 9ad40a68    	udiv	x8, x19, x20
100005ebc: a90227e8    	stp	x8, x9, [sp, #0x20]
100005ec0: f9001bf4    	str	x20, [sp, #0x30]
100005ec4: f9002ff5    	str	x21, [sp, #0x58]
100005ec8: eb160289    	subs	x9, x20, x22
100005ecc: 540000e9    	b.ls	0x100005ee8 <__ZN4core5slice4sort6stable5drift4sort17h2a75905af51625f8E+0xb8>
100005ed0: 1400000b    	b	0x100005efc <__ZN4core5slice4sort6stable5drift4sort17h2a75905af51625f8E+0xcc>
100005ed4: 910006f7    	add	x23, x23, #0x1
100005ed8: 8b4b06d6    	add	x22, x22, x11, lsr #1
100005edc: aa0b03fc    	mov	x28, x11
100005ee0: eb160289    	subs	x9, x20, x22
100005ee4: 540000c8    	b.hi	0x100005efc <__ZN4core5slice4sort6stable5drift4sort17h2a75905af51625f8E+0xcc>
100005ee8: 5280000a    	mov	w10, #0x0               ; =0
100005eec: 5280002b    	mov	w11, #0x1               ; =1
100005ef0: f1000aff    	cmp	x23, #0x2
100005ef4: 540013a2    	b.hs	0x100006168 <__ZN4core5slice4sort6stable5drift4sort17h2a75905af51625f8E+0x338>
100005ef8: 14000119    	b	0x10000635c <__ZN4core5slice4sort6stable5drift4sort17h2a75905af51625f8E+0x52c>
100005efc: 8b1616a0    	add	x0, x21, x22, lsl #5
100005f00: f94023e8    	ldr	x8, [sp, #0x40]
100005f04: eb08013f    	cmp	x9, x8
100005f08: 54000202    	b.hs	0x100005f48 <__ZN4core5slice4sort6stable5drift4sort17h2a75905af51625f8E+0x118>
100005f0c: b9401fe8    	ldr	w8, [sp, #0x1c]
100005f10: 36000408    	tbz	w8, #0x0, 0x100005f90 <__ZN4core5slice4sort6stable5drift4sort17h2a75905af51625f8E+0x160>
100005f14: f100813f    	cmp	x9, #0x20
100005f18: 52800408    	mov	w8, #0x20               ; =32
100005f1c: 9a883139    	csel	x25, x9, x8, lo
100005f20: aa1903e1    	mov	x1, x25
100005f24: f94037e2    	ldr	x2, [sp, #0x68]
100005f28: f9403fe3    	ldr	x3, [sp, #0x78]
100005f2c: 52800004    	mov	w4, #0x0                ; =0
100005f30: d2800005    	mov	x5, #0x0                ; =0
100005f34: 94000cb3    	bl	0x100009200 <__ZN4core5slice4sort6stable9quicksort9quicksort17h9a0124444fc3d9d1E>
100005f38: f9403fe3    	ldr	x3, [sp, #0x78]
100005f3c: 52800028    	mov	w8, #0x1                ; =1
100005f40: aa19050b    	orr	x11, x8, x25, lsl #1
100005f44: 1400007f    	b	0x100006140 <__ZN4core5slice4sort6stable5drift4sort17h2a75905af51625f8E+0x310>
100005f48: f100093f    	cmp	x9, #0x2
100005f4c: 54000f63    	b.lo	0x100006138 <__ZN4core5slice4sort6stable5drift4sort17h2a75905af51625f8E+0x308>
100005f50: f940100a    	ldr	x10, [x0, #0x20]
100005f54: f940000b    	ldr	x11, [x0]
100005f58: eb0b015f    	cmp	x10, x11
100005f5c: 54000242    	b.hs	0x100005fa4 <__ZN4core5slice4sort6stable5drift4sort17h2a75905af51625f8E+0x174>
100005f60: f100093f    	cmp	x9, #0x2
100005f64: 540002e1    	b.ne	0x100005fc0 <__ZN4core5slice4sort6stable5drift4sort17h2a75905af51625f8E+0x190>
100005f68: f94023e8    	ldr	x8, [sp, #0x40]
100005f6c: f100091f    	cmp	x8, #0x2
100005f70: 54fffce8    	b.hi	0x100005f0c <__ZN4core5slice4sort6stable5drift4sort17h2a75905af51625f8E+0xdc>
100005f74: 91008009    	add	x9, x0, #0x20
100005f78: 5280002a    	mov	w10, #0x1               ; =1
100005f7c: 52800048    	mov	w8, #0x2                ; =2
100005f80: f100295f    	cmp	x10, #0xa
100005f84: 540006a2    	b.hs	0x100006058 <__ZN4core5slice4sort6stable5drift4sort17h2a75905af51625f8E+0x228>
100005f88: d280000b    	mov	x11, #0x0               ; =0
100005f8c: 1400005a    	b	0x1000060f4 <__ZN4core5slice4sort6stable5drift4sort17h2a75905af51625f8E+0x2c4>
100005f90: f94023e8    	ldr	x8, [sp, #0x40]
100005f94: eb09011f    	cmp	x8, x9
100005f98: 9a893108    	csel	x8, x8, x9, lo
100005f9c: d37ff90b    	lsl	x11, x8, #1
100005fa0: 14000068    	b	0x100006140 <__ZN4core5slice4sort6stable5drift4sort17h2a75905af51625f8E+0x310>
100005fa4: f100093f    	cmp	x9, #0x2
100005fa8: 54000241    	b.ne	0x100005ff0 <__ZN4core5slice4sort6stable5drift4sort17h2a75905af51625f8E+0x1c0>
100005fac: f94023e8    	ldr	x8, [sp, #0x40]
100005fb0: f100091f    	cmp	x8, #0x2
100005fb4: 54fffac8    	b.hi	0x100005f0c <__ZN4core5slice4sort6stable5drift4sort17h2a75905af51625f8E+0xdc>
100005fb8: 52800049    	mov	w9, #0x2                ; =2
100005fbc: 1400005f    	b	0x100006138 <__ZN4core5slice4sort6stable5drift4sort17h2a75905af51625f8E+0x308>
100005fc0: f9400be8    	ldr	x8, [sp, #0x10]
100005fc4: 8b16150c    	add	x12, x8, x22, lsl #5
100005fc8: aa0a03ed    	mov	x13, x10
100005fcc: 52800048    	mov	w8, #0x2                ; =2
100005fd0: f842058e    	ldr	x14, [x12], #0x20
100005fd4: eb0d01df    	cmp	x14, x13
100005fd8: 54000242    	b.hs	0x100006020 <__ZN4core5slice4sort6stable5drift4sort17h2a75905af51625f8E+0x1f0>
100005fdc: 91000508    	add	x8, x8, #0x1
100005fe0: aa0e03ed    	mov	x13, x14
100005fe4: eb08013f    	cmp	x9, x8
100005fe8: 54ffff41    	b.ne	0x100005fd0 <__ZN4core5slice4sort6stable5drift4sort17h2a75905af51625f8E+0x1a0>
100005fec: 1400000c    	b	0x10000601c <__ZN4core5slice4sort6stable5drift4sort17h2a75905af51625f8E+0x1ec>
100005ff0: f9400be8    	ldr	x8, [sp, #0x10]
100005ff4: 8b16150c    	add	x12, x8, x22, lsl #5
100005ff8: aa0a03ed    	mov	x13, x10
100005ffc: 52800048    	mov	w8, #0x2                ; =2
100006000: f842058e    	ldr	x14, [x12], #0x20
100006004: eb0d01df    	cmp	x14, x13
100006008: 540000c3    	b.lo	0x100006020 <__ZN4core5slice4sort6stable5drift4sort17h2a75905af51625f8E+0x1f0>
10000600c: 91000508    	add	x8, x8, #0x1
100006010: aa0e03ed    	mov	x13, x14
100006014: eb08013f    	cmp	x9, x8
100006018: 54ffff41    	b.ne	0x100006000 <__ZN4core5slice4sort6stable5drift4sort17h2a75905af51625f8E+0x1d0>
10000601c: aa0903e8    	mov	x8, x9
100006020: f94023ec    	ldr	x12, [sp, #0x40]
100006024: eb0c011f    	cmp	x8, x12
100006028: 54fff723    	b.lo	0x100005f0c <__ZN4core5slice4sort6stable5drift4sort17h2a75905af51625f8E+0xdc>
10000602c: eb0b015f    	cmp	x10, x11
100006030: 54000822    	b.hs	0x100006134 <__ZN4core5slice4sort6stable5drift4sort17h2a75905af51625f8E+0x304>
100006034: f100091f    	cmp	x8, #0x2
100006038: 54000062    	b.hs	0x100006044 <__ZN4core5slice4sort6stable5drift4sort17h2a75905af51625f8E+0x214>
10000603c: 52800029    	mov	w9, #0x1                ; =1
100006040: 1400003e    	b	0x100006138 <__ZN4core5slice4sort6stable5drift4sort17h2a75905af51625f8E+0x308>
100006044: d341fd0a    	lsr	x10, x8, #1
100006048: 8b081409    	add	x9, x0, x8, lsl #5
10000604c: cb0a1529    	sub	x9, x9, x10, lsl #5
100006050: f100295f    	cmp	x10, #0xa
100006054: 54fff9a3    	b.lo	0x100005f88 <__ZN4core5slice4sort6stable5drift4sort17h2a75905af51625f8E+0x158>
100006058: d280000b    	mov	x11, #0x0               ; =0
10000605c: d100054d    	sub	x13, x10, #0x1
100006060: d37be94c    	lsl	x12, x10, #5
100006064: 8b0c012e    	add	x14, x9, x12
100006068: d37be9af    	lsl	x15, x13, #5
10000606c: d10081d0    	sub	x16, x14, #0x20
100006070: cb0f0211    	sub	x17, x16, x15
100006074: eb10023f    	cmp	x17, x16
100006078: 540003e8    	b.hi	0x1000060f4 <__ZN4core5slice4sort6stable5drift4sort17h2a75905af51625f8E+0x2c4>
10000607c: d10061d0    	sub	x16, x14, #0x18
100006080: cb0f0211    	sub	x17, x16, x15
100006084: eb10023f    	cmp	x17, x16
100006088: 54000368    	b.hi	0x1000060f4 <__ZN4core5slice4sort6stable5drift4sort17h2a75905af51625f8E+0x2c4>
10000608c: d10021d0    	sub	x16, x14, #0x8
100006090: cb0f0211    	sub	x17, x16, x15
100006094: eb10023f    	cmp	x17, x16
100006098: 540002e8    	b.hi	0x1000060f4 <__ZN4core5slice4sort6stable5drift4sort17h2a75905af51625f8E+0x2c4>
10000609c: d10041ce    	sub	x14, x14, #0x10
1000060a0: cb0f01cf    	sub	x15, x14, x15
1000060a4: eb0e01ff    	cmp	x15, x14
1000060a8: 54000268    	b.hi	0x1000060f4 <__ZN4core5slice4sort6stable5drift4sort17h2a75905af51625f8E+0x2c4>
1000060ac: d37bfdad    	lsr	x13, x13, #59
1000060b0: b500022d    	cbnz	x13, 0x1000060f4 <__ZN4core5slice4sort6stable5drift4sort17h2a75905af51625f8E+0x2c4>
1000060b4: 927fe94b    	and	x11, x10, #0xffffffffffffffe
1000060b8: 8b0c012c    	add	x12, x9, x12
1000060bc: d101018c    	sub	x12, x12, #0x40
1000060c0: aa0b03ed    	mov	x13, x11
1000060c4: ad410001    	ldp	q1, q0, [x0, #0x20]
1000060c8: ad400803    	ldp	q3, q2, [x0]
1000060cc: ad411185    	ldp	q5, q4, [x12, #0x20]
1000060d0: ad401987    	ldp	q7, q6, [x12]
1000060d4: ad011807    	stp	q7, q6, [x0, #0x20]
1000060d8: ad010983    	stp	q3, q2, [x12, #0x20]
1000060dc: acbe0181    	stp	q1, q0, [x12], #-0x40
1000060e0: ac821005    	stp	q5, q4, [x0], #0x40
1000060e4: f10009ad    	subs	x13, x13, #0x2
1000060e8: 54fffee1    	b.ne	0x1000060c4 <__ZN4core5slice4sort6stable5drift4sort17h2a75905af51625f8E+0x294>
1000060ec: eb0b015f    	cmp	x10, x11
1000060f0: 54000220    	b.eq	0x100006134 <__ZN4core5slice4sort6stable5drift4sort17h2a75905af51625f8E+0x304>
1000060f4: cb0b014c    	sub	x12, x10, x11
1000060f8: d37be96b    	lsl	x11, x11, #5
1000060fc: cb0b0129    	sub	x9, x9, x11
100006100: 8b0a1529    	add	x9, x9, x10, lsl #5
100006104: d1004129    	sub	x9, x9, #0x10
100006108: 8b16156a    	add	x10, x11, x22, lsl #5
10000610c: f94007eb    	ldr	x11, [sp, #0x8]
100006110: 8b0a016a    	add	x10, x11, x10
100006114: ad7f8520    	ldp	q0, q1, [x9, #-0x10]
100006118: ad7f8d42    	ldp	q2, q3, [x10, #-0x10]
10000611c: ad3f8540    	stp	q0, q1, [x10, #-0x10]
100006120: ad3f8d22    	stp	q2, q3, [x9, #-0x10]
100006124: d1008129    	sub	x9, x9, #0x20
100006128: 9100814a    	add	x10, x10, #0x20
10000612c: d100058c    	sub	x12, x12, #0x1
100006130: b5ffff2c    	cbnz	x12, 0x100006114 <__ZN4core5slice4sort6stable5drift4sort17h2a75905af51625f8E+0x2e4>
100006134: aa0803e9    	mov	x9, x8
100006138: 52800028    	mov	w8, #0x1                ; =1
10000613c: aa09050b    	orr	x11, x8, x9, lsl #1
100006140: d37ffac8    	lsl	x8, x22, #1
100006144: cb5c0509    	sub	x9, x8, x28, lsr #1
100006148: 8b4b0508    	add	x8, x8, x11, lsr #1
10000614c: f94013ea    	ldr	x10, [sp, #0x20]
100006150: 9b0a7d29    	mul	x9, x9, x10
100006154: 9b0a7d08    	mul	x8, x8, x10
100006158: ca090108    	eor	x8, x8, x9
10000615c: dac0110a    	clz	x10, x8
100006160: f1000aff    	cmp	x23, #0x2
100006164: 54000fc3    	b.lo	0x10000635c <__ZN4core5slice4sort6stable5drift4sort17h2a75905af51625f8E+0x52c>
100006168: d37beac8    	lsl	x8, x22, #5
10000616c: 8b0802a9    	add	x9, x21, x8
100006170: f9001fe9    	str	x9, [sp, #0x38]
100006174: f94017e9    	ldr	x9, [sp, #0x28]
100006178: 8b080128    	add	x8, x9, x8
10000617c: a904afe8    	stp	x8, x11, [sp, #0x48]
100006180: f9003bea    	str	x10, [sp, #0x70]
100006184: f90033f6    	str	x22, [sp, #0x60]
100006188: 1400000c    	b	0x1000061b8 <__ZN4core5slice4sort6stable5drift4sort17h2a75905af51625f8E+0x388>
10000618c: aa1503e1    	mov	x1, x21
100006190: f9402ff5    	ldr	x21, [sp, #0x58]
100006194: cb010102    	sub	x2, x8, x1
100006198: aa1403e0    	mov	x0, x20
10000619c: 9400c034    	bl	0x10003626c <dyld_stub_binder+0x10003626c>
1000061a0: a9470fea    	ldp	x10, x3, [sp, #0x70]
1000061a4: 52800028    	mov	w8, #0x1                ; =1
1000061a8: aa13051c    	orr	x28, x8, x19, lsl #1
1000061ac: f94033f6    	ldr	x22, [sp, #0x60]
1000061b0: f100071f    	cmp	x24, #0x1
1000061b4: 54000ce9    	b.ls	0x100006350 <__ZN4core5slice4sort6stable5drift4sort17h2a75905af51625f8E+0x520>
1000061b8: d10006f8    	sub	x24, x23, #0x1
1000061bc: d1026ba8    	sub	x8, x29, #0x9a
1000061c0: 38786908    	ldrb	w8, [x8, x24]
1000061c4: 6b0a011f    	cmp	w8, w10
1000061c8: 54000c63    	b.lo	0x100006354 <__ZN4core5slice4sort6stable5drift4sort17h2a75905af51625f8E+0x524>
1000061cc: aa1803f7    	mov	x23, x24
1000061d0: 910203e8    	add	x8, sp, #0x80
1000061d4: f8787919    	ldr	x25, [x8, x24, lsl #3]
1000061d8: d341ff3a    	lsr	x26, x25, #1
1000061dc: d341ff9b    	lsr	x27, x28, #1
1000061e0: 2a1c0328    	orr	w8, w25, w28
1000061e4: 92400108    	and	x8, x8, #0x1
1000061e8: 8b1b0353    	add	x19, x26, x27
1000061ec: eb03027f    	cmp	x19, x3
1000061f0: fa409900    	ccmp	x8, #0x0, #0x0, ls
1000061f4: 54000260    	b.eq	0x100006240 <__ZN4core5slice4sort6stable5drift4sort17h2a75905af51625f8E+0x410>
1000061f8: cb1302c8    	sub	x8, x22, x19
1000061fc: 8b0816b4    	add	x20, x21, x8, lsl #5
100006200: 37000299    	tbnz	w25, #0x0, 0x100006250 <__ZN4core5slice4sort6stable5drift4sort17h2a75905af51625f8E+0x420>
100006204: b2400348    	orr	x8, x26, #0x1
100006208: dac01108    	clz	x8, x8
10000620c: 531f7908    	lsl	w8, w8, #1
100006210: 521f1504    	eor	w4, w8, #0x7e
100006214: aa1403e0    	mov	x0, x20
100006218: aa1a03e1    	mov	x1, x26
10000621c: f94037e2    	ldr	x2, [sp, #0x68]
100006220: f9403fe3    	ldr	x3, [sp, #0x78]
100006224: d2800005    	mov	x5, #0x0                ; =0
100006228: 94000bf6    	bl	0x100009200 <__ZN4core5slice4sort6stable9quicksort9quicksort17h9a0124444fc3d9d1E>
10000622c: a9470fea    	ldp	x10, x3, [sp, #0x70]
100006230: 3600013c    	tbz	w28, #0x0, 0x100006254 <__ZN4core5slice4sort6stable5drift4sort17h2a75905af51625f8E+0x424>
100006234: f1000b9f    	cmp	x28, #0x2
100006238: 54000282    	b.hs	0x100006288 <__ZN4core5slice4sort6stable5drift4sort17h2a75905af51625f8E+0x458>
10000623c: 17ffffda    	b	0x1000061a4 <__ZN4core5slice4sort6stable5drift4sort17h2a75905af51625f8E+0x374>
100006240: d37ffa7c    	lsl	x28, x19, #1
100006244: f100071f    	cmp	x24, #0x1
100006248: 54fffb88    	b.hi	0x1000061b8 <__ZN4core5slice4sort6stable5drift4sort17h2a75905af51625f8E+0x388>
10000624c: 14000041    	b	0x100006350 <__ZN4core5slice4sort6stable5drift4sort17h2a75905af51625f8E+0x520>
100006250: 3707ff3c    	tbnz	w28, #0x0, 0x100006234 <__ZN4core5slice4sort6stable5drift4sort17h2a75905af51625f8E+0x404>
100006254: 8b1a1680    	add	x0, x20, x26, lsl #5
100006258: b2400368    	orr	x8, x27, #0x1
10000625c: dac01108    	clz	x8, x8
100006260: 531f7908    	lsl	w8, w8, #1
100006264: 521f1504    	eor	w4, w8, #0x7e
100006268: aa1b03e1    	mov	x1, x27
10000626c: f94037e2    	ldr	x2, [sp, #0x68]
100006270: f9403fe3    	ldr	x3, [sp, #0x78]
100006274: d2800005    	mov	x5, #0x0                ; =0
100006278: 94000be2    	bl	0x100009200 <__ZN4core5slice4sort6stable9quicksort9quicksort17h9a0124444fc3d9d1E>
10000627c: a9470fea    	ldp	x10, x3, [sp, #0x70]
100006280: f1000b9f    	cmp	x28, #0x2
100006284: 54fff903    	b.lo	0x1000061a4 <__ZN4core5slice4sort6stable5drift4sort17h2a75905af51625f8E+0x374>
100006288: f1000b3f    	cmp	x25, #0x2
10000628c: 54fff8c3    	b.lo	0x1000061a4 <__ZN4core5slice4sort6stable5drift4sort17h2a75905af51625f8E+0x374>
100006290: eb1b035f    	cmp	x26, x27
100006294: 9a9b3356    	csel	x22, x26, x27, lo
100006298: eb0302df    	cmp	x22, x3
10000629c: 54fff848    	b.hi	0x1000061a4 <__ZN4core5slice4sort6stable5drift4sort17h2a75905af51625f8E+0x374>
1000062a0: 8b1a1699    	add	x25, x20, x26, lsl #5
1000062a4: eb1a037f    	cmp	x27, x26
1000062a8: 9a943321    	csel	x1, x25, x20, lo
1000062ac: d37beadc    	lsl	x28, x22, #5
1000062b0: f94037f5    	ldr	x21, [sp, #0x68]
1000062b4: aa1503e0    	mov	x0, x21
1000062b8: aa1c03e2    	mov	x2, x28
1000062bc: 9400bfec    	bl	0x10003626c <dyld_stub_binder+0x10003626c>
1000062c0: 8b1c02a8    	add	x8, x21, x28
1000062c4: eb1a037f    	cmp	x27, x26
1000062c8: 54000222    	b.hs	0x10000630c <__ZN4core5slice4sort6stable5drift4sort17h2a75905af51625f8E+0x4dc>
1000062cc: f94027e9    	ldr	x9, [sp, #0x48]
1000062d0: f85e0d0a    	ldr	x10, [x8, #-0x20]!
1000062d4: f85e0f2b    	ldr	x11, [x25, #-0x20]!
1000062d8: eb0b015f    	cmp	x10, x11
1000062dc: 9a88332a    	csel	x10, x25, x8, lo
1000062e0: 1a9f27eb    	cset	w11, lo
1000062e4: 1a9f37ec    	cset	w12, hs
1000062e8: ad400141    	ldp	q1, q0, [x10]
1000062ec: acbf0121    	stp	q1, q0, [x9], #-0x20
1000062f0: 8b0c1739    	add	x25, x25, x12, lsl #5
1000062f4: 8b0b1508    	add	x8, x8, x11, lsl #5
1000062f8: eb14033f    	cmp	x25, x20
1000062fc: fa551104    	ccmp	x8, x21, #0x4, ne
100006300: 54fffe81    	b.ne	0x1000062d0 <__ZN4core5slice4sort6stable5drift4sort17h2a75905af51625f8E+0x4a0>
100006304: aa1903f4    	mov	x20, x25
100006308: 17ffffa1    	b	0x10000618c <__ZN4core5slice4sort6stable5drift4sort17h2a75905af51625f8E+0x35c>
10000630c: b4fff416    	cbz	x22, 0x10000618c <__ZN4core5slice4sort6stable5drift4sort17h2a75905af51625f8E+0x35c>
100006310: aa1503e1    	mov	x1, x21
100006314: f9401fec    	ldr	x12, [sp, #0x38]
100006318: f9400329    	ldr	x9, [x25]
10000631c: f940002a    	ldr	x10, [x1]
100006320: eb0a013f    	cmp	x9, x10
100006324: 9a813329    	csel	x9, x25, x1, lo
100006328: 1a9f27ea    	cset	w10, lo
10000632c: 1a9f37eb    	cset	w11, hs
100006330: ad400121    	ldp	q1, q0, [x9]
100006334: ac810281    	stp	q1, q0, [x20], #0x20
100006338: 8b0b1421    	add	x1, x1, x11, lsl #5
10000633c: 8b0a1739    	add	x25, x25, x10, lsl #5
100006340: eb08003f    	cmp	x1, x8
100006344: fa4c1324    	ccmp	x25, x12, #0x4, ne
100006348: 54fffe81    	b.ne	0x100006318 <__ZN4core5slice4sort6stable5drift4sort17h2a75905af51625f8E+0x4e8>
10000634c: 17ffff91    	b	0x100006190 <__ZN4core5slice4sort6stable5drift4sort17h2a75905af51625f8E+0x360>
100006350: 52800037    	mov	w23, #0x1               ; =1
100006354: f9401bf4    	ldr	x20, [sp, #0x30]
100006358: f9402beb    	ldr	x11, [sp, #0x50]
10000635c: 910203e8    	add	x8, sp, #0x80
100006360: f837791c    	str	x28, [x8, x23, lsl #3]
100006364: d1026ba8    	sub	x8, x29, #0x9a
100006368: 3837690a    	strb	w10, [x8, x23]
10000636c: eb16029f    	cmp	x20, x22
100006370: 54ffdb28    	b.hi	0x100005ed4 <__ZN4core5slice4sort6stable5drift4sort17h2a75905af51625f8E+0xa4>
100006374: 3700023c    	tbnz	w28, #0x0, 0x1000063b8 <__ZN4core5slice4sort6stable5drift4sort17h2a75905af51625f8E+0x588>
100006378: b2400288    	orr	x8, x20, #0x1
10000637c: dac01108    	clz	x8, x8
100006380: 531f7908    	lsl	w8, w8, #1
100006384: 521f1504    	eor	w4, w8, #0x7e
100006388: aa1503e0    	mov	x0, x21
10000638c: aa1403e1    	mov	x1, x20
100006390: f94037e2    	ldr	x2, [sp, #0x68]
100006394: d2800005    	mov	x5, #0x0                ; =0
100006398: 910b83ff    	add	sp, sp, #0x2e0
10000639c: a9457bfd    	ldp	x29, x30, [sp, #0x50]
1000063a0: a9444ff4    	ldp	x20, x19, [sp, #0x40]
1000063a4: a94357f6    	ldp	x22, x21, [sp, #0x30]
1000063a8: a9425ff8    	ldp	x24, x23, [sp, #0x20]
1000063ac: a94167fa    	ldp	x26, x25, [sp, #0x10]
1000063b0: a8c66ffc    	ldp	x28, x27, [sp], #0x60
1000063b4: 14000b93    	b	0x100009200 <__ZN4core5slice4sort6stable9quicksort9quicksort17h9a0124444fc3d9d1E>
1000063b8: 910b83ff    	add	sp, sp, #0x2e0
1000063bc: a9457bfd    	ldp	x29, x30, [sp, #0x50]
1000063c0: a9444ff4    	ldp	x20, x19, [sp, #0x40]
1000063c4: a94357f6    	ldp	x22, x21, [sp, #0x30]
1000063c8: a9425ff8    	ldp	x24, x23, [sp, #0x20]
1000063cc: a94167fa    	ldp	x26, x25, [sp, #0x10]
1000063d0: a8c66ffc    	ldp	x28, x27, [sp], #0x60
1000063d4: d65f03c0    	ret

00000001000063d8 <__ZN4core5slice4sort6stable5drift4sort17haed293010cbdd2caE>:
1000063d8: a9ba6ffc    	stp	x28, x27, [sp, #-0x60]!
1000063dc: a90167fa    	stp	x26, x25, [sp, #0x10]
1000063e0: a9025ff8    	stp	x24, x23, [sp, #0x20]
1000063e4: a90357f6    	stp	x22, x21, [sp, #0x30]
1000063e8: a9044ff4    	stp	x20, x19, [sp, #0x40]
1000063ec: a9057bfd    	stp	x29, x30, [sp, #0x50]
1000063f0: 910143fd    	add	x29, sp, #0x50
1000063f4: d10b43ff    	sub	sp, sp, #0x2d0
1000063f8: b9000fe4    	str	w4, [sp, #0xc]
1000063fc: f9002fe2    	str	x2, [sp, #0x58]
100006400: aa0103f4    	mov	x20, x1
100006404: aa0003f5    	mov	x21, x0
100006408: 92f80008    	mov	x8, #0x3fffffffffffffff ; =4611686018427387903
10000640c: 8b080033    	add	x19, x1, x8
100006410: f140043f    	cmp	x1, #0x1, lsl #12       ; =0x1000
100006414: f90037e3    	str	x3, [sp, #0x68]
100006418: 540000e8    	b.hi	0x100006434 <__ZN4core5slice4sort6stable5drift4sort17haed293010cbdd2caE+0x5c>
10000641c: cb540688    	sub	x8, x20, x20, lsr #1
100006420: 52800809    	mov	w9, #0x40               ; =64
100006424: f101011f    	cmp	x8, #0x40
100006428: 9a893108    	csel	x8, x8, x9, lo
10000642c: f9001be8    	str	x8, [sp, #0x30]
100006430: 14000005    	b	0x100006444 <__ZN4core5slice4sort6stable5drift4sort17haed293010cbdd2caE+0x6c>
100006434: aa1403e0    	mov	x0, x20
100006438: 9400affb    	bl	0x100032424 <__ZN4core5slice4sort6stable5drift11sqrt_approx17hf95746fd6ef160bfE>
10000643c: f94037e3    	ldr	x3, [sp, #0x68]
100006440: f9001be0    	str	x0, [sp, #0x30]
100006444: d2800016    	mov	x22, #0x0               ; =0
100006448: d2800017    	mov	x23, #0x0               ; =0
10000644c: 910082a8    	add	x8, x21, #0x20
100006450: f90003e8    	str	x8, [sp]
100006454: d10042a9    	sub	x9, x21, #0x10
100006458: 5280003c    	mov	w28, #0x1               ; =1
10000645c: 9ad40a68    	udiv	x8, x19, x20
100006460: a90127e8    	stp	x8, x9, [sp, #0x10]
100006464: f90013f4    	str	x20, [sp, #0x20]
100006468: f90027f5    	str	x21, [sp, #0x48]
10000646c: eb160288    	subs	x8, x20, x22
100006470: 540000e9    	b.ls	0x10000648c <__ZN4core5slice4sort6stable5drift4sort17haed293010cbdd2caE+0xb4>
100006474: 1400000b    	b	0x1000064a0 <__ZN4core5slice4sort6stable5drift4sort17haed293010cbdd2caE+0xc8>
100006478: 910006f7    	add	x23, x23, #0x1
10000647c: 8b4b06d6    	add	x22, x22, x11, lsr #1
100006480: aa0b03fc    	mov	x28, x11
100006484: eb160288    	subs	x8, x20, x22
100006488: 540000c8    	b.hi	0x1000064a0 <__ZN4core5slice4sort6stable5drift4sort17haed293010cbdd2caE+0xc8>
10000648c: 5280000a    	mov	w10, #0x0               ; =0
100006490: 5280002b    	mov	w11, #0x1               ; =1
100006494: f1000aff    	cmp	x23, #0x2
100006498: 54000d62    	b.hs	0x100006644 <__ZN4core5slice4sort6stable5drift4sort17haed293010cbdd2caE+0x26c>
10000649c: 140000e7    	b	0x100006838 <__ZN4core5slice4sort6stable5drift4sort17haed293010cbdd2caE+0x460>
1000064a0: 8b1612a0    	add	x0, x21, x22, lsl #4
1000064a4: f9401be9    	ldr	x9, [sp, #0x30]
1000064a8: eb09011f    	cmp	x8, x9
1000064ac: 54000202    	b.hs	0x1000064ec <__ZN4core5slice4sort6stable5drift4sort17haed293010cbdd2caE+0x114>
1000064b0: b9400fe9    	ldr	w9, [sp, #0xc]
1000064b4: 360003a9    	tbz	w9, #0x0, 0x100006528 <__ZN4core5slice4sort6stable5drift4sort17haed293010cbdd2caE+0x150>
1000064b8: f100811f    	cmp	x8, #0x20
1000064bc: 52800409    	mov	w9, #0x20               ; =32
1000064c0: 9a893119    	csel	x25, x8, x9, lo
1000064c4: aa1903e1    	mov	x1, x25
1000064c8: f9402fe2    	ldr	x2, [sp, #0x58]
1000064cc: f94037e3    	ldr	x3, [sp, #0x68]
1000064d0: 52800004    	mov	w4, #0x0                ; =0
1000064d4: d2800005    	mov	x5, #0x0                ; =0
1000064d8: 9400057b    	bl	0x100007ac4 <__ZN4core5slice4sort6stable9quicksort9quicksort17h241fe5fae56b035cE>
1000064dc: f94037e3    	ldr	x3, [sp, #0x68]
1000064e0: 52800028    	mov	w8, #0x1                ; =1
1000064e4: aa19050b    	orr	x11, x8, x25, lsl #1
1000064e8: 1400004d    	b	0x10000661c <__ZN4core5slice4sort6stable5drift4sort17haed293010cbdd2caE+0x244>
1000064ec: f100091f    	cmp	x8, #0x2
1000064f0: 54000923    	b.lo	0x100006614 <__ZN4core5slice4sort6stable5drift4sort17haed293010cbdd2caE+0x23c>
1000064f4: f940080a    	ldr	x10, [x0, #0x10]
1000064f8: f940000b    	ldr	x11, [x0]
1000064fc: eb0b015f    	cmp	x10, x11
100006500: 540001e2    	b.hs	0x10000653c <__ZN4core5slice4sort6stable5drift4sort17haed293010cbdd2caE+0x164>
100006504: f100091f    	cmp	x8, #0x2
100006508: 54000281    	b.ne	0x100006558 <__ZN4core5slice4sort6stable5drift4sort17haed293010cbdd2caE+0x180>
10000650c: f9401be9    	ldr	x9, [sp, #0x30]
100006510: f100093f    	cmp	x9, #0x2
100006514: 54fffce8    	b.hi	0x1000064b0 <__ZN4core5slice4sort6stable5drift4sort17haed293010cbdd2caE+0xd8>
100006518: 9100400a    	add	x10, x0, #0x10
10000651c: 52800028    	mov	w8, #0x1                ; =1
100006520: 52800049    	mov	w9, #0x2                ; =2
100006524: 14000031    	b	0x1000065e8 <__ZN4core5slice4sort6stable5drift4sort17haed293010cbdd2caE+0x210>
100006528: f9401be9    	ldr	x9, [sp, #0x30]
10000652c: eb08013f    	cmp	x9, x8
100006530: 9a883128    	csel	x8, x9, x8, lo
100006534: d37ff90b    	lsl	x11, x8, #1
100006538: 14000039    	b	0x10000661c <__ZN4core5slice4sort6stable5drift4sort17haed293010cbdd2caE+0x244>
10000653c: f100091f    	cmp	x8, #0x2
100006540: 54000241    	b.ne	0x100006588 <__ZN4core5slice4sort6stable5drift4sort17haed293010cbdd2caE+0x1b0>
100006544: f9401be9    	ldr	x9, [sp, #0x30]
100006548: f100093f    	cmp	x9, #0x2
10000654c: 54fffb28    	b.hi	0x1000064b0 <__ZN4core5slice4sort6stable5drift4sort17haed293010cbdd2caE+0xd8>
100006550: 52800048    	mov	w8, #0x2                ; =2
100006554: 14000030    	b	0x100006614 <__ZN4core5slice4sort6stable5drift4sort17haed293010cbdd2caE+0x23c>
100006558: f94003e9    	ldr	x9, [sp]
10000655c: 8b16112c    	add	x12, x9, x22, lsl #4
100006560: aa0a03ed    	mov	x13, x10
100006564: 52800049    	mov	w9, #0x2                ; =2
100006568: f841058e    	ldr	x14, [x12], #0x10
10000656c: eb0d01df    	cmp	x14, x13
100006570: 54000242    	b.hs	0x1000065b8 <__ZN4core5slice4sort6stable5drift4sort17haed293010cbdd2caE+0x1e0>
100006574: 91000529    	add	x9, x9, #0x1
100006578: aa0e03ed    	mov	x13, x14
10000657c: eb09011f    	cmp	x8, x9
100006580: 54ffff41    	b.ne	0x100006568 <__ZN4core5slice4sort6stable5drift4sort17haed293010cbdd2caE+0x190>
100006584: 1400000c    	b	0x1000065b4 <__ZN4core5slice4sort6stable5drift4sort17haed293010cbdd2caE+0x1dc>
100006588: f94003e9    	ldr	x9, [sp]
10000658c: 8b16112c    	add	x12, x9, x22, lsl #4
100006590: aa0a03ed    	mov	x13, x10
100006594: 52800049    	mov	w9, #0x2                ; =2
100006598: f841058e    	ldr	x14, [x12], #0x10
10000659c: eb0d01df    	cmp	x14, x13
1000065a0: 540000c3    	b.lo	0x1000065b8 <__ZN4core5slice4sort6stable5drift4sort17haed293010cbdd2caE+0x1e0>
1000065a4: 91000529    	add	x9, x9, #0x1
1000065a8: aa0e03ed    	mov	x13, x14
1000065ac: eb09011f    	cmp	x8, x9
1000065b0: 54ffff41    	b.ne	0x100006598 <__ZN4core5slice4sort6stable5drift4sort17haed293010cbdd2caE+0x1c0>
1000065b4: aa0803e9    	mov	x9, x8
1000065b8: f9401bec    	ldr	x12, [sp, #0x30]
1000065bc: eb0c013f    	cmp	x9, x12
1000065c0: 54fff783    	b.lo	0x1000064b0 <__ZN4core5slice4sort6stable5drift4sort17haed293010cbdd2caE+0xd8>
1000065c4: eb0b015f    	cmp	x10, x11
1000065c8: 54000242    	b.hs	0x100006610 <__ZN4core5slice4sort6stable5drift4sort17haed293010cbdd2caE+0x238>
1000065cc: f100093f    	cmp	x9, #0x2
1000065d0: 54000062    	b.hs	0x1000065dc <__ZN4core5slice4sort6stable5drift4sort17haed293010cbdd2caE+0x204>
1000065d4: 52800028    	mov	w8, #0x1                ; =1
1000065d8: 1400000f    	b	0x100006614 <__ZN4core5slice4sort6stable5drift4sort17haed293010cbdd2caE+0x23c>
1000065dc: d341fd28    	lsr	x8, x9, #1
1000065e0: 8b09100a    	add	x10, x0, x9, lsl #4
1000065e4: cb08114a    	sub	x10, x10, x8, lsl #4
1000065e8: 8b08114a    	add	x10, x10, x8, lsl #4
1000065ec: d100414a    	sub	x10, x10, #0x10
1000065f0: aa0003eb    	mov	x11, x0
1000065f4: 3cc10560    	ldr	q0, [x11], #0x10
1000065f8: 3dc00141    	ldr	q1, [x10]
1000065fc: 3d800001    	str	q1, [x0]
100006600: 3c9f0540    	str	q0, [x10], #-0x10
100006604: aa0b03e0    	mov	x0, x11
100006608: f1000508    	subs	x8, x8, #0x1
10000660c: 54ffff41    	b.ne	0x1000065f4 <__ZN4core5slice4sort6stable5drift4sort17haed293010cbdd2caE+0x21c>
100006610: aa0903e8    	mov	x8, x9
100006614: 52800029    	mov	w9, #0x1                ; =1
100006618: aa08052b    	orr	x11, x9, x8, lsl #1
10000661c: d37ffac8    	lsl	x8, x22, #1
100006620: cb5c0509    	sub	x9, x8, x28, lsr #1
100006624: 8b4b0508    	add	x8, x8, x11, lsr #1
100006628: f9400bea    	ldr	x10, [sp, #0x10]
10000662c: 9b0a7d29    	mul	x9, x9, x10
100006630: 9b0a7d08    	mul	x8, x8, x10
100006634: ca090108    	eor	x8, x8, x9
100006638: dac0110a    	clz	x10, x8
10000663c: f1000aff    	cmp	x23, #0x2
100006640: 54000fc3    	b.lo	0x100006838 <__ZN4core5slice4sort6stable5drift4sort17haed293010cbdd2caE+0x460>
100006644: d37ceec8    	lsl	x8, x22, #4
100006648: 8b0802a9    	add	x9, x21, x8
10000664c: f90017e9    	str	x9, [sp, #0x28]
100006650: f9400fe9    	ldr	x9, [sp, #0x18]
100006654: 8b080128    	add	x8, x9, x8
100006658: a903afe8    	stp	x8, x11, [sp, #0x38]
10000665c: f90033ea    	str	x10, [sp, #0x60]
100006660: f9002bf6    	str	x22, [sp, #0x50]
100006664: 1400000c    	b	0x100006694 <__ZN4core5slice4sort6stable5drift4sort17haed293010cbdd2caE+0x2bc>
100006668: aa1503e1    	mov	x1, x21
10000666c: f94027f5    	ldr	x21, [sp, #0x48]
100006670: cb010102    	sub	x2, x8, x1
100006674: aa1603e0    	mov	x0, x22
100006678: 9400befd    	bl	0x10003626c <dyld_stub_binder+0x10003626c>
10000667c: a9460fea    	ldp	x10, x3, [sp, #0x60]
100006680: 52800028    	mov	w8, #0x1                ; =1
100006684: aa13051c    	orr	x28, x8, x19, lsl #1
100006688: f9402bf6    	ldr	x22, [sp, #0x50]
10000668c: f100071f    	cmp	x24, #0x1
100006690: 54000ce9    	b.ls	0x10000682c <__ZN4core5slice4sort6stable5drift4sort17haed293010cbdd2caE+0x454>
100006694: d10006f8    	sub	x24, x23, #0x1
100006698: d1026ba8    	sub	x8, x29, #0x9a
10000669c: 38786908    	ldrb	w8, [x8, x24]
1000066a0: 6b0a011f    	cmp	w8, w10
1000066a4: 54000c63    	b.lo	0x100006830 <__ZN4core5slice4sort6stable5drift4sort17haed293010cbdd2caE+0x458>
1000066a8: aa1803f7    	mov	x23, x24
1000066ac: 9101c3e8    	add	x8, sp, #0x70
1000066b0: f8787919    	ldr	x25, [x8, x24, lsl #3]
1000066b4: d341ff3a    	lsr	x26, x25, #1
1000066b8: d341ff9b    	lsr	x27, x28, #1
1000066bc: 2a1c0328    	orr	w8, w25, w28
1000066c0: 92400108    	and	x8, x8, #0x1
1000066c4: 8b1b0353    	add	x19, x26, x27
1000066c8: eb03027f    	cmp	x19, x3
1000066cc: fa409900    	ccmp	x8, #0x0, #0x0, ls
1000066d0: 54000260    	b.eq	0x10000671c <__ZN4core5slice4sort6stable5drift4sort17haed293010cbdd2caE+0x344>
1000066d4: cb1302c8    	sub	x8, x22, x19
1000066d8: 8b0812b6    	add	x22, x21, x8, lsl #4
1000066dc: 37000299    	tbnz	w25, #0x0, 0x10000672c <__ZN4core5slice4sort6stable5drift4sort17haed293010cbdd2caE+0x354>
1000066e0: b2400348    	orr	x8, x26, #0x1
1000066e4: dac01108    	clz	x8, x8
1000066e8: 531f7908    	lsl	w8, w8, #1
1000066ec: 521f1504    	eor	w4, w8, #0x7e
1000066f0: aa1603e0    	mov	x0, x22
1000066f4: aa1a03e1    	mov	x1, x26
1000066f8: f9402fe2    	ldr	x2, [sp, #0x58]
1000066fc: f94037e3    	ldr	x3, [sp, #0x68]
100006700: d2800005    	mov	x5, #0x0                ; =0
100006704: 940004f0    	bl	0x100007ac4 <__ZN4core5slice4sort6stable9quicksort9quicksort17h241fe5fae56b035cE>
100006708: a9460fea    	ldp	x10, x3, [sp, #0x60]
10000670c: 3600013c    	tbz	w28, #0x0, 0x100006730 <__ZN4core5slice4sort6stable5drift4sort17haed293010cbdd2caE+0x358>
100006710: f1000b9f    	cmp	x28, #0x2
100006714: 54000282    	b.hs	0x100006764 <__ZN4core5slice4sort6stable5drift4sort17haed293010cbdd2caE+0x38c>
100006718: 17ffffda    	b	0x100006680 <__ZN4core5slice4sort6stable5drift4sort17haed293010cbdd2caE+0x2a8>
10000671c: d37ffa7c    	lsl	x28, x19, #1
100006720: f100071f    	cmp	x24, #0x1
100006724: 54fffb88    	b.hi	0x100006694 <__ZN4core5slice4sort6stable5drift4sort17haed293010cbdd2caE+0x2bc>
100006728: 14000041    	b	0x10000682c <__ZN4core5slice4sort6stable5drift4sort17haed293010cbdd2caE+0x454>
10000672c: 3707ff3c    	tbnz	w28, #0x0, 0x100006710 <__ZN4core5slice4sort6stable5drift4sort17haed293010cbdd2caE+0x338>
100006730: 8b1a12c0    	add	x0, x22, x26, lsl #4
100006734: b2400368    	orr	x8, x27, #0x1
100006738: dac01108    	clz	x8, x8
10000673c: 531f7908    	lsl	w8, w8, #1
100006740: 521f1504    	eor	w4, w8, #0x7e
100006744: aa1b03e1    	mov	x1, x27
100006748: f9402fe2    	ldr	x2, [sp, #0x58]
10000674c: f94037e3    	ldr	x3, [sp, #0x68]
100006750: d2800005    	mov	x5, #0x0                ; =0
100006754: 940004dc    	bl	0x100007ac4 <__ZN4core5slice4sort6stable9quicksort9quicksort17h241fe5fae56b035cE>
100006758: a9460fea    	ldp	x10, x3, [sp, #0x60]
10000675c: f1000b9f    	cmp	x28, #0x2
100006760: 54fff903    	b.lo	0x100006680 <__ZN4core5slice4sort6stable5drift4sort17haed293010cbdd2caE+0x2a8>
100006764: f1000b3f    	cmp	x25, #0x2
100006768: 54fff8c3    	b.lo	0x100006680 <__ZN4core5slice4sort6stable5drift4sort17haed293010cbdd2caE+0x2a8>
10000676c: eb1b035f    	cmp	x26, x27
100006770: 9a9b3354    	csel	x20, x26, x27, lo
100006774: eb03029f    	cmp	x20, x3
100006778: 54fff848    	b.hi	0x100006680 <__ZN4core5slice4sort6stable5drift4sort17haed293010cbdd2caE+0x2a8>
10000677c: 8b1a12d9    	add	x25, x22, x26, lsl #4
100006780: eb1a037f    	cmp	x27, x26
100006784: 9a963321    	csel	x1, x25, x22, lo
100006788: d37cee9c    	lsl	x28, x20, #4
10000678c: f9402ff5    	ldr	x21, [sp, #0x58]
100006790: aa1503e0    	mov	x0, x21
100006794: aa1c03e2    	mov	x2, x28
100006798: 9400beb5    	bl	0x10003626c <dyld_stub_binder+0x10003626c>
10000679c: 8b1c02a8    	add	x8, x21, x28
1000067a0: eb1a037f    	cmp	x27, x26
1000067a4: 54000222    	b.hs	0x1000067e8 <__ZN4core5slice4sort6stable5drift4sort17haed293010cbdd2caE+0x410>
1000067a8: f9401fe9    	ldr	x9, [sp, #0x38]
1000067ac: f85f0d0a    	ldr	x10, [x8, #-0x10]!
1000067b0: f85f0f2b    	ldr	x11, [x25, #-0x10]!
1000067b4: eb0b015f    	cmp	x10, x11
1000067b8: 9a88332a    	csel	x10, x25, x8, lo
1000067bc: 1a9f27eb    	cset	w11, lo
1000067c0: 1a9f37ec    	cset	w12, hs
1000067c4: 3dc00140    	ldr	q0, [x10]
1000067c8: 3c9f0520    	str	q0, [x9], #-0x10
1000067cc: 8b2c5339    	add	x25, x25, w12, uxtw #4
1000067d0: 8b2b5108    	add	x8, x8, w11, uxtw #4
1000067d4: eb16033f    	cmp	x25, x22
1000067d8: fa551104    	ccmp	x8, x21, #0x4, ne
1000067dc: 54fffe81    	b.ne	0x1000067ac <__ZN4core5slice4sort6stable5drift4sort17haed293010cbdd2caE+0x3d4>
1000067e0: aa1903f6    	mov	x22, x25
1000067e4: 17ffffa1    	b	0x100006668 <__ZN4core5slice4sort6stable5drift4sort17haed293010cbdd2caE+0x290>
1000067e8: b4fff414    	cbz	x20, 0x100006668 <__ZN4core5slice4sort6stable5drift4sort17haed293010cbdd2caE+0x290>
1000067ec: aa1503e1    	mov	x1, x21
1000067f0: f94017ec    	ldr	x12, [sp, #0x28]
1000067f4: f9400329    	ldr	x9, [x25]
1000067f8: f940002a    	ldr	x10, [x1]
1000067fc: eb0a013f    	cmp	x9, x10
100006800: 9a813329    	csel	x9, x25, x1, lo
100006804: 1a9f27ea    	cset	w10, lo
100006808: 1a9f37eb    	cset	w11, hs
10000680c: 3dc00120    	ldr	q0, [x9]
100006810: 3c8106c0    	str	q0, [x22], #0x10
100006814: 8b2b5021    	add	x1, x1, w11, uxtw #4
100006818: 8b2a5339    	add	x25, x25, w10, uxtw #4
10000681c: eb08003f    	cmp	x1, x8
100006820: fa4c1324    	ccmp	x25, x12, #0x4, ne
100006824: 54fffe81    	b.ne	0x1000067f4 <__ZN4core5slice4sort6stable5drift4sort17haed293010cbdd2caE+0x41c>
100006828: 17ffff91    	b	0x10000666c <__ZN4core5slice4sort6stable5drift4sort17haed293010cbdd2caE+0x294>
10000682c: 52800037    	mov	w23, #0x1               ; =1
100006830: f94013f4    	ldr	x20, [sp, #0x20]
100006834: f94023eb    	ldr	x11, [sp, #0x40]
100006838: 9101c3e8    	add	x8, sp, #0x70
10000683c: f837791c    	str	x28, [x8, x23, lsl #3]
100006840: d1026ba8    	sub	x8, x29, #0x9a
100006844: 3837690a    	strb	w10, [x8, x23]
100006848: eb16029f    	cmp	x20, x22
10000684c: 54ffe168    	b.hi	0x100006478 <__ZN4core5slice4sort6stable5drift4sort17haed293010cbdd2caE+0xa0>
100006850: 3700023c    	tbnz	w28, #0x0, 0x100006894 <__ZN4core5slice4sort6stable5drift4sort17haed293010cbdd2caE+0x4bc>
100006854: b2400288    	orr	x8, x20, #0x1
100006858: dac01108    	clz	x8, x8
10000685c: 531f7908    	lsl	w8, w8, #1
100006860: 521f1504    	eor	w4, w8, #0x7e
100006864: aa1503e0    	mov	x0, x21
100006868: aa1403e1    	mov	x1, x20
10000686c: f9402fe2    	ldr	x2, [sp, #0x58]
100006870: d2800005    	mov	x5, #0x0                ; =0
100006874: 910b43ff    	add	sp, sp, #0x2d0
100006878: a9457bfd    	ldp	x29, x30, [sp, #0x50]
10000687c: a9444ff4    	ldp	x20, x19, [sp, #0x40]
100006880: a94357f6    	ldp	x22, x21, [sp, #0x30]
100006884: a9425ff8    	ldp	x24, x23, [sp, #0x20]
100006888: a94167fa    	ldp	x26, x25, [sp, #0x10]
10000688c: a8c66ffc    	ldp	x28, x27, [sp], #0x60
100006890: 1400048d    	b	0x100007ac4 <__ZN4core5slice4sort6stable9quicksort9quicksort17h241fe5fae56b035cE>
100006894: 910b43ff    	add	sp, sp, #0x2d0
100006898: a9457bfd    	ldp	x29, x30, [sp, #0x50]
10000689c: a9444ff4    	ldp	x20, x19, [sp, #0x40]
1000068a0: a94357f6    	ldp	x22, x21, [sp, #0x30]
1000068a4: a9425ff8    	ldp	x24, x23, [sp, #0x20]
1000068a8: a94167fa    	ldp	x26, x25, [sp, #0x10]
1000068ac: a8c66ffc    	ldp	x28, x27, [sp], #0x60
1000068b0: d65f03c0    	ret

00000001000068b4 <__ZN4core5slice4sort6stable5drift4sort17hc7f9f68490e940f2E>:
1000068b4: a9ba6ffc    	stp	x28, x27, [sp, #-0x60]!
1000068b8: a90167fa    	stp	x26, x25, [sp, #0x10]
1000068bc: a9025ff8    	stp	x24, x23, [sp, #0x20]
1000068c0: a90357f6    	stp	x22, x21, [sp, #0x30]
1000068c4: a9044ff4    	stp	x20, x19, [sp, #0x40]
1000068c8: a9057bfd    	stp	x29, x30, [sp, #0x50]
1000068cc: 910143fd    	add	x29, sp, #0x50
1000068d0: d10b83ff    	sub	sp, sp, #0x2e0
1000068d4: b90017e4    	str	w4, [sp, #0x14]
1000068d8: f90033e2    	str	x2, [sp, #0x60]
1000068dc: aa0103f3    	mov	x19, x1
1000068e0: f9002be0    	str	x0, [sp, #0x50]
1000068e4: 92f80008    	mov	x8, #0x3fffffffffffffff ; =4611686018427387903
1000068e8: 8b080034    	add	x20, x1, x8
1000068ec: f140043f    	cmp	x1, #0x1, lsl #12       ; =0x1000
1000068f0: f9003fe3    	str	x3, [sp, #0x78]
1000068f4: 540000e8    	b.hi	0x100006910 <__ZN4core5slice4sort6stable5drift4sort17hc7f9f68490e940f2E+0x5c>
1000068f8: cb530668    	sub	x8, x19, x19, lsr #1
1000068fc: 52800809    	mov	w9, #0x40               ; =64
100006900: f101011f    	cmp	x8, #0x40
100006904: 9a893108    	csel	x8, x8, x9, lo
100006908: f9001fe8    	str	x8, [sp, #0x38]
10000690c: 14000005    	b	0x100006920 <__ZN4core5slice4sort6stable5drift4sort17hc7f9f68490e940f2E+0x6c>
100006910: aa1303e0    	mov	x0, x19
100006914: 9400aec4    	bl	0x100032424 <__ZN4core5slice4sort6stable5drift11sqrt_approx17hf95746fd6ef160bfE>
100006918: f9403fe3    	ldr	x3, [sp, #0x78]
10000691c: f9001fe0    	str	x0, [sp, #0x38]
100006920: d2800017    	mov	x23, #0x0               ; =0
100006924: f9402be8    	ldr	x8, [sp, #0x50]
100006928: 9101810a    	add	x10, x8, #0x60
10000692c: 91008109    	add	x9, x8, #0x20
100006930: a9002be9    	stp	x9, x10, [sp]
100006934: d100a109    	sub	x9, x8, #0x28
100006938: 52800515    	mov	w21, #0x28              ; =40
10000693c: 5280003c    	mov	w28, #0x1               ; =1
100006940: 9ad30a88    	udiv	x8, x20, x19
100006944: a901a7e8    	stp	x8, x9, [sp, #0x18]
100006948: d2800014    	mov	x20, #0x0               ; =0
10000694c: f90017f3    	str	x19, [sp, #0x28]
100006950: eb170268    	subs	x8, x19, x23
100006954: 540000e9    	b.ls	0x100006970 <__ZN4core5slice4sort6stable5drift4sort17hc7f9f68490e940f2E+0xbc>
100006958: 1400000b    	b	0x100006984 <__ZN4core5slice4sort6stable5drift4sort17hc7f9f68490e940f2E+0xd0>
10000695c: 91000694    	add	x20, x20, #0x1
100006960: 8b4b06f7    	add	x23, x23, x11, lsr #1
100006964: aa0b03fc    	mov	x28, x11
100006968: eb170268    	subs	x8, x19, x23
10000696c: 540000c8    	b.hi	0x100006984 <__ZN4core5slice4sort6stable5drift4sort17hc7f9f68490e940f2E+0xd0>
100006970: 5280000a    	mov	w10, #0x0               ; =0
100006974: 5280002b    	mov	w11, #0x1               ; =1
100006978: f1000a9f    	cmp	x20, #0x2
10000697c: 54000e22    	b.hs	0x100006b40 <__ZN4core5slice4sort6stable5drift4sort17hc7f9f68490e940f2E+0x28c>
100006980: 140000fd    	b	0x100006d74 <__ZN4core5slice4sort6stable5drift4sort17hc7f9f68490e940f2E+0x4c0>
100006984: f9402be9    	ldr	x9, [sp, #0x50]
100006988: 9b1526e0    	madd	x0, x23, x21, x9
10000698c: f9401fe9    	ldr	x9, [sp, #0x38]
100006990: eb09011f    	cmp	x8, x9
100006994: 54000202    	b.hs	0x1000069d4 <__ZN4core5slice4sort6stable5drift4sort17hc7f9f68490e940f2E+0x120>
100006998: b94017e9    	ldr	w9, [sp, #0x14]
10000699c: 360003a9    	tbz	w9, #0x0, 0x100006a10 <__ZN4core5slice4sort6stable5drift4sort17hc7f9f68490e940f2E+0x15c>
1000069a0: f100811f    	cmp	x8, #0x20
1000069a4: 52800409    	mov	w9, #0x20               ; =32
1000069a8: 9a893119    	csel	x25, x8, x9, lo
1000069ac: aa1903e1    	mov	x1, x25
1000069b0: f94033e2    	ldr	x2, [sp, #0x60]
1000069b4: f9403fe3    	ldr	x3, [sp, #0x78]
1000069b8: 52800004    	mov	w4, #0x0                ; =0
1000069bc: d2800005    	mov	x5, #0x0                ; =0
1000069c0: 94000bc9    	bl	0x1000098e4 <__ZN4core5slice4sort6stable9quicksort9quicksort17hd41f6b1c8dfed784E>
1000069c4: f9403fe3    	ldr	x3, [sp, #0x78]
1000069c8: 52800028    	mov	w8, #0x1                ; =1
1000069cc: aa19050b    	orr	x11, x8, x25, lsl #1
1000069d0: 14000052    	b	0x100006b18 <__ZN4core5slice4sort6stable5drift4sort17hc7f9f68490e940f2E+0x264>
1000069d4: f100091f    	cmp	x8, #0x2
1000069d8: 540009c3    	b.lo	0x100006b10 <__ZN4core5slice4sort6stable5drift4sort17hc7f9f68490e940f2E+0x25c>
1000069dc: f9401c0a    	ldr	x10, [x0, #0x38]
1000069e0: f940080b    	ldr	x11, [x0, #0x10]
1000069e4: eb0b015f    	cmp	x10, x11
1000069e8: 540001e2    	b.hs	0x100006a24 <__ZN4core5slice4sort6stable5drift4sort17hc7f9f68490e940f2E+0x170>
1000069ec: f100091f    	cmp	x8, #0x2
1000069f0: 54000281    	b.ne	0x100006a40 <__ZN4core5slice4sort6stable5drift4sort17hc7f9f68490e940f2E+0x18c>
1000069f4: f9401fe9    	ldr	x9, [sp, #0x38]
1000069f8: f100093f    	cmp	x9, #0x2
1000069fc: 54fffce8    	b.hi	0x100006998 <__ZN4core5slice4sort6stable5drift4sort17hc7f9f68490e940f2E+0xe4>
100006a00: 9100a00a    	add	x10, x0, #0x28
100006a04: 52800028    	mov	w8, #0x1                ; =1
100006a08: 52800049    	mov	w9, #0x2                ; =2
100006a0c: 14000032    	b	0x100006ad4 <__ZN4core5slice4sort6stable5drift4sort17hc7f9f68490e940f2E+0x220>
100006a10: f9401fe9    	ldr	x9, [sp, #0x38]
100006a14: eb08013f    	cmp	x9, x8
100006a18: 9a883128    	csel	x8, x9, x8, lo
100006a1c: d37ff90b    	lsl	x11, x8, #1
100006a20: 1400003e    	b	0x100006b18 <__ZN4core5slice4sort6stable5drift4sort17hc7f9f68490e940f2E+0x264>
100006a24: f100091f    	cmp	x8, #0x2
100006a28: 54000241    	b.ne	0x100006a70 <__ZN4core5slice4sort6stable5drift4sort17hc7f9f68490e940f2E+0x1bc>
100006a2c: f9401fe9    	ldr	x9, [sp, #0x38]
100006a30: f100093f    	cmp	x9, #0x2
100006a34: 54fffb28    	b.hi	0x100006998 <__ZN4core5slice4sort6stable5drift4sort17hc7f9f68490e940f2E+0xe4>
100006a38: 52800048    	mov	w8, #0x2                ; =2
100006a3c: 14000035    	b	0x100006b10 <__ZN4core5slice4sort6stable5drift4sort17hc7f9f68490e940f2E+0x25c>
100006a40: f94007e9    	ldr	x9, [sp, #0x8]
100006a44: 9b1526ec    	madd	x12, x23, x21, x9
100006a48: aa0a03ed    	mov	x13, x10
100006a4c: 52800049    	mov	w9, #0x2                ; =2
100006a50: f842858e    	ldr	x14, [x12], #0x28
100006a54: eb0d01df    	cmp	x14, x13
100006a58: 54000242    	b.hs	0x100006aa0 <__ZN4core5slice4sort6stable5drift4sort17hc7f9f68490e940f2E+0x1ec>
100006a5c: 91000529    	add	x9, x9, #0x1
100006a60: aa0e03ed    	mov	x13, x14
100006a64: eb09011f    	cmp	x8, x9
100006a68: 54ffff41    	b.ne	0x100006a50 <__ZN4core5slice4sort6stable5drift4sort17hc7f9f68490e940f2E+0x19c>
100006a6c: 1400000c    	b	0x100006a9c <__ZN4core5slice4sort6stable5drift4sort17hc7f9f68490e940f2E+0x1e8>
100006a70: f94007e9    	ldr	x9, [sp, #0x8]
100006a74: 9b1526ec    	madd	x12, x23, x21, x9
100006a78: aa0a03ed    	mov	x13, x10
100006a7c: 52800049    	mov	w9, #0x2                ; =2
100006a80: f842858e    	ldr	x14, [x12], #0x28
100006a84: eb0d01df    	cmp	x14, x13
100006a88: 540000c3    	b.lo	0x100006aa0 <__ZN4core5slice4sort6stable5drift4sort17hc7f9f68490e940f2E+0x1ec>
100006a8c: 91000529    	add	x9, x9, #0x1
100006a90: aa0e03ed    	mov	x13, x14
100006a94: eb09011f    	cmp	x8, x9
100006a98: 54ffff41    	b.ne	0x100006a80 <__ZN4core5slice4sort6stable5drift4sort17hc7f9f68490e940f2E+0x1cc>
100006a9c: aa0803e9    	mov	x9, x8
100006aa0: f9401fec    	ldr	x12, [sp, #0x38]
100006aa4: eb0c013f    	cmp	x9, x12
100006aa8: 54fff783    	b.lo	0x100006998 <__ZN4core5slice4sort6stable5drift4sort17hc7f9f68490e940f2E+0xe4>
100006aac: eb0b015f    	cmp	x10, x11
100006ab0: 540002e2    	b.hs	0x100006b0c <__ZN4core5slice4sort6stable5drift4sort17hc7f9f68490e940f2E+0x258>
100006ab4: f100093f    	cmp	x9, #0x2
100006ab8: 54000062    	b.hs	0x100006ac4 <__ZN4core5slice4sort6stable5drift4sort17hc7f9f68490e940f2E+0x210>
100006abc: 52800028    	mov	w8, #0x1                ; =1
100006ac0: 14000014    	b	0x100006b10 <__ZN4core5slice4sort6stable5drift4sort17hc7f9f68490e940f2E+0x25c>
100006ac4: d341fd28    	lsr	x8, x9, #1
100006ac8: 9b15012a    	madd	x10, x9, x21, x0
100006acc: 9b15fd0b    	mneg	x11, x8, x21
100006ad0: 8b0b014a    	add	x10, x10, x11
100006ad4: 9b15290a    	madd	x10, x8, x21, x10
100006ad8: d100214a    	sub	x10, x10, #0x8
100006adc: f94003eb    	ldr	x11, [sp]
100006ae0: 9b152eeb    	madd	x11, x23, x21, x11
100006ae4: ad7f0540    	ldp	q0, q1, [x10, #-0x20]
100006ae8: ad7f0d62    	ldp	q2, q3, [x11, #-0x20]
100006aec: ad3f0d42    	stp	q2, q3, [x10, #-0x20]
100006af0: f940016c    	ldr	x12, [x11]
100006af4: f940014d    	ldr	x13, [x10]
100006af8: f81d854c    	str	x12, [x10], #-0x28
100006afc: ad3f0560    	stp	q0, q1, [x11, #-0x20]
100006b00: f802856d    	str	x13, [x11], #0x28
100006b04: d1000508    	sub	x8, x8, #0x1
100006b08: b5fffee8    	cbnz	x8, 0x100006ae4 <__ZN4core5slice4sort6stable5drift4sort17hc7f9f68490e940f2E+0x230>
100006b0c: aa0903e8    	mov	x8, x9
100006b10: 52800029    	mov	w9, #0x1                ; =1
100006b14: aa08052b    	orr	x11, x9, x8, lsl #1
100006b18: d37ffae8    	lsl	x8, x23, #1
100006b1c: cb5c0509    	sub	x9, x8, x28, lsr #1
100006b20: 8b4b0508    	add	x8, x8, x11, lsr #1
100006b24: f9400fea    	ldr	x10, [sp, #0x18]
100006b28: 9b0a7d29    	mul	x9, x9, x10
100006b2c: 9b0a7d08    	mul	x8, x8, x10
100006b30: ca090108    	eor	x8, x8, x9
100006b34: dac0110a    	clz	x10, x8
100006b38: f1000a9f    	cmp	x20, #0x2
100006b3c: 540011c3    	b.lo	0x100006d74 <__ZN4core5slice4sort6stable5drift4sort17hc7f9f68490e940f2E+0x4c0>
100006b40: 8b170ae8    	add	x8, x23, x23, lsl #2
100006b44: d37df108    	lsl	x8, x8, #3
100006b48: f9402bf3    	ldr	x19, [sp, #0x50]
100006b4c: 8b080269    	add	x9, x19, x8
100006b50: f9001be9    	str	x9, [sp, #0x30]
100006b54: f94013e9    	ldr	x9, [sp, #0x20]
100006b58: 8b080128    	add	x8, x9, x8
100006b5c: a9042fe8    	stp	x8, x11, [sp, #0x40]
100006b60: f90037ea    	str	x10, [sp, #0x68]
100006b64: f9002ff7    	str	x23, [sp, #0x58]
100006b68: 1400000e    	b	0x100006ba0 <__ZN4core5slice4sort6stable5drift4sort17hc7f9f68490e940f2E+0x2ec>
100006b6c: aa1303e1    	mov	x1, x19
100006b70: f9402bf3    	ldr	x19, [sp, #0x50]
100006b74: cb010102    	sub	x2, x8, x1
100006b78: aa1403e0    	mov	x0, x20
100006b7c: 9400bdbc    	bl	0x10003626c <dyld_stub_binder+0x10003626c>
100006b80: f9403fe3    	ldr	x3, [sp, #0x78]
100006b84: f94037ea    	ldr	x10, [sp, #0x68]
100006b88: 52800028    	mov	w8, #0x1                ; =1
100006b8c: aa16051c    	orr	x28, x8, x22, lsl #1
100006b90: f9402ff7    	ldr	x23, [sp, #0x58]
100006b94: f9403bf4    	ldr	x20, [sp, #0x70]
100006b98: f100071f    	cmp	x24, #0x1
100006b9c: 54000e69    	b.ls	0x100006d68 <__ZN4core5slice4sort6stable5drift4sort17hc7f9f68490e940f2E+0x4b4>
100006ba0: d1000698    	sub	x24, x20, #0x1
100006ba4: d1026ba8    	sub	x8, x29, #0x9a
100006ba8: 38786908    	ldrb	w8, [x8, x24]
100006bac: 6b0a011f    	cmp	w8, w10
100006bb0: 54000de3    	b.lo	0x100006d6c <__ZN4core5slice4sort6stable5drift4sort17hc7f9f68490e940f2E+0x4b8>
100006bb4: aa1803f4    	mov	x20, x24
100006bb8: 910203e8    	add	x8, sp, #0x80
100006bbc: f8787919    	ldr	x25, [x8, x24, lsl #3]
100006bc0: d341ff3a    	lsr	x26, x25, #1
100006bc4: d341ff9b    	lsr	x27, x28, #1
100006bc8: 2a1c0328    	orr	w8, w25, w28
100006bcc: 92400108    	and	x8, x8, #0x1
100006bd0: 8b1b0356    	add	x22, x26, x27
100006bd4: eb0302df    	cmp	x22, x3
100006bd8: fa409900    	ccmp	x8, #0x0, #0x0, ls
100006bdc: 540002a0    	b.eq	0x100006c30 <__ZN4core5slice4sort6stable5drift4sort17hc7f9f68490e940f2E+0x37c>
100006be0: f9003bf4    	str	x20, [sp, #0x70]
100006be4: cb1602e8    	sub	x8, x23, x22
100006be8: 9b154d14    	madd	x20, x8, x21, x19
100006bec: 370002b9    	tbnz	w25, #0x0, 0x100006c40 <__ZN4core5slice4sort6stable5drift4sort17hc7f9f68490e940f2E+0x38c>
100006bf0: b2400348    	orr	x8, x26, #0x1
100006bf4: dac01108    	clz	x8, x8
100006bf8: 531f7908    	lsl	w8, w8, #1
100006bfc: 521f1504    	eor	w4, w8, #0x7e
100006c00: aa1403e0    	mov	x0, x20
100006c04: aa1a03e1    	mov	x1, x26
100006c08: f94033e2    	ldr	x2, [sp, #0x60]
100006c0c: f9403fe3    	ldr	x3, [sp, #0x78]
100006c10: d2800005    	mov	x5, #0x0                ; =0
100006c14: 94000b34    	bl	0x1000098e4 <__ZN4core5slice4sort6stable9quicksort9quicksort17hd41f6b1c8dfed784E>
100006c18: f94037ea    	ldr	x10, [sp, #0x68]
100006c1c: f9403fe3    	ldr	x3, [sp, #0x78]
100006c20: 3600013c    	tbz	w28, #0x0, 0x100006c44 <__ZN4core5slice4sort6stable5drift4sort17hc7f9f68490e940f2E+0x390>
100006c24: f1000b9f    	cmp	x28, #0x2
100006c28: 540002a2    	b.hs	0x100006c7c <__ZN4core5slice4sort6stable5drift4sort17hc7f9f68490e940f2E+0x3c8>
100006c2c: 17ffffd7    	b	0x100006b88 <__ZN4core5slice4sort6stable5drift4sort17hc7f9f68490e940f2E+0x2d4>
100006c30: d37ffadc    	lsl	x28, x22, #1
100006c34: f100071f    	cmp	x24, #0x1
100006c38: 54fffb48    	b.hi	0x100006ba0 <__ZN4core5slice4sort6stable5drift4sort17hc7f9f68490e940f2E+0x2ec>
100006c3c: 1400004b    	b	0x100006d68 <__ZN4core5slice4sort6stable5drift4sort17hc7f9f68490e940f2E+0x4b4>
100006c40: 3707ff3c    	tbnz	w28, #0x0, 0x100006c24 <__ZN4core5slice4sort6stable5drift4sort17hc7f9f68490e940f2E+0x370>
100006c44: 9b155340    	madd	x0, x26, x21, x20
100006c48: b2400368    	orr	x8, x27, #0x1
100006c4c: dac01108    	clz	x8, x8
100006c50: 531f7908    	lsl	w8, w8, #1
100006c54: 521f1504    	eor	w4, w8, #0x7e
100006c58: aa1b03e1    	mov	x1, x27
100006c5c: f94033e2    	ldr	x2, [sp, #0x60]
100006c60: f9403fe3    	ldr	x3, [sp, #0x78]
100006c64: d2800005    	mov	x5, #0x0                ; =0
100006c68: 94000b1f    	bl	0x1000098e4 <__ZN4core5slice4sort6stable9quicksort9quicksort17hd41f6b1c8dfed784E>
100006c6c: f94037ea    	ldr	x10, [sp, #0x68]
100006c70: f9403fe3    	ldr	x3, [sp, #0x78]
100006c74: f1000b9f    	cmp	x28, #0x2
100006c78: 54fff883    	b.lo	0x100006b88 <__ZN4core5slice4sort6stable5drift4sort17hc7f9f68490e940f2E+0x2d4>
100006c7c: f1000b3f    	cmp	x25, #0x2
100006c80: 54fff843    	b.lo	0x100006b88 <__ZN4core5slice4sort6stable5drift4sort17hc7f9f68490e940f2E+0x2d4>
100006c84: eb1b035f    	cmp	x26, x27
100006c88: 9a9b3357    	csel	x23, x26, x27, lo
100006c8c: eb0302ff    	cmp	x23, x3
100006c90: 54fff7c8    	b.hi	0x100006b88 <__ZN4core5slice4sort6stable5drift4sort17hc7f9f68490e940f2E+0x2d4>
100006c94: 9b155359    	madd	x25, x26, x21, x20
100006c98: eb1a037f    	cmp	x27, x26
100006c9c: 9a943321    	csel	x1, x25, x20, lo
100006ca0: 8b170ae8    	add	x8, x23, x23, lsl #2
100006ca4: d37df11c    	lsl	x28, x8, #3
100006ca8: f94033f3    	ldr	x19, [sp, #0x60]
100006cac: aa1303e0    	mov	x0, x19
100006cb0: aa1c03e2    	mov	x2, x28
100006cb4: 9400bd6e    	bl	0x10003626c <dyld_stub_binder+0x10003626c>
100006cb8: 8b1c0268    	add	x8, x19, x28
100006cbc: eb1a037f    	cmp	x27, x26
100006cc0: 540002c2    	b.hs	0x100006d18 <__ZN4core5slice4sort6stable5drift4sort17hc7f9f68490e940f2E+0x464>
100006cc4: f94023e9    	ldr	x9, [sp, #0x40]
100006cc8: d100a32a    	sub	x10, x25, #0x28
100006ccc: d100a10b    	sub	x11, x8, #0x28
100006cd0: f85e8108    	ldur	x8, [x8, #-0x18]
100006cd4: f85e832c    	ldur	x12, [x25, #-0x18]
100006cd8: eb0c011f    	cmp	x8, x12
100006cdc: 9a8b3148    	csel	x8, x10, x11, lo
100006ce0: 1a9f27ec    	cset	w12, lo
100006ce4: 1a9f37ed    	cset	w13, hs
100006ce8: f940110e    	ldr	x14, [x8, #0x20]
100006cec: ad400101    	ldp	q1, q0, [x8]
100006cf0: ad000121    	stp	q1, q0, [x9]
100006cf4: f900112e    	str	x14, [x9, #0x20]
100006cf8: 9bb529b9    	umaddl	x25, w13, w21, x10
100006cfc: 9bb52d88    	umaddl	x8, w12, w21, x11
100006d00: d100a129    	sub	x9, x9, #0x28
100006d04: eb14033f    	cmp	x25, x20
100006d08: fa531104    	ccmp	x8, x19, #0x4, ne
100006d0c: 54fffde1    	b.ne	0x100006cc8 <__ZN4core5slice4sort6stable5drift4sort17hc7f9f68490e940f2E+0x414>
100006d10: aa1903f4    	mov	x20, x25
100006d14: 17ffff96    	b	0x100006b6c <__ZN4core5slice4sort6stable5drift4sort17hc7f9f68490e940f2E+0x2b8>
100006d18: b4fff2b7    	cbz	x23, 0x100006b6c <__ZN4core5slice4sort6stable5drift4sort17hc7f9f68490e940f2E+0x2b8>
100006d1c: aa1303e1    	mov	x1, x19
100006d20: f9401bed    	ldr	x13, [sp, #0x30]
100006d24: f9400b29    	ldr	x9, [x25, #0x10]
100006d28: f940082a    	ldr	x10, [x1, #0x10]
100006d2c: eb0a013f    	cmp	x9, x10
100006d30: 9a813329    	csel	x9, x25, x1, lo
100006d34: 1a9f27ea    	cset	w10, lo
100006d38: 1a9f37eb    	cset	w11, hs
100006d3c: f940112c    	ldr	x12, [x9, #0x20]
100006d40: ad400121    	ldp	q1, q0, [x9]
100006d44: ad000281    	stp	q1, q0, [x20]
100006d48: f900128c    	str	x12, [x20, #0x20]
100006d4c: 9bb50561    	umaddl	x1, w11, w21, x1
100006d50: 9bb56559    	umaddl	x25, w10, w21, x25
100006d54: 9100a294    	add	x20, x20, #0x28
100006d58: eb08003f    	cmp	x1, x8
100006d5c: fa4d1324    	ccmp	x25, x13, #0x4, ne
100006d60: 54fffe21    	b.ne	0x100006d24 <__ZN4core5slice4sort6stable5drift4sort17hc7f9f68490e940f2E+0x470>
100006d64: 17ffff83    	b	0x100006b70 <__ZN4core5slice4sort6stable5drift4sort17hc7f9f68490e940f2E+0x2bc>
100006d68: 52800034    	mov	w20, #0x1               ; =1
100006d6c: f94017f3    	ldr	x19, [sp, #0x28]
100006d70: f94027eb    	ldr	x11, [sp, #0x48]
100006d74: 910203e8    	add	x8, sp, #0x80
100006d78: f834791c    	str	x28, [x8, x20, lsl #3]
100006d7c: d1026ba8    	sub	x8, x29, #0x9a
100006d80: 3834690a    	strb	w10, [x8, x20]
100006d84: eb17027f    	cmp	x19, x23
100006d88: 54ffdea8    	b.hi	0x10000695c <__ZN4core5slice4sort6stable5drift4sort17hc7f9f68490e940f2E+0xa8>
100006d8c: 3700023c    	tbnz	w28, #0x0, 0x100006dd0 <__ZN4core5slice4sort6stable5drift4sort17hc7f9f68490e940f2E+0x51c>
100006d90: b2400268    	orr	x8, x19, #0x1
100006d94: dac01108    	clz	x8, x8
100006d98: 531f7908    	lsl	w8, w8, #1
100006d9c: 521f1504    	eor	w4, w8, #0x7e
100006da0: f9402be0    	ldr	x0, [sp, #0x50]
100006da4: aa1303e1    	mov	x1, x19
100006da8: f94033e2    	ldr	x2, [sp, #0x60]
100006dac: d2800005    	mov	x5, #0x0                ; =0
100006db0: 910b83ff    	add	sp, sp, #0x2e0
100006db4: a9457bfd    	ldp	x29, x30, [sp, #0x50]
100006db8: a9444ff4    	ldp	x20, x19, [sp, #0x40]
100006dbc: a94357f6    	ldp	x22, x21, [sp, #0x30]
100006dc0: a9425ff8    	ldp	x24, x23, [sp, #0x20]
100006dc4: a94167fa    	ldp	x26, x25, [sp, #0x10]
100006dc8: a8c66ffc    	ldp	x28, x27, [sp], #0x60
100006dcc: 14000ac6    	b	0x1000098e4 <__ZN4core5slice4sort6stable9quicksort9quicksort17hd41f6b1c8dfed784E>
100006dd0: 910b83ff    	add	sp, sp, #0x2e0
100006dd4: a9457bfd    	ldp	x29, x30, [sp, #0x50]
100006dd8: a9444ff4    	ldp	x20, x19, [sp, #0x40]
100006ddc: a94357f6    	ldp	x22, x21, [sp, #0x30]
100006de0: a9425ff8    	ldp	x24, x23, [sp, #0x20]
100006de4: a94167fa    	ldp	x26, x25, [sp, #0x10]
100006de8: a8c66ffc    	ldp	x28, x27, [sp], #0x60
100006dec: d65f03c0    	ret

0000000100006df0 <__ZN4core5slice4sort6stable5drift4sort17hde2de3c55f28f1ccE>:
100006df0: a9ba6ffc    	stp	x28, x27, [sp, #-0x60]!
100006df4: a90167fa    	stp	x26, x25, [sp, #0x10]
100006df8: a9025ff8    	stp	x24, x23, [sp, #0x20]
100006dfc: a90357f6    	stp	x22, x21, [sp, #0x30]
100006e00: a9044ff4    	stp	x20, x19, [sp, #0x40]
100006e04: a9057bfd    	stp	x29, x30, [sp, #0x50]
100006e08: 910143fd    	add	x29, sp, #0x50
100006e0c: d10b83ff    	sub	sp, sp, #0x2e0
100006e10: b90017e4    	str	w4, [sp, #0x14]
100006e14: f90033e2    	str	x2, [sp, #0x60]
100006e18: aa0103f3    	mov	x19, x1
100006e1c: f9002be0    	str	x0, [sp, #0x50]
100006e20: 92f80008    	mov	x8, #0x3fffffffffffffff ; =4611686018427387903
100006e24: 8b080034    	add	x20, x1, x8
100006e28: f140043f    	cmp	x1, #0x1, lsl #12       ; =0x1000
100006e2c: f9003fe3    	str	x3, [sp, #0x78]
100006e30: 540000e8    	b.hi	0x100006e4c <__ZN4core5slice4sort6stable5drift4sort17hde2de3c55f28f1ccE+0x5c>
100006e34: cb530668    	sub	x8, x19, x19, lsr #1
100006e38: 52800809    	mov	w9, #0x40               ; =64
100006e3c: f101011f    	cmp	x8, #0x40
100006e40: 9a893108    	csel	x8, x8, x9, lo
100006e44: f9001fe8    	str	x8, [sp, #0x38]
100006e48: 14000005    	b	0x100006e5c <__ZN4core5slice4sort6stable5drift4sort17hde2de3c55f28f1ccE+0x6c>
100006e4c: aa1303e0    	mov	x0, x19
100006e50: 9400ad75    	bl	0x100032424 <__ZN4core5slice4sort6stable5drift11sqrt_approx17hf95746fd6ef160bfE>
100006e54: f9403fe3    	ldr	x3, [sp, #0x78]
100006e58: f9001fe0    	str	x0, [sp, #0x38]
100006e5c: d2800016    	mov	x22, #0x0               ; =0
100006e60: d2800017    	mov	x23, #0x0               ; =0
100006e64: f9402be8    	ldr	x8, [sp, #0x50]
100006e68: 9100c10a    	add	x10, x8, #0x30
100006e6c: 91004109    	add	x9, x8, #0x10
100006e70: a9002be9    	stp	x9, x10, [sp]
100006e74: d1006109    	sub	x9, x8, #0x18
100006e78: 52800315    	mov	w21, #0x18              ; =24
100006e7c: 5280003c    	mov	w28, #0x1               ; =1
100006e80: 9ad30a88    	udiv	x8, x20, x19
100006e84: a901a7e8    	stp	x8, x9, [sp, #0x18]
100006e88: f90017f3    	str	x19, [sp, #0x28]
100006e8c: eb160269    	subs	x9, x19, x22
100006e90: 540000e9    	b.ls	0x100006eac <__ZN4core5slice4sort6stable5drift4sort17hde2de3c55f28f1ccE+0xbc>
100006e94: 1400000b    	b	0x100006ec0 <__ZN4core5slice4sort6stable5drift4sort17hde2de3c55f28f1ccE+0xd0>
100006e98: 910006f7    	add	x23, x23, #0x1
100006e9c: 8b4b06d6    	add	x22, x22, x11, lsr #1
100006ea0: aa0b03fc    	mov	x28, x11
100006ea4: eb160269    	subs	x9, x19, x22
100006ea8: 540000c8    	b.hi	0x100006ec0 <__ZN4core5slice4sort6stable5drift4sort17hde2de3c55f28f1ccE+0xd0>
100006eac: 5280000a    	mov	w10, #0x0               ; =0
100006eb0: 5280002b    	mov	w11, #0x1               ; =1
100006eb4: f1000aff    	cmp	x23, #0x2
100006eb8: 54001522    	b.hs	0x10000715c <__ZN4core5slice4sort6stable5drift4sort17hde2de3c55f28f1ccE+0x36c>
100006ebc: 14000134    	b	0x10000738c <__ZN4core5slice4sort6stable5drift4sort17hde2de3c55f28f1ccE+0x59c>
100006ec0: f9402be8    	ldr	x8, [sp, #0x50]
100006ec4: 9b1522c0    	madd	x0, x22, x21, x8
100006ec8: f9401fe8    	ldr	x8, [sp, #0x38]
100006ecc: eb08013f    	cmp	x9, x8
100006ed0: 54000202    	b.hs	0x100006f10 <__ZN4core5slice4sort6stable5drift4sort17hde2de3c55f28f1ccE+0x120>
100006ed4: b94017e8    	ldr	w8, [sp, #0x14]
100006ed8: 36000688    	tbz	w8, #0x0, 0x100006fa8 <__ZN4core5slice4sort6stable5drift4sort17hde2de3c55f28f1ccE+0x1b8>
100006edc: f100813f    	cmp	x9, #0x20
100006ee0: 52800408    	mov	w8, #0x20               ; =32
100006ee4: 9a883139    	csel	x25, x9, x8, lo
100006ee8: aa1903e1    	mov	x1, x25
100006eec: f94033e2    	ldr	x2, [sp, #0x60]
100006ef0: f9403fe3    	ldr	x3, [sp, #0x78]
100006ef4: 52800004    	mov	w4, #0x0                ; =0
100006ef8: d2800005    	mov	x5, #0x0                ; =0
100006efc: 940004f9    	bl	0x1000082e0 <__ZN4core5slice4sort6stable9quicksort9quicksort17h2755ce9b6a022da6E>
100006f00: f9403fe3    	ldr	x3, [sp, #0x78]
100006f04: 52800028    	mov	w8, #0x1                ; =1
100006f08: aa19050b    	orr	x11, x8, x25, lsl #1
100006f0c: 1400008a    	b	0x100007134 <__ZN4core5slice4sort6stable5drift4sort17hde2de3c55f28f1ccE+0x344>
100006f10: f100093f    	cmp	x9, #0x2
100006f14: 540010c3    	b.lo	0x10000712c <__ZN4core5slice4sort6stable5drift4sort17hde2de3c55f28f1ccE+0x33c>
100006f18: f9400c0a    	ldr	x10, [x0, #0x18]
100006f1c: f940000b    	ldr	x11, [x0]
100006f20: eb0b015f    	cmp	x10, x11
100006f24: 540004c2    	b.hs	0x100006fbc <__ZN4core5slice4sort6stable5drift4sort17hde2de3c55f28f1ccE+0x1cc>
100006f28: f100093f    	cmp	x9, #0x2
100006f2c: 54000561    	b.ne	0x100006fd8 <__ZN4core5slice4sort6stable5drift4sort17hde2de3c55f28f1ccE+0x1e8>
100006f30: f9401fe8    	ldr	x8, [sp, #0x38]
100006f34: f100091f    	cmp	x8, #0x2
100006f38: 54fffce8    	b.hi	0x100006ed4 <__ZN4core5slice4sort6stable5drift4sort17hde2de3c55f28f1ccE+0xe4>
100006f3c: 91006009    	add	x9, x0, #0x18
100006f40: 5280002a    	mov	w10, #0x1               ; =1
100006f44: 52800048    	mov	w8, #0x2                ; =2
100006f48: f100215f    	cmp	x10, #0x8
100006f4c: 54000942    	b.hs	0x100007074 <__ZN4core5slice4sort6stable5drift4sort17hde2de3c55f28f1ccE+0x284>
100006f50: d280000b    	mov	x11, #0x0               ; =0
100006f54: cb0b014c    	sub	x12, x10, x11
100006f58: 8b0b056b    	add	x11, x11, x11, lsl #1
100006f5c: d37df16d    	lsl	x13, x11, #3
100006f60: 9b1536cb    	madd	x11, x22, x21, x13
100006f64: f94003ee    	ldr	x14, [sp]
100006f68: 8b0b01cb    	add	x11, x14, x11
100006f6c: cb0d03ed    	neg	x13, x13
100006f70: 9b15354a    	madd	x10, x10, x21, x13
100006f74: 8b0a0129    	add	x9, x9, x10
100006f78: d1002129    	sub	x9, x9, #0x8
100006f7c: 3cdf0120    	ldur	q0, [x9, #-0x10]
100006f80: 3cdf0161    	ldur	q1, [x11, #-0x10]
100006f84: 3c9f0160    	stur	q0, [x11, #-0x10]
100006f88: 3c9f0121    	stur	q1, [x9, #-0x10]
100006f8c: f940016a    	ldr	x10, [x11]
100006f90: f940012d    	ldr	x13, [x9]
100006f94: f801856d    	str	x13, [x11], #0x18
100006f98: f81e852a    	str	x10, [x9], #-0x18
100006f9c: d100058c    	sub	x12, x12, #0x1
100006fa0: b5fffeec    	cbnz	x12, 0x100006f7c <__ZN4core5slice4sort6stable5drift4sort17hde2de3c55f28f1ccE+0x18c>
100006fa4: 14000061    	b	0x100007128 <__ZN4core5slice4sort6stable5drift4sort17hde2de3c55f28f1ccE+0x338>
100006fa8: f9401fe8    	ldr	x8, [sp, #0x38]
100006fac: eb09011f    	cmp	x8, x9
100006fb0: 9a893108    	csel	x8, x8, x9, lo
100006fb4: d37ff90b    	lsl	x11, x8, #1
100006fb8: 1400005f    	b	0x100007134 <__ZN4core5slice4sort6stable5drift4sort17hde2de3c55f28f1ccE+0x344>
100006fbc: f100093f    	cmp	x9, #0x2
100006fc0: 54000241    	b.ne	0x100007008 <__ZN4core5slice4sort6stable5drift4sort17hde2de3c55f28f1ccE+0x218>
100006fc4: f9401fe8    	ldr	x8, [sp, #0x38]
100006fc8: f100091f    	cmp	x8, #0x2
100006fcc: 54fff848    	b.hi	0x100006ed4 <__ZN4core5slice4sort6stable5drift4sort17hde2de3c55f28f1ccE+0xe4>
100006fd0: 52800049    	mov	w9, #0x2                ; =2
100006fd4: 14000056    	b	0x10000712c <__ZN4core5slice4sort6stable5drift4sort17hde2de3c55f28f1ccE+0x33c>
100006fd8: f94007e8    	ldr	x8, [sp, #0x8]
100006fdc: 9b1522cc    	madd	x12, x22, x21, x8
100006fe0: aa0a03ed    	mov	x13, x10
100006fe4: 52800048    	mov	w8, #0x2                ; =2
100006fe8: f841858e    	ldr	x14, [x12], #0x18
100006fec: eb0d01df    	cmp	x14, x13
100006ff0: 54000242    	b.hs	0x100007038 <__ZN4core5slice4sort6stable5drift4sort17hde2de3c55f28f1ccE+0x248>
100006ff4: 91000508    	add	x8, x8, #0x1
100006ff8: aa0e03ed    	mov	x13, x14
100006ffc: eb08013f    	cmp	x9, x8
100007000: 54ffff41    	b.ne	0x100006fe8 <__ZN4core5slice4sort6stable5drift4sort17hde2de3c55f28f1ccE+0x1f8>
100007004: 1400000c    	b	0x100007034 <__ZN4core5slice4sort6stable5drift4sort17hde2de3c55f28f1ccE+0x244>
100007008: f94007e8    	ldr	x8, [sp, #0x8]
10000700c: 9b1522cc    	madd	x12, x22, x21, x8
100007010: aa0a03ed    	mov	x13, x10
100007014: 52800048    	mov	w8, #0x2                ; =2
100007018: f841858e    	ldr	x14, [x12], #0x18
10000701c: eb0d01df    	cmp	x14, x13
100007020: 540000c3    	b.lo	0x100007038 <__ZN4core5slice4sort6stable5drift4sort17hde2de3c55f28f1ccE+0x248>
100007024: 91000508    	add	x8, x8, #0x1
100007028: aa0e03ed    	mov	x13, x14
10000702c: eb08013f    	cmp	x9, x8
100007030: 54ffff41    	b.ne	0x100007018 <__ZN4core5slice4sort6stable5drift4sort17hde2de3c55f28f1ccE+0x228>
100007034: aa0903e8    	mov	x8, x9
100007038: f9401fec    	ldr	x12, [sp, #0x38]
10000703c: eb0c011f    	cmp	x8, x12
100007040: 54fff4a3    	b.lo	0x100006ed4 <__ZN4core5slice4sort6stable5drift4sort17hde2de3c55f28f1ccE+0xe4>
100007044: eb0b015f    	cmp	x10, x11
100007048: 54000702    	b.hs	0x100007128 <__ZN4core5slice4sort6stable5drift4sort17hde2de3c55f28f1ccE+0x338>
10000704c: f100091f    	cmp	x8, #0x2
100007050: 54000062    	b.hs	0x10000705c <__ZN4core5slice4sort6stable5drift4sort17hde2de3c55f28f1ccE+0x26c>
100007054: 52800029    	mov	w9, #0x1                ; =1
100007058: 14000035    	b	0x10000712c <__ZN4core5slice4sort6stable5drift4sort17hde2de3c55f28f1ccE+0x33c>
10000705c: d341fd0a    	lsr	x10, x8, #1
100007060: 9b150109    	madd	x9, x8, x21, x0
100007064: 9b15fd4b    	mneg	x11, x10, x21
100007068: 8b0b0129    	add	x9, x9, x11
10000706c: f100215f    	cmp	x10, #0x8
100007070: 54fff703    	b.lo	0x100006f50 <__ZN4core5slice4sort6stable5drift4sort17hde2de3c55f28f1ccE+0x160>
100007074: d280000b    	mov	x11, #0x0               ; =0
100007078: d100054d    	sub	x13, x10, #0x1
10000707c: 8b0a054c    	add	x12, x10, x10, lsl #1
100007080: d37df18c    	lsl	x12, x12, #3
100007084: 8b0c012e    	add	x14, x9, x12
100007088: d10021d0    	sub	x16, x14, #0x8
10000708c: 9bd57dad    	umulh	x13, x13, x21
100007090: eb0d03ff    	cmp	xzr, x13
100007094: 1a9f07ed    	cset	w13, ne
100007098: d100618f    	sub	x15, x12, #0x18
10000709c: cb0f0211    	sub	x17, x16, x15
1000070a0: eb10023f    	cmp	x17, x16
1000070a4: 54fff588    	b.hi	0x100006f54 <__ZN4core5slice4sort6stable5drift4sort17hde2de3c55f28f1ccE+0x164>
1000070a8: 3707f56d    	tbnz	w13, #0x0, 0x100006f54 <__ZN4core5slice4sort6stable5drift4sort17hde2de3c55f28f1ccE+0x164>
1000070ac: d10041d0    	sub	x16, x14, #0x10
1000070b0: cb0f0211    	sub	x17, x16, x15
1000070b4: eb10023f    	cmp	x17, x16
1000070b8: 54fff4e8    	b.hi	0x100006f54 <__ZN4core5slice4sort6stable5drift4sort17hde2de3c55f28f1ccE+0x164>
1000070bc: 3707f4cd    	tbnz	w13, #0x0, 0x100006f54 <__ZN4core5slice4sort6stable5drift4sort17hde2de3c55f28f1ccE+0x164>
1000070c0: d10061ce    	sub	x14, x14, #0x18
1000070c4: cb0f01cf    	sub	x15, x14, x15
1000070c8: eb0e01ff    	cmp	x15, x14
1000070cc: 54fff448    	b.hi	0x100006f54 <__ZN4core5slice4sort6stable5drift4sort17hde2de3c55f28f1ccE+0x164>
1000070d0: 3707f42d    	tbnz	w13, #0x0, 0x100006f54 <__ZN4core5slice4sort6stable5drift4sort17hde2de3c55f28f1ccE+0x164>
1000070d4: 927ff54b    	and	x11, x10, #0x7ffffffffffffffe
1000070d8: 8b0c012c    	add	x12, x9, x12
1000070dc: d100c18c    	sub	x12, x12, #0x30
1000070e0: aa0b03ed    	mov	x13, x11
1000070e4: ad408404    	ldp	q4, q1, [x0, #0x10]
1000070e8: 3dc00003    	ldr	q3, [x0]
1000070ec: ad401985    	ldp	q5, q6, [x12]
1000070f0: 3dc00991    	ldr	q17, [x12, #0x20]
1000070f4: 6e064232    	ext.16b	v18, v17, v6, #0x8
1000070f8: 6e0540d0    	ext.16b	v16, v6, v5, #0x8
1000070fc: 6e1844b1    	mov.d	v17[1], v5[1]
100007100: 4c9f4c10    	st3.2d	{ v16, v17, v18 }, [x0], #48
100007104: 6e044022    	ext.16b	v2, v1, v4, #0x8
100007108: 6e034080    	ext.16b	v0, v4, v3, #0x8
10000710c: 6e184461    	mov.d	v1[1], v3[1]
100007110: 4c004d80    	st3.2d	{ v0, v1, v2 }, [x12]
100007114: d100c18c    	sub	x12, x12, #0x30
100007118: f10009ad    	subs	x13, x13, #0x2
10000711c: 54fffe41    	b.ne	0x1000070e4 <__ZN4core5slice4sort6stable5drift4sort17hde2de3c55f28f1ccE+0x2f4>
100007120: eb0b015f    	cmp	x10, x11
100007124: 54fff181    	b.ne	0x100006f54 <__ZN4core5slice4sort6stable5drift4sort17hde2de3c55f28f1ccE+0x164>
100007128: aa0803e9    	mov	x9, x8
10000712c: 52800028    	mov	w8, #0x1                ; =1
100007130: aa09050b    	orr	x11, x8, x9, lsl #1
100007134: d37ffac8    	lsl	x8, x22, #1
100007138: cb5c0509    	sub	x9, x8, x28, lsr #1
10000713c: 8b4b0508    	add	x8, x8, x11, lsr #1
100007140: f9400fea    	ldr	x10, [sp, #0x18]
100007144: 9b0a7d29    	mul	x9, x9, x10
100007148: 9b0a7d08    	mul	x8, x8, x10
10000714c: ca090108    	eor	x8, x8, x9
100007150: dac0110a    	clz	x10, x8
100007154: f1000aff    	cmp	x23, #0x2
100007158: 540011a3    	b.lo	0x10000738c <__ZN4core5slice4sort6stable5drift4sort17hde2de3c55f28f1ccE+0x59c>
10000715c: 8b1606c8    	add	x8, x22, x22, lsl #1
100007160: d37df108    	lsl	x8, x8, #3
100007164: f9402bf3    	ldr	x19, [sp, #0x50]
100007168: 8b080269    	add	x9, x19, x8
10000716c: f9001be9    	str	x9, [sp, #0x30]
100007170: f94013e9    	ldr	x9, [sp, #0x20]
100007174: 8b080128    	add	x8, x9, x8
100007178: a9042fe8    	stp	x8, x11, [sp, #0x40]
10000717c: f90037ea    	str	x10, [sp, #0x68]
100007180: f9002ff6    	str	x22, [sp, #0x58]
100007184: 1400000e    	b	0x1000071bc <__ZN4core5slice4sort6stable5drift4sort17hde2de3c55f28f1ccE+0x3cc>
100007188: aa1303e1    	mov	x1, x19
10000718c: f9402bf3    	ldr	x19, [sp, #0x50]
100007190: cb010102    	sub	x2, x8, x1
100007194: aa1603e0    	mov	x0, x22
100007198: 9400bc35    	bl	0x10003626c <dyld_stub_binder+0x10003626c>
10000719c: f9403fe3    	ldr	x3, [sp, #0x78]
1000071a0: f94037ea    	ldr	x10, [sp, #0x68]
1000071a4: 52800028    	mov	w8, #0x1                ; =1
1000071a8: aa14051c    	orr	x28, x8, x20, lsl #1
1000071ac: f9402ff6    	ldr	x22, [sp, #0x58]
1000071b0: f9403bf7    	ldr	x23, [sp, #0x70]
1000071b4: f100071f    	cmp	x24, #0x1
1000071b8: 54000e49    	b.ls	0x100007380 <__ZN4core5slice4sort6stable5drift4sort17hde2de3c55f28f1ccE+0x590>
1000071bc: d10006f8    	sub	x24, x23, #0x1
1000071c0: d1026ba8    	sub	x8, x29, #0x9a
1000071c4: 38786908    	ldrb	w8, [x8, x24]
1000071c8: 6b0a011f    	cmp	w8, w10
1000071cc: 54000dc3    	b.lo	0x100007384 <__ZN4core5slice4sort6stable5drift4sort17hde2de3c55f28f1ccE+0x594>
1000071d0: aa1803f7    	mov	x23, x24
1000071d4: 910203e8    	add	x8, sp, #0x80
1000071d8: f8787919    	ldr	x25, [x8, x24, lsl #3]
1000071dc: d341ff3a    	lsr	x26, x25, #1
1000071e0: d341ff9b    	lsr	x27, x28, #1
1000071e4: 2a1c0328    	orr	w8, w25, w28
1000071e8: 92400108    	and	x8, x8, #0x1
1000071ec: 8b1b0354    	add	x20, x26, x27
1000071f0: eb03029f    	cmp	x20, x3
1000071f4: fa409900    	ccmp	x8, #0x0, #0x0, ls
1000071f8: 540002a0    	b.eq	0x10000724c <__ZN4core5slice4sort6stable5drift4sort17hde2de3c55f28f1ccE+0x45c>
1000071fc: cb1402c8    	sub	x8, x22, x20
100007200: 9b154d16    	madd	x22, x8, x21, x19
100007204: 370002d9    	tbnz	w25, #0x0, 0x10000725c <__ZN4core5slice4sort6stable5drift4sort17hde2de3c55f28f1ccE+0x46c>
100007208: b2400348    	orr	x8, x26, #0x1
10000720c: dac01108    	clz	x8, x8
100007210: 531f7908    	lsl	w8, w8, #1
100007214: 521f1504    	eor	w4, w8, #0x7e
100007218: aa1603e0    	mov	x0, x22
10000721c: aa1a03e1    	mov	x1, x26
100007220: f94033e2    	ldr	x2, [sp, #0x60]
100007224: f9403fe3    	ldr	x3, [sp, #0x78]
100007228: d2800005    	mov	x5, #0x0                ; =0
10000722c: 9400042d    	bl	0x1000082e0 <__ZN4core5slice4sort6stable9quicksort9quicksort17h2755ce9b6a022da6E>
100007230: f94037ea    	ldr	x10, [sp, #0x68]
100007234: f9403fe3    	ldr	x3, [sp, #0x78]
100007238: f9003bf7    	str	x23, [sp, #0x70]
10000723c: 3600015c    	tbz	w28, #0x0, 0x100007264 <__ZN4core5slice4sort6stable5drift4sort17hde2de3c55f28f1ccE+0x474>
100007240: f1000b9f    	cmp	x28, #0x2
100007244: 540002c2    	b.hs	0x10000729c <__ZN4core5slice4sort6stable5drift4sort17hde2de3c55f28f1ccE+0x4ac>
100007248: 17ffffd7    	b	0x1000071a4 <__ZN4core5slice4sort6stable5drift4sort17hde2de3c55f28f1ccE+0x3b4>
10000724c: d37ffa9c    	lsl	x28, x20, #1
100007250: f100071f    	cmp	x24, #0x1
100007254: 54fffb48    	b.hi	0x1000071bc <__ZN4core5slice4sort6stable5drift4sort17hde2de3c55f28f1ccE+0x3cc>
100007258: 1400004a    	b	0x100007380 <__ZN4core5slice4sort6stable5drift4sort17hde2de3c55f28f1ccE+0x590>
10000725c: f9003bf7    	str	x23, [sp, #0x70]
100007260: 3707ff1c    	tbnz	w28, #0x0, 0x100007240 <__ZN4core5slice4sort6stable5drift4sort17hde2de3c55f28f1ccE+0x450>
100007264: 9b155b40    	madd	x0, x26, x21, x22
100007268: b2400368    	orr	x8, x27, #0x1
10000726c: dac01108    	clz	x8, x8
100007270: 531f7908    	lsl	w8, w8, #1
100007274: 521f1504    	eor	w4, w8, #0x7e
100007278: aa1b03e1    	mov	x1, x27
10000727c: f94033e2    	ldr	x2, [sp, #0x60]
100007280: f9403fe3    	ldr	x3, [sp, #0x78]
100007284: d2800005    	mov	x5, #0x0                ; =0
100007288: 94000416    	bl	0x1000082e0 <__ZN4core5slice4sort6stable9quicksort9quicksort17h2755ce9b6a022da6E>
10000728c: f94037ea    	ldr	x10, [sp, #0x68]
100007290: f9403fe3    	ldr	x3, [sp, #0x78]
100007294: f1000b9f    	cmp	x28, #0x2
100007298: 54fff863    	b.lo	0x1000071a4 <__ZN4core5slice4sort6stable5drift4sort17hde2de3c55f28f1ccE+0x3b4>
10000729c: f1000b3f    	cmp	x25, #0x2
1000072a0: 54fff823    	b.lo	0x1000071a4 <__ZN4core5slice4sort6stable5drift4sort17hde2de3c55f28f1ccE+0x3b4>
1000072a4: eb1b035f    	cmp	x26, x27
1000072a8: 9a9b3357    	csel	x23, x26, x27, lo
1000072ac: eb0302ff    	cmp	x23, x3
1000072b0: 54fff7a8    	b.hi	0x1000071a4 <__ZN4core5slice4sort6stable5drift4sort17hde2de3c55f28f1ccE+0x3b4>
1000072b4: 9b155b59    	madd	x25, x26, x21, x22
1000072b8: eb1a037f    	cmp	x27, x26
1000072bc: 9a963321    	csel	x1, x25, x22, lo
1000072c0: 8b1706e8    	add	x8, x23, x23, lsl #1
1000072c4: d37df11c    	lsl	x28, x8, #3
1000072c8: f94033f3    	ldr	x19, [sp, #0x60]
1000072cc: aa1303e0    	mov	x0, x19
1000072d0: aa1c03e2    	mov	x2, x28
1000072d4: 9400bbe6    	bl	0x10003626c <dyld_stub_binder+0x10003626c>
1000072d8: 8b1c0268    	add	x8, x19, x28
1000072dc: eb1a037f    	cmp	x27, x26
1000072e0: 54000282    	b.hs	0x100007330 <__ZN4core5slice4sort6stable5drift4sort17hde2de3c55f28f1ccE+0x540>
1000072e4: f94023e9    	ldr	x9, [sp, #0x40]
1000072e8: f85e8d0a    	ldr	x10, [x8, #-0x18]!
1000072ec: f85e8f2b    	ldr	x11, [x25, #-0x18]!
1000072f0: eb0b015f    	cmp	x10, x11
1000072f4: 9a88332a    	csel	x10, x25, x8, lo
1000072f8: 1a9f27eb    	cset	w11, lo
1000072fc: 1a9f37ec    	cset	w12, hs
100007300: f940094d    	ldr	x13, [x10, #0x10]
100007304: 3dc00140    	ldr	q0, [x10]
100007308: 3d800120    	str	q0, [x9]
10000730c: f900092d    	str	x13, [x9, #0x10]
100007310: 9bb56599    	umaddl	x25, w12, w21, x25
100007314: 9bb52168    	umaddl	x8, w11, w21, x8
100007318: d1006129    	sub	x9, x9, #0x18
10000731c: eb16033f    	cmp	x25, x22
100007320: fa531104    	ccmp	x8, x19, #0x4, ne
100007324: 54fffe21    	b.ne	0x1000072e8 <__ZN4core5slice4sort6stable5drift4sort17hde2de3c55f28f1ccE+0x4f8>
100007328: aa1903f6    	mov	x22, x25
10000732c: 17ffff97    	b	0x100007188 <__ZN4core5slice4sort6stable5drift4sort17hde2de3c55f28f1ccE+0x398>
100007330: b4fff2d7    	cbz	x23, 0x100007188 <__ZN4core5slice4sort6stable5drift4sort17hde2de3c55f28f1ccE+0x398>
100007334: aa1303e1    	mov	x1, x19
100007338: f9401bed    	ldr	x13, [sp, #0x30]
10000733c: f9400329    	ldr	x9, [x25]
100007340: f940002a    	ldr	x10, [x1]
100007344: eb0a013f    	cmp	x9, x10
100007348: 9a813329    	csel	x9, x25, x1, lo
10000734c: 1a9f27ea    	cset	w10, lo
100007350: 1a9f37eb    	cset	w11, hs
100007354: f940092c    	ldr	x12, [x9, #0x10]
100007358: 3dc00120    	ldr	q0, [x9]
10000735c: 3d8002c0    	str	q0, [x22]
100007360: f9000acc    	str	x12, [x22, #0x10]
100007364: 9bb50561    	umaddl	x1, w11, w21, x1
100007368: 9bb56559    	umaddl	x25, w10, w21, x25
10000736c: 910062d6    	add	x22, x22, #0x18
100007370: eb08003f    	cmp	x1, x8
100007374: fa4d1324    	ccmp	x25, x13, #0x4, ne
100007378: 54fffe21    	b.ne	0x10000733c <__ZN4core5slice4sort6stable5drift4sort17hde2de3c55f28f1ccE+0x54c>
10000737c: 17ffff84    	b	0x10000718c <__ZN4core5slice4sort6stable5drift4sort17hde2de3c55f28f1ccE+0x39c>
100007380: 52800037    	mov	w23, #0x1               ; =1
100007384: f94017f3    	ldr	x19, [sp, #0x28]
100007388: f94027eb    	ldr	x11, [sp, #0x48]
10000738c: 910203e8    	add	x8, sp, #0x80
100007390: f837791c    	str	x28, [x8, x23, lsl #3]
100007394: d1026ba8    	sub	x8, x29, #0x9a
100007398: 3837690a    	strb	w10, [x8, x23]
10000739c: eb16027f    	cmp	x19, x22
1000073a0: 54ffd7c8    	b.hi	0x100006e98 <__ZN4core5slice4sort6stable5drift4sort17hde2de3c55f28f1ccE+0xa8>
1000073a4: 3700023c    	tbnz	w28, #0x0, 0x1000073e8 <__ZN4core5slice4sort6stable5drift4sort17hde2de3c55f28f1ccE+0x5f8>
1000073a8: b2400268    	orr	x8, x19, #0x1
1000073ac: dac01108    	clz	x8, x8
1000073b0: 531f7908    	lsl	w8, w8, #1
1000073b4: 521f1504    	eor	w4, w8, #0x7e
1000073b8: f9402be0    	ldr	x0, [sp, #0x50]
1000073bc: aa1303e1    	mov	x1, x19
1000073c0: f94033e2    	ldr	x2, [sp, #0x60]
1000073c4: d2800005    	mov	x5, #0x0                ; =0
1000073c8: 910b83ff    	add	sp, sp, #0x2e0
1000073cc: a9457bfd    	ldp	x29, x30, [sp, #0x50]
1000073d0: a9444ff4    	ldp	x20, x19, [sp, #0x40]
1000073d4: a94357f6    	ldp	x22, x21, [sp, #0x30]
1000073d8: a9425ff8    	ldp	x24, x23, [sp, #0x20]
1000073dc: a94167fa    	ldp	x26, x25, [sp, #0x10]
1000073e0: a8c66ffc    	ldp	x28, x27, [sp], #0x60
1000073e4: 140003bf    	b	0x1000082e0 <__ZN4core5slice4sort6stable9quicksort9quicksort17h2755ce9b6a022da6E>
1000073e8: 910b83ff    	add	sp, sp, #0x2e0
1000073ec: a9457bfd    	ldp	x29, x30, [sp, #0x50]
1000073f0: a9444ff4    	ldp	x20, x19, [sp, #0x40]
1000073f4: a94357f6    	ldp	x22, x21, [sp, #0x30]
1000073f8: a9425ff8    	ldp	x24, x23, [sp, #0x20]
1000073fc: a94167fa    	ldp	x26, x25, [sp, #0x10]
100007400: a8c66ffc    	ldp	x28, x27, [sp], #0x60
100007404: d65f03c0    	ret

0000000100007408 <__ZN4core5slice4sort6stable9quicksort9quicksort17h07c2ad961e258bf6E>:
100007408: d10303ff    	sub	sp, sp, #0xc0
10000740c: a9066ffc    	stp	x28, x27, [sp, #0x60]
100007410: a90767fa    	stp	x26, x25, [sp, #0x70]
100007414: a9085ff8    	stp	x24, x23, [sp, #0x80]
100007418: a90957f6    	stp	x22, x21, [sp, #0x90]
10000741c: a90a4ff4    	stp	x20, x19, [sp, #0xa0]
100007420: a90b7bfd    	stp	x29, x30, [sp, #0xb0]
100007424: 9102c3fd    	add	x29, sp, #0xb0
100007428: aa0303f6    	mov	x22, x3
10000742c: aa0203f3    	mov	x19, x2
100007430: aa0103f5    	mov	x21, x1
100007434: aa0003f4    	mov	x20, x0
100007438: f100843f    	cmp	x1, #0x21
10000743c: 54000c82    	b.hs	0x1000075cc <__ZN4core5slice4sort6stable9quicksort9quicksort17h07c2ad961e258bf6E+0x1c4>
100007440: f1000abf    	cmp	x21, #0x2
100007444: 54002fe3    	b.lo	0x100007a40 <__ZN4core5slice4sort6stable9quicksort9quicksort17h07c2ad961e258bf6E+0x638>
100007448: 910042a8    	add	x8, x21, #0x10
10000744c: eb16011f    	cmp	x8, x22
100007450: 54003208    	b.hi	0x100007a90 <__ZN4core5slice4sort6stable9quicksort9quicksort17h07c2ad961e258bf6E+0x688>
100007454: d341fea8    	lsr	x8, x21, #1
100007458: d37be909    	lsl	x9, x8, #5
10000745c: f1001ebf    	cmp	x21, #0x7
100007460: 54001f29    	b.ls	0x100007844 <__ZN4core5slice4sort6stable9quicksort9quicksort17h07c2ad961e258bf6E+0x43c>
100007464: f9401a8a    	ldr	x10, [x20, #0x30]
100007468: f9400a8b    	ldr	x11, [x20, #0x10]
10000746c: eb0b015f    	cmp	x10, x11
100007470: 1a9f37ea    	cset	w10, hs
100007474: 1a9f27eb    	cset	w11, lo
100007478: f9403a8c    	ldr	x12, [x20, #0x70]
10000747c: f9402a8d    	ldr	x13, [x20, #0x50]
100007480: 8b0b168b    	add	x11, x20, x11, lsl #5
100007484: 8b0a168e    	add	x14, x20, x10, lsl #5
100007488: 5280080a    	mov	w10, #0x40              ; =64
10000748c: 52800c0f    	mov	w15, #0x60              ; =96
100007490: eb0d019f    	cmp	x12, x13
100007494: 9a8a31ec    	csel	x12, x15, x10, lo
100007498: 8b0c028c    	add	x12, x20, x12
10000749c: 9a8f314d    	csel	x13, x10, x15, lo
1000074a0: 8b0d028d    	add	x13, x20, x13
1000074a4: f9400990    	ldr	x16, [x12, #0x10]
1000074a8: f9400971    	ldr	x17, [x11, #0x10]
1000074ac: f94009a0    	ldr	x0, [x13, #0x10]
1000074b0: f94009c1    	ldr	x1, [x14, #0x10]
1000074b4: eb01001f    	cmp	x0, x1
1000074b8: 9a8e3182    	csel	x2, x12, x14, lo
1000074bc: eb11021f    	cmp	x16, x17
1000074c0: 9a8b3190    	csel	x16, x12, x11, lo
1000074c4: 9a82316b    	csel	x11, x11, x2, lo
1000074c8: 9a8c31cc    	csel	x12, x14, x12, lo
1000074cc: eb01001f    	cmp	x0, x1
1000074d0: 9a8d31ce    	csel	x14, x14, x13, lo
1000074d4: 9a8c31ac    	csel	x12, x13, x12, lo
1000074d8: f940098d    	ldr	x13, [x12, #0x10]
1000074dc: f9400971    	ldr	x17, [x11, #0x10]
1000074e0: eb1101bf    	cmp	x13, x17
1000074e4: 9a8b318d    	csel	x13, x12, x11, lo
1000074e8: 9a8c316b    	csel	x11, x11, x12, lo
1000074ec: ad400600    	ldp	q0, q1, [x16]
1000074f0: ad000660    	stp	q0, q1, [x19]
1000074f4: ad4005a0    	ldp	q0, q1, [x13]
1000074f8: ad010660    	stp	q0, q1, [x19, #0x20]
1000074fc: ad400560    	ldp	q0, q1, [x11]
100007500: ad020660    	stp	q0, q1, [x19, #0x40]
100007504: ad4005c0    	ldp	q0, q1, [x14]
100007508: ad030660    	stp	q0, q1, [x19, #0x60]
10000750c: 8b09028b    	add	x11, x20, x9
100007510: f940196c    	ldr	x12, [x11, #0x30]
100007514: f940096d    	ldr	x13, [x11, #0x10]
100007518: eb0d019f    	cmp	x12, x13
10000751c: 1a9f37ec    	cset	w12, hs
100007520: 1a9f27ed    	cset	w13, lo
100007524: f940396e    	ldr	x14, [x11, #0x70]
100007528: f9402970    	ldr	x16, [x11, #0x50]
10000752c: eb1001df    	cmp	x14, x16
100007530: 9a8a31ee    	csel	x14, x15, x10, lo
100007534: 8b0e016e    	add	x14, x11, x14
100007538: 8b0d156d    	add	x13, x11, x13, lsl #5
10000753c: 8b0c156c    	add	x12, x11, x12, lsl #5
100007540: 9a8f314a    	csel	x10, x10, x15, lo
100007544: 8b0a016a    	add	x10, x11, x10
100007548: f94009cb    	ldr	x11, [x14, #0x10]
10000754c: f94009af    	ldr	x15, [x13, #0x10]
100007550: f9400950    	ldr	x16, [x10, #0x10]
100007554: f9400991    	ldr	x17, [x12, #0x10]
100007558: eb11021f    	cmp	x16, x17
10000755c: 9a8c31c0    	csel	x0, x14, x12, lo
100007560: eb0f017f    	cmp	x11, x15
100007564: 9a8d31cb    	csel	x11, x14, x13, lo
100007568: 9a8031ad    	csel	x13, x13, x0, lo
10000756c: 9a8e318e    	csel	x14, x12, x14, lo
100007570: 8b09026f    	add	x15, x19, x9
100007574: eb11021f    	cmp	x16, x17
100007578: 9a8a318c    	csel	x12, x12, x10, lo
10000757c: 9a8e314a    	csel	x10, x10, x14, lo
100007580: f940094e    	ldr	x14, [x10, #0x10]
100007584: f94009b0    	ldr	x16, [x13, #0x10]
100007588: eb1001df    	cmp	x14, x16
10000758c: 9a8d314e    	csel	x14, x10, x13, lo
100007590: 9a8a31aa    	csel	x10, x13, x10, lo
100007594: ad400560    	ldp	q0, q1, [x11]
100007598: ad0005e0    	stp	q0, q1, [x15]
10000759c: ad4005c0    	ldp	q0, q1, [x14]
1000075a0: ad0105e0    	stp	q0, q1, [x15, #0x20]
1000075a4: ad400540    	ldp	q0, q1, [x10]
1000075a8: ad0205e0    	stp	q0, q1, [x15, #0x40]
1000075ac: ad400580    	ldp	q0, q1, [x12]
1000075b0: ad0305e0    	stp	q0, q1, [x15, #0x60]
1000075b4: 5280008b    	mov	w11, #0x4               ; =4
1000075b8: cb0802ac    	sub	x12, x21, x8
1000075bc: d37be96d    	lsl	x13, x11, #5
1000075c0: eb08017f    	cmp	x11, x8
1000075c4: 54001563    	b.lo	0x100007870 <__ZN4core5slice4sort6stable9quicksort9quicksort17h07c2ad961e258bf6E+0x468>
1000075c8: 140000ca    	b	0x1000078f0 <__ZN4core5slice4sort6stable9quicksort9quicksort17h07c2ad961e258bf6E+0x4e8>
1000075cc: aa0503f9    	mov	x25, x5
1000075d0: aa0403f7    	mov	x23, x4
1000075d4: d1008268    	sub	x8, x19, #0x20
1000075d8: f90007e8    	str	x8, [sp, #0x8]
1000075dc: aa1503f8    	mov	x24, x21
1000075e0: 34001257    	cbz	w23, 0x100007828 <__ZN4core5slice4sort6stable9quicksort9quicksort17h07c2ad961e258bf6E+0x420>
1000075e4: d343ff03    	lsr	x3, x24, #3
1000075e8: 8b031e81    	add	x1, x20, x3, lsl #7
1000075ec: 52801c08    	mov	w8, #0xe0               ; =224
1000075f0: 9b085062    	madd	x2, x3, x8, x20
1000075f4: f101031f    	cmp	x24, #0x40
1000075f8: 54000222    	b.hs	0x10000763c <__ZN4core5slice4sort6stable9quicksort9quicksort17h07c2ad961e258bf6E+0x234>
1000075fc: f9400a88    	ldr	x8, [x20, #0x10]
100007600: f9400829    	ldr	x9, [x1, #0x10]
100007604: eb09011f    	cmp	x8, x9
100007608: 1a9f27ea    	cset	w10, lo
10000760c: f940084b    	ldr	x11, [x2, #0x10]
100007610: eb0b011f    	cmp	x8, x11
100007614: 1a9f27e8    	cset	w8, lo
100007618: 4a080148    	eor	w8, w10, w8
10000761c: eb0b013f    	cmp	x9, x11
100007620: 1a9f27e9    	cset	w9, lo
100007624: 4a090149    	eor	w9, w10, w9
100007628: 7100013f    	cmp	w9, #0x0
10000762c: 9a811049    	csel	x9, x2, x1, ne
100007630: 7100011f    	cmp	w8, #0x0
100007634: 9a891280    	csel	x0, x20, x9, ne
100007638: 14000003    	b	0x100007644 <__ZN4core5slice4sort6stable9quicksort9quicksort17h07c2ad961e258bf6E+0x23c>
10000763c: aa1403e0    	mov	x0, x20
100007640: 97ffee20    	bl	0x100002ec0 <__ZN4core5slice4sort6shared5pivot11median3_rec17h0362308a2bf4f4f0E>
100007644: 510006f7    	sub	w23, w23, #0x1
100007648: cb140008    	sub	x8, x0, x20
10000764c: d345fd1a    	lsr	x26, x8, #5
100007650: ad400400    	ldp	q0, q1, [x0]
100007654: ad0087e0    	stp	q0, q1, [sp, #0x10]
100007658: 8b18167c    	add	x28, x19, x24, lsl #5
10000765c: 8b1a169b    	add	x27, x20, x26, lsl #5
100007660: b40000b9    	cbz	x25, 0x100007674 <__ZN4core5slice4sort6stable9quicksort9quicksort17h07c2ad961e258bf6E+0x26c>
100007664: f9400b28    	ldr	x8, [x25, #0x10]
100007668: f9400809    	ldr	x9, [x0, #0x10]
10000766c: eb09011f    	cmp	x8, x9
100007670: 54000762    	b.hs	0x10000775c <__ZN4core5slice4sort6stable9quicksort9quicksort17h07c2ad961e258bf6E+0x354>
100007674: eb16031f    	cmp	x24, x22
100007678: 540020c8    	b.hi	0x100007a90 <__ZN4core5slice4sort6stable9quicksort9quicksort17h07c2ad961e258bf6E+0x688>
10000767c: d2800015    	mov	x21, #0x0               ; =0
100007680: aa1403e8    	mov	x8, x20
100007684: aa1c03e9    	mov	x9, x28
100007688: aa1a03ea    	mov	x10, x26
10000768c: 8b1a168b    	add	x11, x20, x26, lsl #5
100007690: eb0b029f    	cmp	x20, x11
100007694: 54000182    	b.hs	0x1000076c4 <__ZN4core5slice4sort6stable9quicksort9quicksort17h07c2ad961e258bf6E+0x2bc>
100007698: f940090c    	ldr	x12, [x8, #0x10]
10000769c: f841036d    	ldur	x13, [x27, #0x10]
1000076a0: d1008129    	sub	x9, x9, #0x20
1000076a4: eb0d019f    	cmp	x12, x13
1000076a8: 9a89326c    	csel	x12, x19, x9, lo
1000076ac: 8b15158c    	add	x12, x12, x21, lsl #5
1000076b0: acc10500    	ldp	q0, q1, [x8], #0x20
1000076b4: ad000580    	stp	q0, q1, [x12]
1000076b8: 9a9526b5    	cinc	x21, x21, lo
1000076bc: eb0b011f    	cmp	x8, x11
1000076c0: 54fffec3    	b.lo	0x100007698 <__ZN4core5slice4sort6stable9quicksort9quicksort17h07c2ad961e258bf6E+0x290>
1000076c4: eb18015f    	cmp	x10, x24
1000076c8: 54000140    	b.eq	0x1000076f0 <__ZN4core5slice4sort6stable9quicksort9quicksort17h07c2ad961e258bf6E+0x2e8>
1000076cc: d1008129    	sub	x9, x9, #0x20
1000076d0: acc10500    	ldp	q0, q1, [x8], #0x20
1000076d4: 8b15152a    	add	x10, x9, x21, lsl #5
1000076d8: ad000540    	stp	q0, q1, [x10]
1000076dc: aa1803ea    	mov	x10, x24
1000076e0: 8b18168b    	add	x11, x20, x24, lsl #5
1000076e4: eb0b011f    	cmp	x8, x11
1000076e8: 54fffd83    	b.lo	0x100007698 <__ZN4core5slice4sort6stable9quicksort9quicksort17h07c2ad961e258bf6E+0x290>
1000076ec: 17fffff6    	b	0x1000076c4 <__ZN4core5slice4sort6stable9quicksort9quicksort17h07c2ad961e258bf6E+0x2bc>
1000076f0: d37beaa2    	lsl	x2, x21, #5
1000076f4: aa1403e0    	mov	x0, x20
1000076f8: aa1303e1    	mov	x1, x19
1000076fc: 9400badc    	bl	0x10003626c <dyld_stub_binder+0x10003626c>
100007700: 8b151680    	add	x0, x20, x21, lsl #5
100007704: eb150301    	subs	x1, x24, x21
100007708: 54000120    	b.eq	0x10000772c <__ZN4core5slice4sort6stable9quicksort9quicksort17h07c2ad961e258bf6E+0x324>
10000770c: f94007e8    	ldr	x8, [sp, #0x8]
100007710: 8b181508    	add	x8, x8, x24, lsl #5
100007714: aa0103e9    	mov	x9, x1
100007718: aa0003ea    	mov	x10, x0
10000771c: acff0500    	ldp	q0, q1, [x8], #-0x20
100007720: ac810540    	stp	q0, q1, [x10], #0x20
100007724: f1000529    	subs	x9, x9, #0x1
100007728: 54ffffa1    	b.ne	0x10000771c <__ZN4core5slice4sort6stable9quicksort9quicksort17h07c2ad961e258bf6E+0x314>
10000772c: b4000195    	cbz	x21, 0x10000775c <__ZN4core5slice4sort6stable9quicksort9quicksort17h07c2ad961e258bf6E+0x354>
100007730: eb15031f    	cmp	x24, x21
100007734: 54001963    	b.lo	0x100007a60 <__ZN4core5slice4sort6stable9quicksort9quicksort17h07c2ad961e258bf6E+0x658>
100007738: 910043e5    	add	x5, sp, #0x10
10000773c: aa1303e2    	mov	x2, x19
100007740: aa1603e3    	mov	x3, x22
100007744: aa1703e4    	mov	x4, x23
100007748: 97ffff30    	bl	0x100007408 <__ZN4core5slice4sort6stable9quicksort9quicksort17h07c2ad961e258bf6E>
10000774c: aa1503f8    	mov	x24, x21
100007750: f10086bf    	cmp	x21, #0x21
100007754: 54fff462    	b.hs	0x1000075e0 <__ZN4core5slice4sort6stable9quicksort9quicksort17h07c2ad961e258bf6E+0x1d8>
100007758: 17ffff3a    	b	0x100007440 <__ZN4core5slice4sort6stable9quicksort9quicksort17h07c2ad961e258bf6E+0x38>
10000775c: eb16031f    	cmp	x24, x22
100007760: 54001988    	b.hi	0x100007a90 <__ZN4core5slice4sort6stable9quicksort9quicksort17h07c2ad961e258bf6E+0x688>
100007764: d2800019    	mov	x25, #0x0               ; =0
100007768: aa1403e8    	mov	x8, x20
10000776c: 8b1a1689    	add	x9, x20, x26, lsl #5
100007770: eb09029f    	cmp	x20, x9
100007774: 54000182    	b.hs	0x1000077a4 <__ZN4core5slice4sort6stable9quicksort9quicksort17h07c2ad961e258bf6E+0x39c>
100007778: f940090a    	ldr	x10, [x8, #0x10]
10000777c: f841036b    	ldur	x11, [x27, #0x10]
100007780: d100839c    	sub	x28, x28, #0x20
100007784: eb0a017f    	cmp	x11, x10
100007788: 9a9c226a    	csel	x10, x19, x28, hs
10000778c: 8b19154a    	add	x10, x10, x25, lsl #5
100007790: acc10500    	ldp	q0, q1, [x8], #0x20
100007794: ad000540    	stp	q0, q1, [x10]
100007798: 9a993739    	cinc	x25, x25, hs
10000779c: eb09011f    	cmp	x8, x9
1000077a0: 54fffec3    	b.lo	0x100007778 <__ZN4core5slice4sort6stable9quicksort9quicksort17h07c2ad961e258bf6E+0x370>
1000077a4: eb18035f    	cmp	x26, x24
1000077a8: 54000160    	b.eq	0x1000077d4 <__ZN4core5slice4sort6stable9quicksort9quicksort17h07c2ad961e258bf6E+0x3cc>
1000077ac: d100839c    	sub	x28, x28, #0x20
1000077b0: acc10500    	ldp	q0, q1, [x8], #0x20
1000077b4: 8b191669    	add	x9, x19, x25, lsl #5
1000077b8: ad000520    	stp	q0, q1, [x9]
1000077bc: 91000739    	add	x25, x25, #0x1
1000077c0: aa1803fa    	mov	x26, x24
1000077c4: 8b181689    	add	x9, x20, x24, lsl #5
1000077c8: eb09011f    	cmp	x8, x9
1000077cc: 54fffd63    	b.lo	0x100007778 <__ZN4core5slice4sort6stable9quicksort9quicksort17h07c2ad961e258bf6E+0x370>
1000077d0: 17fffff5    	b	0x1000077a4 <__ZN4core5slice4sort6stable9quicksort9quicksort17h07c2ad961e258bf6E+0x39c>
1000077d4: d37beb22    	lsl	x2, x25, #5
1000077d8: aa1403e0    	mov	x0, x20
1000077dc: aa1303e1    	mov	x1, x19
1000077e0: 9400baa3    	bl	0x10003626c <dyld_stub_binder+0x10003626c>
1000077e4: 8b191694    	add	x20, x20, x25, lsl #5
1000077e8: eb190315    	subs	x21, x24, x25
1000077ec: 54000120    	b.eq	0x100007810 <__ZN4core5slice4sort6stable9quicksort9quicksort17h07c2ad961e258bf6E+0x408>
1000077f0: f94007e8    	ldr	x8, [sp, #0x8]
1000077f4: 8b181508    	add	x8, x8, x24, lsl #5
1000077f8: aa1503e9    	mov	x9, x21
1000077fc: aa1403ea    	mov	x10, x20
100007800: acff0500    	ldp	q0, q1, [x8], #-0x20
100007804: ac810540    	stp	q0, q1, [x10], #0x20
100007808: f1000529    	subs	x9, x9, #0x1
10000780c: 54ffffa1    	b.ne	0x100007800 <__ZN4core5slice4sort6stable9quicksort9quicksort17h07c2ad961e258bf6E+0x3f8>
100007810: eb19031f    	cmp	x24, x25
100007814: 54001403    	b.lo	0x100007a94 <__ZN4core5slice4sort6stable9quicksort9quicksort17h07c2ad961e258bf6E+0x68c>
100007818: d2800019    	mov	x25, #0x0               ; =0
10000781c: f10086bf    	cmp	x21, #0x21
100007820: 54ffede2    	b.hs	0x1000075dc <__ZN4core5slice4sort6stable9quicksort9quicksort17h07c2ad961e258bf6E+0x1d4>
100007824: 17ffff07    	b	0x100007440 <__ZN4core5slice4sort6stable9quicksort9quicksort17h07c2ad961e258bf6E+0x38>
100007828: aa1403e0    	mov	x0, x20
10000782c: aa1803e1    	mov	x1, x24
100007830: aa1303e2    	mov	x2, x19
100007834: aa1603e3    	mov	x3, x22
100007838: 52800024    	mov	w4, #0x1                ; =1
10000783c: 97fff811    	bl	0x100005880 <__ZN4core5slice4sort6stable5drift4sort17h17aa28f081c4a7a6E>
100007840: 14000080    	b	0x100007a40 <__ZN4core5slice4sort6stable9quicksort9quicksort17h07c2ad961e258bf6E+0x638>
100007844: ad400680    	ldp	q0, q1, [x20]
100007848: ad000660    	stp	q0, q1, [x19]
10000784c: 8b09028a    	add	x10, x20, x9
100007850: 8b09026b    	add	x11, x19, x9
100007854: ad400540    	ldp	q0, q1, [x10]
100007858: ad000560    	stp	q0, q1, [x11]
10000785c: 5280002b    	mov	w11, #0x1               ; =1
100007860: cb0802ac    	sub	x12, x21, x8
100007864: d37be96d    	lsl	x13, x11, #5
100007868: eb08017f    	cmp	x11, x8
10000786c: 54000422    	b.hs	0x1000078f0 <__ZN4core5slice4sort6stable9quicksort9quicksort17h07c2ad961e258bf6E+0x4e8>
100007870: aa0d03ea    	mov	x10, x13
100007874: aa0b03ee    	mov	x14, x11
100007878: 14000009    	b	0x10000789c <__ZN4core5slice4sort6stable9quicksort9quicksort17h07c2ad961e258bf6E+0x494>
10000787c: aa1303e1    	mov	x1, x19
100007880: 3dc001e0    	ldr	q0, [x15]
100007884: 3d800020    	str	q0, [x1]
100007888: a93f4410    	stp	x16, x17, [x0, #-0x10]
10000788c: 910005ce    	add	x14, x14, #0x1
100007890: 9100814a    	add	x10, x10, #0x20
100007894: eb0801df    	cmp	x14, x8
100007898: 540002c0    	b.eq	0x1000078f0 <__ZN4core5slice4sort6stable9quicksort9quicksort17h07c2ad961e258bf6E+0x4e8>
10000789c: d37be9d0    	lsl	x16, x14, #5
1000078a0: 8b10028f    	add	x15, x20, x16
1000078a4: 8b100271    	add	x17, x19, x16
1000078a8: ad4005e0    	ldp	q0, q1, [x15]
1000078ac: ad000620    	stp	q0, q1, [x17]
1000078b0: f9400a30    	ldr	x16, [x17, #0x10]
1000078b4: f85f0220    	ldur	x0, [x17, #-0x10]
1000078b8: eb00021f    	cmp	x16, x0
1000078bc: 54fffe82    	b.hs	0x10000788c <__ZN4core5slice4sort6stable9quicksort9quicksort17h07c2ad961e258bf6E+0x484>
1000078c0: f9400e31    	ldr	x17, [x17, #0x18]
1000078c4: aa0a03e1    	mov	x1, x10
1000078c8: 8b010260    	add	x0, x19, x1
1000078cc: ad7f0400    	ldp	q0, q1, [x0, #-0x20]
1000078d0: ad000400    	stp	q0, q1, [x0]
1000078d4: f1008021    	subs	x1, x1, #0x20
1000078d8: 54fffd20    	b.eq	0x10000787c <__ZN4core5slice4sort6stable9quicksort9quicksort17h07c2ad961e258bf6E+0x474>
1000078dc: f85d0002    	ldur	x2, [x0, #-0x30]
1000078e0: eb02021f    	cmp	x16, x2
1000078e4: 54ffff23    	b.lo	0x1000078c8 <__ZN4core5slice4sort6stable9quicksort9quicksort17h07c2ad961e258bf6E+0x4c0>
1000078e8: 8b010261    	add	x1, x19, x1
1000078ec: 17ffffe5    	b	0x100007880 <__ZN4core5slice4sort6stable9quicksort9quicksort17h07c2ad961e258bf6E+0x478>
1000078f0: 8b09026a    	add	x10, x19, x9
1000078f4: eb0c017f    	cmp	x11, x12
1000078f8: 540004c2    	b.hs	0x100007990 <__ZN4core5slice4sort6stable9quicksort9quicksort17h07c2ad961e258bf6E+0x588>
1000078fc: 8b090289    	add	x9, x20, x9
100007900: 5280040e    	mov	w14, #0x20              ; =32
100007904: aa0a03ef    	mov	x15, x10
100007908: 1400000a    	b	0x100007930 <__ZN4core5slice4sort6stable9quicksort9quicksort17h07c2ad961e258bf6E+0x528>
10000790c: aa0a03e2    	mov	x2, x10
100007910: 3dc00200    	ldr	q0, [x16]
100007914: 3d800040    	str	q0, [x2]
100007918: a93f0031    	stp	x17, x0, [x1, #-0x10]
10000791c: 9100056b    	add	x11, x11, #0x1
100007920: d10081ce    	sub	x14, x14, #0x20
100007924: 910081ef    	add	x15, x15, #0x20
100007928: eb0c017f    	cmp	x11, x12
10000792c: 54000320    	b.eq	0x100007990 <__ZN4core5slice4sort6stable9quicksort9quicksort17h07c2ad961e258bf6E+0x588>
100007930: d37be971    	lsl	x17, x11, #5
100007934: 8b110130    	add	x16, x9, x17
100007938: 8b110140    	add	x0, x10, x17
10000793c: ad400600    	ldp	q0, q1, [x16]
100007940: ad000400    	stp	q0, q1, [x0]
100007944: f9400811    	ldr	x17, [x0, #0x10]
100007948: f85f0001    	ldur	x1, [x0, #-0x10]
10000794c: eb01023f    	cmp	x17, x1
100007950: 54fffe62    	b.hs	0x10000791c <__ZN4core5slice4sort6stable9quicksort9quicksort17h07c2ad961e258bf6E+0x514>
100007954: f9400c00    	ldr	x0, [x0, #0x18]
100007958: aa0f03e2    	mov	x2, x15
10000795c: aa0e03e3    	mov	x3, x14
100007960: 8b0d0041    	add	x1, x2, x13
100007964: ad7f0420    	ldp	q0, q1, [x1, #-0x20]
100007968: ad000420    	stp	q0, q1, [x1]
10000796c: eb0301bf    	cmp	x13, x3
100007970: 54fffce0    	b.eq	0x10000790c <__ZN4core5slice4sort6stable9quicksort9quicksort17h07c2ad961e258bf6E+0x504>
100007974: f85d0024    	ldur	x4, [x1, #-0x30]
100007978: 91008063    	add	x3, x3, #0x20
10000797c: d1008042    	sub	x2, x2, #0x20
100007980: eb04023f    	cmp	x17, x4
100007984: 54fffee3    	b.lo	0x100007960 <__ZN4core5slice4sort6stable9quicksort9quicksort17h07c2ad961e258bf6E+0x558>
100007988: 8b0d0042    	add	x2, x2, x13
10000798c: 17ffffe1    	b	0x100007910 <__ZN4core5slice4sort6stable9quicksort9quicksort17h07c2ad961e258bf6E+0x508>
100007990: d100814c    	sub	x12, x10, #0x20
100007994: d37beab6    	lsl	x22, x21, #5
100007998: d10082ce    	sub	x14, x22, #0x20
10000799c: 8b0e026d    	add	x13, x19, x14
1000079a0: aa1303e9    	mov	x9, x19
1000079a4: aa1403eb    	mov	x11, x20
1000079a8: 8b0e028f    	add	x15, x20, x14
1000079ac: f9400950    	ldr	x16, [x10, #0x10]
1000079b0: f9400931    	ldr	x17, [x9, #0x10]
1000079b4: eb11021f    	cmp	x16, x17
1000079b8: 9a893150    	csel	x16, x10, x9, lo
1000079bc: 1a9f37f1    	cset	w17, hs
1000079c0: 1a9f27e0    	cset	w0, lo
1000079c4: ad400600    	ldp	q0, q1, [x16]
1000079c8: ac810560    	stp	q0, q1, [x11], #0x20
1000079cc: 8b00154a    	add	x10, x10, x0, lsl #5
1000079d0: 8b111529    	add	x9, x9, x17, lsl #5
1000079d4: f94009b0    	ldr	x16, [x13, #0x10]
1000079d8: f9400991    	ldr	x17, [x12, #0x10]
1000079dc: eb11021f    	cmp	x16, x17
1000079e0: 9a8d3190    	csel	x16, x12, x13, lo
1000079e4: ad400600    	ldp	q0, q1, [x16]
1000079e8: ad0005e0    	stp	q0, q1, [x15]
1000079ec: da9f33ef    	csetm	x15, hs
1000079f0: 8b0f15ad    	add	x13, x13, x15, lsl #5
1000079f4: da9f23ef    	csetm	x15, lo
1000079f8: 8b0f158c    	add	x12, x12, x15, lsl #5
1000079fc: d10081ce    	sub	x14, x14, #0x20
100007a00: f1000508    	subs	x8, x8, #0x1
100007a04: 54fffd21    	b.ne	0x1000079a8 <__ZN4core5slice4sort6stable9quicksort9quicksort17h07c2ad961e258bf6E+0x5a0>
100007a08: 91008188    	add	x8, x12, #0x20
100007a0c: 910081ac    	add	x12, x13, #0x20
100007a10: 36000135    	tbz	w21, #0x0, 0x100007a34 <__ZN4core5slice4sort6stable9quicksort9quicksort17h07c2ad961e258bf6E+0x62c>
100007a14: eb08013f    	cmp	x9, x8
100007a18: 9a8a312d    	csel	x13, x9, x10, lo
100007a1c: 1a9f37ee    	cset	w14, hs
100007a20: 1a9f27ef    	cset	w15, lo
100007a24: ad4005a0    	ldp	q0, q1, [x13]
100007a28: ad000560    	stp	q0, q1, [x11]
100007a2c: 8b0f1529    	add	x9, x9, x15, lsl #5
100007a30: 8b0e154a    	add	x10, x10, x14, lsl #5
100007a34: eb08013f    	cmp	x9, x8
100007a38: fa4c0140    	ccmp	x10, x12, #0x0, eq
100007a3c: 54000281    	b.ne	0x100007a8c <__ZN4core5slice4sort6stable9quicksort9quicksort17h07c2ad961e258bf6E+0x684>
100007a40: a94b7bfd    	ldp	x29, x30, [sp, #0xb0]
100007a44: a94a4ff4    	ldp	x20, x19, [sp, #0xa0]
100007a48: a94957f6    	ldp	x22, x21, [sp, #0x90]
100007a4c: a9485ff8    	ldp	x24, x23, [sp, #0x80]
100007a50: a94767fa    	ldp	x26, x25, [sp, #0x70]
100007a54: a9466ffc    	ldp	x28, x27, [sp, #0x60]
100007a58: 910303ff    	add	sp, sp, #0xc0
100007a5c: d65f03c0    	ret
100007a60: b00001e8    	adrp	x8, 0x100044000 <dyld_stub_binder+0x100044000>
100007a64: 91036108    	add	x8, x8, #0xd8
100007a68: 52800029    	mov	w9, #0x1                ; =1
100007a6c: a90327e8    	stp	x8, x9, [sp, #0x30]
100007a70: 52800108    	mov	w8, #0x8                ; =8
100007a74: a904ffff    	stp	xzr, xzr, [sp, #0x48]
100007a78: f90023e8    	str	x8, [sp, #0x40]
100007a7c: b00001e1    	adrp	x1, 0x100044000 <dyld_stub_binder+0x100044000>
100007a80: 9103a021    	add	x1, x1, #0xe8
100007a84: 9100c3e0    	add	x0, sp, #0x30
100007a88: 9400b894    	bl	0x100035cd8 <__ZN4core9panicking9panic_fmt17ha0f8363f677e0181E>
100007a8c: 9400b94e    	bl	0x100035fc4 <__ZN4core5slice4sort6shared9smallsort22panic_on_ord_violation17hde5e51e040c58445E>
100007a90: d4200020    	brk	#0x1
100007a94: b00001e2    	adrp	x2, 0x100044000 <dyld_stub_binder+0x100044000>
100007a98: 91040042    	add	x2, x2, #0x100
100007a9c: aa1903e0    	mov	x0, x25
100007aa0: aa1803e1    	mov	x1, x24
100007aa4: 9400b956    	bl	0x100035ffc <__ZN4core5slice5index26slice_start_index_len_fail17hb941cdec3696e1afE>
100007aa8: aa0003f5    	mov	x21, x0
100007aac: aa1403e0    	mov	x0, x20
100007ab0: aa1303e1    	mov	x1, x19
100007ab4: aa1603e2    	mov	x2, x22
100007ab8: 9400b9ed    	bl	0x10003626c <dyld_stub_binder+0x10003626c>
100007abc: aa1503e0    	mov	x0, x21
100007ac0: 9400b99d    	bl	0x100036134 <dyld_stub_binder+0x100036134>

0000000100007ac4 <__ZN4core5slice4sort6stable9quicksort9quicksort17h241fe5fae56b035cE>:
100007ac4: d102c3ff    	sub	sp, sp, #0xb0
100007ac8: a9056ffc    	stp	x28, x27, [sp, #0x50]
100007acc: a90667fa    	stp	x26, x25, [sp, #0x60]
100007ad0: a9075ff8    	stp	x24, x23, [sp, #0x70]
100007ad4: a90857f6    	stp	x22, x21, [sp, #0x80]
100007ad8: a9094ff4    	stp	x20, x19, [sp, #0x90]
100007adc: a90a7bfd    	stp	x29, x30, [sp, #0xa0]
100007ae0: 910283fd    	add	x29, sp, #0xa0
100007ae4: aa0303f6    	mov	x22, x3
100007ae8: aa0203f3    	mov	x19, x2
100007aec: aa0103f5    	mov	x21, x1
100007af0: aa0003f4    	mov	x20, x0
100007af4: f100843f    	cmp	x1, #0x21
100007af8: 54000322    	b.hs	0x100007b5c <__ZN4core5slice4sort6stable9quicksort9quicksort17h241fe5fae56b035cE+0x98>
100007afc: f1000abf    	cmp	x21, #0x2
100007b00: 54003ae3    	b.lo	0x10000825c <__ZN4core5slice4sort6stable9quicksort9quicksort17h241fe5fae56b035cE+0x798>
100007b04: 910042a8    	add	x8, x21, #0x10
100007b08: eb16011f    	cmp	x8, x22
100007b0c: 54003d08    	b.hi	0x1000082ac <__ZN4core5slice4sort6stable9quicksort9quicksort17h241fe5fae56b035cE+0x7e8>
100007b10: d341feb7    	lsr	x23, x21, #1
100007b14: d37ceef8    	lsl	x24, x23, #4
100007b18: f1003ebf    	cmp	x21, #0xf
100007b1c: 54002049    	b.ls	0x100007f24 <__ZN4core5slice4sort6stable9quicksort9quicksort17h241fe5fae56b035cE+0x460>
100007b20: 8b151276    	add	x22, x19, x21, lsl #4
100007b24: aa1403e0    	mov	x0, x20
100007b28: aa1303e1    	mov	x1, x19
100007b2c: aa1603e2    	mov	x2, x22
100007b30: 97ffef7a    	bl	0x100003918 <__ZN4core5slice4sort6shared9smallsort12sort8_stable17hf478b6ba5da5b2eeE>
100007b34: 8b180280    	add	x0, x20, x24
100007b38: 8b180261    	add	x1, x19, x24
100007b3c: 910202c2    	add	x2, x22, #0x80
100007b40: 97ffef76    	bl	0x100003918 <__ZN4core5slice4sort6shared9smallsort12sort8_stable17hf478b6ba5da5b2eeE>
100007b44: 52800109    	mov	w9, #0x8                ; =8
100007b48: cb1702aa    	sub	x10, x21, x23
100007b4c: d37ced2b    	lsl	x11, x9, #4
100007b50: eb17013f    	cmp	x9, x23
100007b54: 54002aa3    	b.lo	0x1000080a8 <__ZN4core5slice4sort6stable9quicksort9quicksort17h241fe5fae56b035cE+0x5e4>
100007b58: 14000171    	b	0x10000811c <__ZN4core5slice4sort6stable9quicksort9quicksort17h241fe5fae56b035cE+0x658>
100007b5c: aa0503fa    	mov	x26, x5
100007b60: aa0403f7    	mov	x23, x4
100007b64: d1004268    	sub	x8, x19, #0x10
100007b68: f90007e8    	str	x8, [sp, #0x8]
100007b6c: aa1503f8    	mov	x24, x21
100007b70: 34001cd7    	cbz	w23, 0x100007f08 <__ZN4core5slice4sort6stable9quicksort9quicksort17h241fe5fae56b035cE+0x444>
100007b74: d343ff03    	lsr	x3, x24, #3
100007b78: 8b031a81    	add	x1, x20, x3, lsl #6
100007b7c: 52800e08    	mov	w8, #0x70               ; =112
100007b80: 9b085062    	madd	x2, x3, x8, x20
100007b84: f101031f    	cmp	x24, #0x40
100007b88: 54000222    	b.hs	0x100007bcc <__ZN4core5slice4sort6stable9quicksort9quicksort17h241fe5fae56b035cE+0x108>
100007b8c: f9400288    	ldr	x8, [x20]
100007b90: f9400029    	ldr	x9, [x1]
100007b94: eb09011f    	cmp	x8, x9
100007b98: 1a9f27ea    	cset	w10, lo
100007b9c: f940004b    	ldr	x11, [x2]
100007ba0: eb0b011f    	cmp	x8, x11
100007ba4: 1a9f27e8    	cset	w8, lo
100007ba8: 4a080148    	eor	w8, w10, w8
100007bac: eb0b013f    	cmp	x9, x11
100007bb0: 1a9f27e9    	cset	w9, lo
100007bb4: 4a090149    	eor	w9, w10, w9
100007bb8: 7100013f    	cmp	w9, #0x0
100007bbc: 9a811049    	csel	x9, x2, x1, ne
100007bc0: 7100011f    	cmp	w8, #0x0
100007bc4: 9a891299    	csel	x25, x20, x9, ne
100007bc8: 14000004    	b	0x100007bd8 <__ZN4core5slice4sort6stable9quicksort9quicksort17h241fe5fae56b035cE+0x114>
100007bcc: aa1403e0    	mov	x0, x20
100007bd0: 97ffed3c    	bl	0x1000030c0 <__ZN4core5slice4sort6shared5pivot11median3_rec17h4cfb8946b74501f6E>
100007bd4: aa0003f9    	mov	x25, x0
100007bd8: 510006f7    	sub	w23, w23, #0x1
100007bdc: cb140328    	sub	x8, x25, x20
100007be0: d344fd1b    	lsr	x27, x8, #4
100007be4: 3dc00320    	ldr	q0, [x25]
100007be8: 3d8007e0    	str	q0, [sp, #0x10]
100007bec: 8b18127c    	add	x28, x19, x24, lsl #4
100007bf0: b40000ba    	cbz	x26, 0x100007c04 <__ZN4core5slice4sort6stable9quicksort9quicksort17h241fe5fae56b035cE+0x140>
100007bf4: f9400348    	ldr	x8, [x26]
100007bf8: 9e660009    	fmov	x9, d0
100007bfc: eb09011f    	cmp	x8, x9
100007c00: 54000ca2    	b.hs	0x100007d94 <__ZN4core5slice4sort6stable9quicksort9quicksort17h241fe5fae56b035cE+0x2d0>
100007c04: eb16031f    	cmp	x24, x22
100007c08: 54003528    	b.hi	0x1000082ac <__ZN4core5slice4sort6stable9quicksort9quicksort17h241fe5fae56b035cE+0x7e8>
100007c0c: d2800015    	mov	x21, #0x0               ; =0
100007c10: aa1403e9    	mov	x9, x20
100007c14: aa1c03e8    	mov	x8, x28
100007c18: aa1b03ea    	mov	x10, x27
100007c1c: f1000f6b    	subs	x11, x27, #0x3
100007c20: 9a8b33eb    	csel	x11, xzr, x11, lo
100007c24: 8b0b128b    	add	x11, x20, x11, lsl #4
100007c28: eb0b029f    	cmp	x20, x11
100007c2c: 54000482    	b.hs	0x100007cbc <__ZN4core5slice4sort6stable9quicksort9quicksort17h241fe5fae56b035cE+0x1f8>
100007c30: f940012c    	ldr	x12, [x9]
100007c34: f940032d    	ldr	x13, [x25]
100007c38: d100410e    	sub	x14, x8, #0x10
100007c3c: eb0d019f    	cmp	x12, x13
100007c40: 9a8e326c    	csel	x12, x19, x14, lo
100007c44: 3dc00120    	ldr	q0, [x9]
100007c48: 3cb57980    	str	q0, [x12, x21, lsl #4]
100007c4c: 9a9526ac    	cinc	x12, x21, lo
100007c50: f940092d    	ldr	x13, [x9, #0x10]
100007c54: f940032e    	ldr	x14, [x25]
100007c58: d100810f    	sub	x15, x8, #0x20
100007c5c: eb0e01bf    	cmp	x13, x14
100007c60: 9a8f326d    	csel	x13, x19, x15, lo
100007c64: 3dc00520    	ldr	q0, [x9, #0x10]
100007c68: 3cac79a0    	str	q0, [x13, x12, lsl #4]
100007c6c: 9a8c258c    	cinc	x12, x12, lo
100007c70: f940112d    	ldr	x13, [x9, #0x20]
100007c74: f940032e    	ldr	x14, [x25]
100007c78: d100c10f    	sub	x15, x8, #0x30
100007c7c: eb0e01bf    	cmp	x13, x14
100007c80: 9a8f326d    	csel	x13, x19, x15, lo
100007c84: 3dc00920    	ldr	q0, [x9, #0x20]
100007c88: 3cac79a0    	str	q0, [x13, x12, lsl #4]
100007c8c: 9a8c258c    	cinc	x12, x12, lo
100007c90: f940192d    	ldr	x13, [x9, #0x30]
100007c94: f940032e    	ldr	x14, [x25]
100007c98: d1010108    	sub	x8, x8, #0x40
100007c9c: eb0e01bf    	cmp	x13, x14
100007ca0: 9a88326d    	csel	x13, x19, x8, lo
100007ca4: 3dc00d20    	ldr	q0, [x9, #0x30]
100007ca8: 3cac79a0    	str	q0, [x13, x12, lsl #4]
100007cac: 9a8c2595    	cinc	x21, x12, lo
100007cb0: 91010129    	add	x9, x9, #0x40
100007cb4: eb0b013f    	cmp	x9, x11
100007cb8: 54fffbc3    	b.lo	0x100007c30 <__ZN4core5slice4sort6stable9quicksort9quicksort17h241fe5fae56b035cE+0x16c>
100007cbc: 8b0a128b    	add	x11, x20, x10, lsl #4
100007cc0: eb0b013f    	cmp	x9, x11
100007cc4: 540001a2    	b.hs	0x100007cf8 <__ZN4core5slice4sort6stable9quicksort9quicksort17h241fe5fae56b035cE+0x234>
100007cc8: 3dc00120    	ldr	q0, [x9]
100007ccc: aa0903ec    	mov	x12, x9
100007cd0: f8410589    	ldr	x9, [x12], #0x10
100007cd4: f940032d    	ldr	x13, [x25]
100007cd8: d1004108    	sub	x8, x8, #0x10
100007cdc: eb0d013f    	cmp	x9, x13
100007ce0: 9a883269    	csel	x9, x19, x8, lo
100007ce4: 3cb57920    	str	q0, [x9, x21, lsl #4]
100007ce8: 9a9526b5    	cinc	x21, x21, lo
100007cec: aa0c03e9    	mov	x9, x12
100007cf0: eb0b019f    	cmp	x12, x11
100007cf4: 54fffea3    	b.lo	0x100007cc8 <__ZN4core5slice4sort6stable9quicksort9quicksort17h241fe5fae56b035cE+0x204>
100007cf8: eb18015f    	cmp	x10, x24
100007cfc: 54000160    	b.eq	0x100007d28 <__ZN4core5slice4sort6stable9quicksort9quicksort17h241fe5fae56b035cE+0x264>
100007d00: d1004108    	sub	x8, x8, #0x10
100007d04: 3cc10520    	ldr	q0, [x9], #0x10
100007d08: 3cb57900    	str	q0, [x8, x21, lsl #4]
100007d0c: aa1803ea    	mov	x10, x24
100007d10: f1000f0b    	subs	x11, x24, #0x3
100007d14: 9a8b33eb    	csel	x11, xzr, x11, lo
100007d18: 8b0b128b    	add	x11, x20, x11, lsl #4
100007d1c: eb0b013f    	cmp	x9, x11
100007d20: 54fff883    	b.lo	0x100007c30 <__ZN4core5slice4sort6stable9quicksort9quicksort17h241fe5fae56b035cE+0x16c>
100007d24: 17ffffe6    	b	0x100007cbc <__ZN4core5slice4sort6stable9quicksort9quicksort17h241fe5fae56b035cE+0x1f8>
100007d28: d37ceea2    	lsl	x2, x21, #4
100007d2c: aa1403e0    	mov	x0, x20
100007d30: aa1303e1    	mov	x1, x19
100007d34: 9400b94e    	bl	0x10003626c <dyld_stub_binder+0x10003626c>
100007d38: 8b151280    	add	x0, x20, x21, lsl #4
100007d3c: eb150301    	subs	x1, x24, x21
100007d40: 54000120    	b.eq	0x100007d64 <__ZN4core5slice4sort6stable9quicksort9quicksort17h241fe5fae56b035cE+0x2a0>
100007d44: f94007e8    	ldr	x8, [sp, #0x8]
100007d48: 8b181108    	add	x8, x8, x24, lsl #4
100007d4c: aa0103e9    	mov	x9, x1
100007d50: aa0003ea    	mov	x10, x0
100007d54: 3cdf0500    	ldr	q0, [x8], #-0x10
100007d58: 3c810540    	str	q0, [x10], #0x10
100007d5c: f1000529    	subs	x9, x9, #0x1
100007d60: 54ffffa1    	b.ne	0x100007d54 <__ZN4core5slice4sort6stable9quicksort9quicksort17h241fe5fae56b035cE+0x290>
100007d64: b4000195    	cbz	x21, 0x100007d94 <__ZN4core5slice4sort6stable9quicksort9quicksort17h241fe5fae56b035cE+0x2d0>
100007d68: eb15031f    	cmp	x24, x21
100007d6c: 54002883    	b.lo	0x10000827c <__ZN4core5slice4sort6stable9quicksort9quicksort17h241fe5fae56b035cE+0x7b8>
100007d70: 910043e5    	add	x5, sp, #0x10
100007d74: aa1303e2    	mov	x2, x19
100007d78: aa1603e3    	mov	x3, x22
100007d7c: aa1703e4    	mov	x4, x23
100007d80: 97ffff51    	bl	0x100007ac4 <__ZN4core5slice4sort6stable9quicksort9quicksort17h241fe5fae56b035cE>
100007d84: aa1503f8    	mov	x24, x21
100007d88: f10086bf    	cmp	x21, #0x21
100007d8c: 54ffef22    	b.hs	0x100007b70 <__ZN4core5slice4sort6stable9quicksort9quicksort17h241fe5fae56b035cE+0xac>
100007d90: 17ffff5b    	b	0x100007afc <__ZN4core5slice4sort6stable9quicksort9quicksort17h241fe5fae56b035cE+0x38>
100007d94: eb16031f    	cmp	x24, x22
100007d98: 540028a8    	b.hi	0x1000082ac <__ZN4core5slice4sort6stable9quicksort9quicksort17h241fe5fae56b035cE+0x7e8>
100007d9c: d280001a    	mov	x26, #0x0               ; =0
100007da0: aa1403e8    	mov	x8, x20
100007da4: f1000f69    	subs	x9, x27, #0x3
100007da8: 9a8933e9    	csel	x9, xzr, x9, lo
100007dac: 8b091289    	add	x9, x20, x9, lsl #4
100007db0: eb09029f    	cmp	x20, x9
100007db4: 54000482    	b.hs	0x100007e44 <__ZN4core5slice4sort6stable9quicksort9quicksort17h241fe5fae56b035cE+0x380>
100007db8: f940010a    	ldr	x10, [x8]
100007dbc: f940032b    	ldr	x11, [x25]
100007dc0: d100438c    	sub	x12, x28, #0x10
100007dc4: eb0a017f    	cmp	x11, x10
100007dc8: 9a8c226a    	csel	x10, x19, x12, hs
100007dcc: 3dc00100    	ldr	q0, [x8]
100007dd0: 3cba7940    	str	q0, [x10, x26, lsl #4]
100007dd4: 9a9a374a    	cinc	x10, x26, hs
100007dd8: f940090b    	ldr	x11, [x8, #0x10]
100007ddc: f940032c    	ldr	x12, [x25]
100007de0: d100838d    	sub	x13, x28, #0x20
100007de4: eb0b019f    	cmp	x12, x11
100007de8: 9a8d226b    	csel	x11, x19, x13, hs
100007dec: 3dc00500    	ldr	q0, [x8, #0x10]
100007df0: 3caa7960    	str	q0, [x11, x10, lsl #4]
100007df4: 9a8a354a    	cinc	x10, x10, hs
100007df8: f940110b    	ldr	x11, [x8, #0x20]
100007dfc: f940032c    	ldr	x12, [x25]
100007e00: d100c38d    	sub	x13, x28, #0x30
100007e04: eb0b019f    	cmp	x12, x11
100007e08: 9a8d226b    	csel	x11, x19, x13, hs
100007e0c: 3dc00900    	ldr	q0, [x8, #0x20]
100007e10: 3caa7960    	str	q0, [x11, x10, lsl #4]
100007e14: 9a8a354a    	cinc	x10, x10, hs
100007e18: f940190b    	ldr	x11, [x8, #0x30]
100007e1c: f940032c    	ldr	x12, [x25]
100007e20: d101039c    	sub	x28, x28, #0x40
100007e24: eb0b019f    	cmp	x12, x11
100007e28: 9a9c226b    	csel	x11, x19, x28, hs
100007e2c: 3dc00d00    	ldr	q0, [x8, #0x30]
100007e30: 3caa7960    	str	q0, [x11, x10, lsl #4]
100007e34: 9a8a355a    	cinc	x26, x10, hs
100007e38: 91010108    	add	x8, x8, #0x40
100007e3c: eb09011f    	cmp	x8, x9
100007e40: 54fffbc3    	b.lo	0x100007db8 <__ZN4core5slice4sort6stable9quicksort9quicksort17h241fe5fae56b035cE+0x2f4>
100007e44: 8b1b1289    	add	x9, x20, x27, lsl #4
100007e48: eb09011f    	cmp	x8, x9
100007e4c: 540001a2    	b.hs	0x100007e80 <__ZN4core5slice4sort6stable9quicksort9quicksort17h241fe5fae56b035cE+0x3bc>
100007e50: 3dc00100    	ldr	q0, [x8]
100007e54: aa0803ea    	mov	x10, x8
100007e58: f8410548    	ldr	x8, [x10], #0x10
100007e5c: f940032b    	ldr	x11, [x25]
100007e60: d100439c    	sub	x28, x28, #0x10
100007e64: eb08017f    	cmp	x11, x8
100007e68: 9a9c2268    	csel	x8, x19, x28, hs
100007e6c: 3cba7900    	str	q0, [x8, x26, lsl #4]
100007e70: 9a9a375a    	cinc	x26, x26, hs
100007e74: aa0a03e8    	mov	x8, x10
100007e78: eb09015f    	cmp	x10, x9
100007e7c: 54fffea3    	b.lo	0x100007e50 <__ZN4core5slice4sort6stable9quicksort9quicksort17h241fe5fae56b035cE+0x38c>
100007e80: eb18037f    	cmp	x27, x24
100007e84: 54000180    	b.eq	0x100007eb4 <__ZN4core5slice4sort6stable9quicksort9quicksort17h241fe5fae56b035cE+0x3f0>
100007e88: d100439c    	sub	x28, x28, #0x10
100007e8c: 3cc10500    	ldr	q0, [x8], #0x10
100007e90: 3cba7a60    	str	q0, [x19, x26, lsl #4]
100007e94: 9100075a    	add	x26, x26, #0x1
100007e98: aa1803fb    	mov	x27, x24
100007e9c: f1000f09    	subs	x9, x24, #0x3
100007ea0: 9a8933e9    	csel	x9, xzr, x9, lo
100007ea4: 8b091289    	add	x9, x20, x9, lsl #4
100007ea8: eb09011f    	cmp	x8, x9
100007eac: 54fff863    	b.lo	0x100007db8 <__ZN4core5slice4sort6stable9quicksort9quicksort17h241fe5fae56b035cE+0x2f4>
100007eb0: 17ffffe5    	b	0x100007e44 <__ZN4core5slice4sort6stable9quicksort9quicksort17h241fe5fae56b035cE+0x380>
100007eb4: d37cef42    	lsl	x2, x26, #4
100007eb8: aa1403e0    	mov	x0, x20
100007ebc: aa1303e1    	mov	x1, x19
100007ec0: 9400b8eb    	bl	0x10003626c <dyld_stub_binder+0x10003626c>
100007ec4: 8b1a1294    	add	x20, x20, x26, lsl #4
100007ec8: eb1a0315    	subs	x21, x24, x26
100007ecc: 54000120    	b.eq	0x100007ef0 <__ZN4core5slice4sort6stable9quicksort9quicksort17h241fe5fae56b035cE+0x42c>
100007ed0: f94007e8    	ldr	x8, [sp, #0x8]
100007ed4: 8b181108    	add	x8, x8, x24, lsl #4
100007ed8: aa1503e9    	mov	x9, x21
100007edc: aa1403ea    	mov	x10, x20
100007ee0: 3cdf0500    	ldr	q0, [x8], #-0x10
100007ee4: 3c810540    	str	q0, [x10], #0x10
100007ee8: f1000529    	subs	x9, x9, #0x1
100007eec: 54ffffa1    	b.ne	0x100007ee0 <__ZN4core5slice4sort6stable9quicksort9quicksort17h241fe5fae56b035cE+0x41c>
100007ef0: eb1a031f    	cmp	x24, x26
100007ef4: 54001de3    	b.lo	0x1000082b0 <__ZN4core5slice4sort6stable9quicksort9quicksort17h241fe5fae56b035cE+0x7ec>
100007ef8: d280001a    	mov	x26, #0x0               ; =0
100007efc: f10086bf    	cmp	x21, #0x21
100007f00: 54ffe362    	b.hs	0x100007b6c <__ZN4core5slice4sort6stable9quicksort9quicksort17h241fe5fae56b035cE+0xa8>
100007f04: 17fffefe    	b	0x100007afc <__ZN4core5slice4sort6stable9quicksort9quicksort17h241fe5fae56b035cE+0x38>
100007f08: aa1403e0    	mov	x0, x20
100007f0c: aa1803e1    	mov	x1, x24
100007f10: aa1303e2    	mov	x2, x19
100007f14: aa1603e3    	mov	x3, x22
100007f18: 52800024    	mov	w4, #0x1                ; =1
100007f1c: 97fff92f    	bl	0x1000063d8 <__ZN4core5slice4sort6stable5drift4sort17haed293010cbdd2caE>
100007f20: 140000cf    	b	0x10000825c <__ZN4core5slice4sort6stable9quicksort9quicksort17h241fe5fae56b035cE+0x798>
100007f24: f1001ebf    	cmp	x21, #0x7
100007f28: 54000ae9    	b.ls	0x100008084 <__ZN4core5slice4sort6stable9quicksort9quicksort17h241fe5fae56b035cE+0x5c0>
100007f2c: f9400a88    	ldr	x8, [x20, #0x10]
100007f30: f9400289    	ldr	x9, [x20]
100007f34: eb09011f    	cmp	x8, x9
100007f38: 1a9f37e8    	cset	w8, hs
100007f3c: 1a9f27e9    	cset	w9, lo
100007f40: f9401a8a    	ldr	x10, [x20, #0x30]
100007f44: f940128b    	ldr	x11, [x20, #0x20]
100007f48: 8b295289    	add	x9, x20, w9, uxtw #4
100007f4c: 8b285288    	add	x8, x20, w8, uxtw #4
100007f50: 5280040c    	mov	w12, #0x20              ; =32
100007f54: 5280060d    	mov	w13, #0x30              ; =48
100007f58: eb0b015f    	cmp	x10, x11
100007f5c: 9a8c31aa    	csel	x10, x13, x12, lo
100007f60: 8b0a028a    	add	x10, x20, x10
100007f64: 9a8d318b    	csel	x11, x12, x13, lo
100007f68: 8b0b028b    	add	x11, x20, x11
100007f6c: f940014e    	ldr	x14, [x10]
100007f70: f940012f    	ldr	x15, [x9]
100007f74: f9400170    	ldr	x16, [x11]
100007f78: f9400111    	ldr	x17, [x8]
100007f7c: eb11021f    	cmp	x16, x17
100007f80: 9a883140    	csel	x0, x10, x8, lo
100007f84: eb0f01df    	cmp	x14, x15
100007f88: 9a89314e    	csel	x14, x10, x9, lo
100007f8c: 9a803129    	csel	x9, x9, x0, lo
100007f90: 9a8a310a    	csel	x10, x8, x10, lo
100007f94: eb11021f    	cmp	x16, x17
100007f98: 9a8b3108    	csel	x8, x8, x11, lo
100007f9c: 9a8a316a    	csel	x10, x11, x10, lo
100007fa0: f940014b    	ldr	x11, [x10]
100007fa4: f940012f    	ldr	x15, [x9]
100007fa8: eb0f017f    	cmp	x11, x15
100007fac: 9a89314b    	csel	x11, x10, x9, lo
100007fb0: 9a8a3129    	csel	x9, x9, x10, lo
100007fb4: 3dc001c0    	ldr	q0, [x14]
100007fb8: 3dc00161    	ldr	q1, [x11]
100007fbc: ad000660    	stp	q0, q1, [x19]
100007fc0: 3dc00120    	ldr	q0, [x9]
100007fc4: 3dc00101    	ldr	q1, [x8]
100007fc8: ad010660    	stp	q0, q1, [x19, #0x20]
100007fcc: 8b180288    	add	x8, x20, x24
100007fd0: f9400909    	ldr	x9, [x8, #0x10]
100007fd4: f940010a    	ldr	x10, [x8]
100007fd8: eb0a013f    	cmp	x9, x10
100007fdc: 1a9f37e9    	cset	w9, hs
100007fe0: 1a9f27ea    	cset	w10, lo
100007fe4: f940190b    	ldr	x11, [x8, #0x30]
100007fe8: f940110e    	ldr	x14, [x8, #0x20]
100007fec: eb0e017f    	cmp	x11, x14
100007ff0: 9a8c31ab    	csel	x11, x13, x12, lo
100007ff4: 8b0b010b    	add	x11, x8, x11
100007ff8: 8b2a510a    	add	x10, x8, w10, uxtw #4
100007ffc: 8b295109    	add	x9, x8, w9, uxtw #4
100008000: 9a8d318c    	csel	x12, x12, x13, lo
100008004: 8b0c0108    	add	x8, x8, x12
100008008: f940016c    	ldr	x12, [x11]
10000800c: f940014d    	ldr	x13, [x10]
100008010: f940010e    	ldr	x14, [x8]
100008014: f940012f    	ldr	x15, [x9]
100008018: eb0f01df    	cmp	x14, x15
10000801c: 9a893170    	csel	x16, x11, x9, lo
100008020: eb0d019f    	cmp	x12, x13
100008024: 9a8a316c    	csel	x12, x11, x10, lo
100008028: 9a90314a    	csel	x10, x10, x16, lo
10000802c: 9a8b312b    	csel	x11, x9, x11, lo
100008030: 8b18026d    	add	x13, x19, x24
100008034: eb0f01df    	cmp	x14, x15
100008038: 9a883129    	csel	x9, x9, x8, lo
10000803c: 9a8b3108    	csel	x8, x8, x11, lo
100008040: f940010b    	ldr	x11, [x8]
100008044: f940014e    	ldr	x14, [x10]
100008048: eb0e017f    	cmp	x11, x14
10000804c: 9a8a310b    	csel	x11, x8, x10, lo
100008050: 9a883148    	csel	x8, x10, x8, lo
100008054: 3dc00180    	ldr	q0, [x12]
100008058: 3dc00161    	ldr	q1, [x11]
10000805c: ad0005a0    	stp	q0, q1, [x13]
100008060: 3dc00100    	ldr	q0, [x8]
100008064: 3dc00121    	ldr	q1, [x9]
100008068: ad0105a0    	stp	q0, q1, [x13, #0x20]
10000806c: 52800089    	mov	w9, #0x4                ; =4
100008070: cb1702aa    	sub	x10, x21, x23
100008074: d37ced2b    	lsl	x11, x9, #4
100008078: eb17013f    	cmp	x9, x23
10000807c: 54000163    	b.lo	0x1000080a8 <__ZN4core5slice4sort6stable9quicksort9quicksort17h241fe5fae56b035cE+0x5e4>
100008080: 14000027    	b	0x10000811c <__ZN4core5slice4sort6stable9quicksort9quicksort17h241fe5fae56b035cE+0x658>
100008084: 3dc00280    	ldr	q0, [x20]
100008088: 3d800260    	str	q0, [x19]
10000808c: 3cf86a80    	ldr	q0, [x20, x24]
100008090: 3cb86a60    	str	q0, [x19, x24]
100008094: 52800029    	mov	w9, #0x1                ; =1
100008098: cb1702aa    	sub	x10, x21, x23
10000809c: d37ced2b    	lsl	x11, x9, #4
1000080a0: eb17013f    	cmp	x9, x23
1000080a4: 540003c2    	b.hs	0x10000811c <__ZN4core5slice4sort6stable9quicksort9quicksort17h241fe5fae56b035cE+0x658>
1000080a8: aa0b03e8    	mov	x8, x11
1000080ac: aa0903ec    	mov	x12, x9
1000080b0: 14000007    	b	0x1000080cc <__ZN4core5slice4sort6stable9quicksort9quicksort17h241fe5fae56b035cE+0x608>
1000080b4: aa1303ef    	mov	x15, x19
1000080b8: a90039ed    	stp	x13, x14, [x15]
1000080bc: 9100058c    	add	x12, x12, #0x1
1000080c0: 91004108    	add	x8, x8, #0x10
1000080c4: eb17019f    	cmp	x12, x23
1000080c8: 540002a0    	b.eq	0x10000811c <__ZN4core5slice4sort6stable9quicksort9quicksort17h241fe5fae56b035cE+0x658>
1000080cc: d37ced8d    	lsl	x13, x12, #4
1000080d0: 8b0d026e    	add	x14, x19, x13
1000080d4: 3ced6a80    	ldr	q0, [x20, x13]
1000080d8: 3d8001c0    	str	q0, [x14]
1000080dc: f94001cd    	ldr	x13, [x14]
1000080e0: f85f01cf    	ldur	x15, [x14, #-0x10]
1000080e4: eb0f01bf    	cmp	x13, x15
1000080e8: 54fffea2    	b.hs	0x1000080bc <__ZN4core5slice4sort6stable9quicksort9quicksort17h241fe5fae56b035cE+0x5f8>
1000080ec: f94005ce    	ldr	x14, [x14, #0x8]
1000080f0: aa0803ef    	mov	x15, x8
1000080f4: 8b0f0270    	add	x16, x19, x15
1000080f8: 3cdf0200    	ldur	q0, [x16, #-0x10]
1000080fc: 3d800200    	str	q0, [x16]
100008100: f10041ef    	subs	x15, x15, #0x10
100008104: 54fffd80    	b.eq	0x1000080b4 <__ZN4core5slice4sort6stable9quicksort9quicksort17h241fe5fae56b035cE+0x5f0>
100008108: f85e0210    	ldur	x16, [x16, #-0x20]
10000810c: eb1001bf    	cmp	x13, x16
100008110: 54ffff23    	b.lo	0x1000080f4 <__ZN4core5slice4sort6stable9quicksort9quicksort17h241fe5fae56b035cE+0x630>
100008114: 8b0f026f    	add	x15, x19, x15
100008118: 17ffffe8    	b	0x1000080b8 <__ZN4core5slice4sort6stable9quicksort9quicksort17h241fe5fae56b035cE+0x5f4>
10000811c: 8b180268    	add	x8, x19, x24
100008120: eb0a013f    	cmp	x9, x10
100008124: 54000462    	b.hs	0x1000081b0 <__ZN4core5slice4sort6stable9quicksort9quicksort17h241fe5fae56b035cE+0x6ec>
100008128: 8b18028c    	add	x12, x20, x24
10000812c: 5280020d    	mov	w13, #0x10              ; =16
100008130: aa0803ee    	mov	x14, x8
100008134: 14000008    	b	0x100008154 <__ZN4core5slice4sort6stable9quicksort9quicksort17h241fe5fae56b035cE+0x690>
100008138: aa0803f1    	mov	x17, x8
10000813c: a900422f    	stp	x15, x16, [x17]
100008140: 91000529    	add	x9, x9, #0x1
100008144: 910041ce    	add	x14, x14, #0x10
100008148: d10041ad    	sub	x13, x13, #0x10
10000814c: eb0a013f    	cmp	x9, x10
100008150: 54000300    	b.eq	0x1000081b0 <__ZN4core5slice4sort6stable9quicksort9quicksort17h241fe5fae56b035cE+0x6ec>
100008154: d37ced2f    	lsl	x15, x9, #4
100008158: 8b0f0110    	add	x16, x8, x15
10000815c: 3cef6980    	ldr	q0, [x12, x15]
100008160: 3d800200    	str	q0, [x16]
100008164: f940020f    	ldr	x15, [x16]
100008168: f85f0211    	ldur	x17, [x16, #-0x10]
10000816c: eb1101ff    	cmp	x15, x17
100008170: 54fffe82    	b.hs	0x100008140 <__ZN4core5slice4sort6stable9quicksort9quicksort17h241fe5fae56b035cE+0x67c>
100008174: f9400610    	ldr	x16, [x16, #0x8]
100008178: aa0d03e0    	mov	x0, x13
10000817c: aa0e03f1    	mov	x17, x14
100008180: 8b0b0221    	add	x1, x17, x11
100008184: 3cdf0020    	ldur	q0, [x1, #-0x10]
100008188: 3d800020    	str	q0, [x1]
10000818c: eb00017f    	cmp	x11, x0
100008190: 54fffd40    	b.eq	0x100008138 <__ZN4core5slice4sort6stable9quicksort9quicksort17h241fe5fae56b035cE+0x674>
100008194: f85e0021    	ldur	x1, [x1, #-0x20]
100008198: d1004231    	sub	x17, x17, #0x10
10000819c: 91004000    	add	x0, x0, #0x10
1000081a0: eb0101ff    	cmp	x15, x1
1000081a4: 54fffee3    	b.lo	0x100008180 <__ZN4core5slice4sort6stable9quicksort9quicksort17h241fe5fae56b035cE+0x6bc>
1000081a8: 8b0b0231    	add	x17, x17, x11
1000081ac: 17ffffe4    	b	0x10000813c <__ZN4core5slice4sort6stable9quicksort9quicksort17h241fe5fae56b035cE+0x678>
1000081b0: d100410b    	sub	x11, x8, #0x10
1000081b4: d37ceeb6    	lsl	x22, x21, #4
1000081b8: d10042cd    	sub	x13, x22, #0x10
1000081bc: 8b0d026c    	add	x12, x19, x13
1000081c0: aa1303e9    	mov	x9, x19
1000081c4: aa1403ea    	mov	x10, x20
1000081c8: f940010e    	ldr	x14, [x8]
1000081cc: f940012f    	ldr	x15, [x9]
1000081d0: eb0f01df    	cmp	x14, x15
1000081d4: 9a89310e    	csel	x14, x8, x9, lo
1000081d8: 1a9f37ef    	cset	w15, hs
1000081dc: 1a9f27f0    	cset	w16, lo
1000081e0: 3dc001c0    	ldr	q0, [x14]
1000081e4: 3c810540    	str	q0, [x10], #0x10
1000081e8: 8b305108    	add	x8, x8, w16, uxtw #4
1000081ec: 8b2f5129    	add	x9, x9, w15, uxtw #4
1000081f0: f940018e    	ldr	x14, [x12]
1000081f4: f940016f    	ldr	x15, [x11]
1000081f8: eb0f01df    	cmp	x14, x15
1000081fc: 9a8c316e    	csel	x14, x11, x12, lo
100008200: 3dc001c0    	ldr	q0, [x14]
100008204: 3cad6a80    	str	q0, [x20, x13]
100008208: da9f33ee    	csetm	x14, hs
10000820c: 8b0e118c    	add	x12, x12, x14, lsl #4
100008210: da9f23ee    	csetm	x14, lo
100008214: 8b0e116b    	add	x11, x11, x14, lsl #4
100008218: d10041ad    	sub	x13, x13, #0x10
10000821c: f10006f7    	subs	x23, x23, #0x1
100008220: 54fffd41    	b.ne	0x1000081c8 <__ZN4core5slice4sort6stable9quicksort9quicksort17h241fe5fae56b035cE+0x704>
100008224: 9100416b    	add	x11, x11, #0x10
100008228: 9100418c    	add	x12, x12, #0x10
10000822c: 36000135    	tbz	w21, #0x0, 0x100008250 <__ZN4core5slice4sort6stable9quicksort9quicksort17h241fe5fae56b035cE+0x78c>
100008230: eb0b013f    	cmp	x9, x11
100008234: 9a88312d    	csel	x13, x9, x8, lo
100008238: 1a9f37ee    	cset	w14, hs
10000823c: 1a9f27ef    	cset	w15, lo
100008240: 3dc001a0    	ldr	q0, [x13]
100008244: 3d800140    	str	q0, [x10]
100008248: 8b2f5129    	add	x9, x9, w15, uxtw #4
10000824c: 8b2e5108    	add	x8, x8, w14, uxtw #4
100008250: eb0b013f    	cmp	x9, x11
100008254: fa4c0100    	ccmp	x8, x12, #0x0, eq
100008258: 54000281    	b.ne	0x1000082a8 <__ZN4core5slice4sort6stable9quicksort9quicksort17h241fe5fae56b035cE+0x7e4>
10000825c: a94a7bfd    	ldp	x29, x30, [sp, #0xa0]
100008260: a9494ff4    	ldp	x20, x19, [sp, #0x90]
100008264: a94857f6    	ldp	x22, x21, [sp, #0x80]
100008268: a9475ff8    	ldp	x24, x23, [sp, #0x70]
10000826c: a94667fa    	ldp	x26, x25, [sp, #0x60]
100008270: a9456ffc    	ldp	x28, x27, [sp, #0x50]
100008274: 9102c3ff    	add	sp, sp, #0xb0
100008278: d65f03c0    	ret
10000827c: 900001e8    	adrp	x8, 0x100044000 <dyld_stub_binder+0x100044000>
100008280: 91036108    	add	x8, x8, #0xd8
100008284: 52800029    	mov	w9, #0x1                ; =1
100008288: a90227e8    	stp	x8, x9, [sp, #0x20]
10000828c: 52800108    	mov	w8, #0x8                ; =8
100008290: a903ffff    	stp	xzr, xzr, [sp, #0x38]
100008294: f9001be8    	str	x8, [sp, #0x30]
100008298: 900001e1    	adrp	x1, 0x100044000 <dyld_stub_binder+0x100044000>
10000829c: 9103a021    	add	x1, x1, #0xe8
1000082a0: 910083e0    	add	x0, sp, #0x20
1000082a4: 9400b68d    	bl	0x100035cd8 <__ZN4core9panicking9panic_fmt17ha0f8363f677e0181E>
1000082a8: 9400b747    	bl	0x100035fc4 <__ZN4core5slice4sort6shared9smallsort22panic_on_ord_violation17hde5e51e040c58445E>
1000082ac: d4200020    	brk	#0x1
1000082b0: 900001e2    	adrp	x2, 0x100044000 <dyld_stub_binder+0x100044000>
1000082b4: 91040042    	add	x2, x2, #0x100
1000082b8: aa1a03e0    	mov	x0, x26
1000082bc: aa1803e1    	mov	x1, x24
1000082c0: 9400b74f    	bl	0x100035ffc <__ZN4core5slice5index26slice_start_index_len_fail17hb941cdec3696e1afE>
1000082c4: aa0003f5    	mov	x21, x0
1000082c8: aa1403e0    	mov	x0, x20
1000082cc: aa1303e1    	mov	x1, x19
1000082d0: aa1603e2    	mov	x2, x22
1000082d4: 9400b7e6    	bl	0x10003626c <dyld_stub_binder+0x10003626c>
1000082d8: aa1503e0    	mov	x0, x21
1000082dc: 9400b796    	bl	0x100036134 <dyld_stub_binder+0x100036134>

00000001000082e0 <__ZN4core5slice4sort6stable9quicksort9quicksort17h2755ce9b6a022da6E>:
1000082e0: d10303ff    	sub	sp, sp, #0xc0
1000082e4: a9066ffc    	stp	x28, x27, [sp, #0x60]
1000082e8: a90767fa    	stp	x26, x25, [sp, #0x70]
1000082ec: a9085ff8    	stp	x24, x23, [sp, #0x80]
1000082f0: a90957f6    	stp	x22, x21, [sp, #0x90]
1000082f4: a90a4ff4    	stp	x20, x19, [sp, #0xa0]
1000082f8: a90b7bfd    	stp	x29, x30, [sp, #0xb0]
1000082fc: 9102c3fd    	add	x29, sp, #0xb0
100008300: aa0303fb    	mov	x27, x3
100008304: aa0203f3    	mov	x19, x2
100008308: aa0103f5    	mov	x21, x1
10000830c: aa0003f4    	mov	x20, x0
100008310: f100843f    	cmp	x1, #0x21
100008314: 54000ec2    	b.hs	0x1000084ec <__ZN4core5slice4sort6stable9quicksort9quicksort17h2755ce9b6a022da6E+0x20c>
100008318: f1000abf    	cmp	x21, #0x2
10000831c: 54003963    	b.lo	0x100008a48 <__ZN4core5slice4sort6stable9quicksort9quicksort17h2755ce9b6a022da6E+0x768>
100008320: 910042a8    	add	x8, x21, #0x10
100008324: eb1b011f    	cmp	x8, x27
100008328: 54003b88    	b.hi	0x100008a98 <__ZN4core5slice4sort6stable9quicksort9quicksort17h2755ce9b6a022da6E+0x7b8>
10000832c: d341fea8    	lsr	x8, x21, #1
100008330: 8b080509    	add	x9, x8, x8, lsl #1
100008334: f1001ebf    	cmp	x21, #0x7
100008338: 54002549    	b.ls	0x1000087e0 <__ZN4core5slice4sort6stable9quicksort9quicksort17h2755ce9b6a022da6E+0x500>
10000833c: f9400e8a    	ldr	x10, [x20, #0x18]
100008340: f940028b    	ldr	x11, [x20]
100008344: eb0b015f    	cmp	x10, x11
100008348: 1a9f37eb    	cset	w11, hs
10000834c: 1a9f27ec    	cset	w12, lo
100008350: f940268d    	ldr	x13, [x20, #0x48]
100008354: f9401a8e    	ldr	x14, [x20, #0x30]
100008358: 5280030a    	mov	w10, #0x18              ; =24
10000835c: 9baa518c    	umaddl	x12, w12, w10, x20
100008360: 9baa516f    	umaddl	x15, w11, w10, x20
100008364: 5280060b    	mov	w11, #0x30              ; =48
100008368: 52800910    	mov	w16, #0x48              ; =72
10000836c: eb0e01bf    	cmp	x13, x14
100008370: 9a8b320d    	csel	x13, x16, x11, lo
100008374: 8b0d028d    	add	x13, x20, x13
100008378: 9a90316e    	csel	x14, x11, x16, lo
10000837c: 8b0e028e    	add	x14, x20, x14
100008380: f94001b1    	ldr	x17, [x13]
100008384: f9400180    	ldr	x0, [x12]
100008388: f94001c1    	ldr	x1, [x14]
10000838c: f94001e2    	ldr	x2, [x15]
100008390: eb02003f    	cmp	x1, x2
100008394: 9a8f31a3    	csel	x3, x13, x15, lo
100008398: eb00023f    	cmp	x17, x0
10000839c: 9a8c31b1    	csel	x17, x13, x12, lo
1000083a0: 9a83318c    	csel	x12, x12, x3, lo
1000083a4: 9a8d31ed    	csel	x13, x15, x13, lo
1000083a8: eb02003f    	cmp	x1, x2
1000083ac: 9a8e31ef    	csel	x15, x15, x14, lo
1000083b0: 9a8d31cd    	csel	x13, x14, x13, lo
1000083b4: f94001ae    	ldr	x14, [x13]
1000083b8: f9400180    	ldr	x0, [x12]
1000083bc: eb0001df    	cmp	x14, x0
1000083c0: 9a8c31ae    	csel	x14, x13, x12, lo
1000083c4: 9a8d318c    	csel	x12, x12, x13, lo
1000083c8: 3dc00220    	ldr	q0, [x17]
1000083cc: f9400a2d    	ldr	x13, [x17, #0x10]
1000083d0: f9000a6d    	str	x13, [x19, #0x10]
1000083d4: 3d800260    	str	q0, [x19]
1000083d8: 3dc001c0    	ldr	q0, [x14]
1000083dc: f94009cd    	ldr	x13, [x14, #0x10]
1000083e0: f900166d    	str	x13, [x19, #0x28]
1000083e4: 3c818260    	stur	q0, [x19, #0x18]
1000083e8: 3dc00180    	ldr	q0, [x12]
1000083ec: f940098c    	ldr	x12, [x12, #0x10]
1000083f0: f900226c    	str	x12, [x19, #0x40]
1000083f4: 3d800e60    	str	q0, [x19, #0x30]
1000083f8: 3dc001e0    	ldr	q0, [x15]
1000083fc: f94009ec    	ldr	x12, [x15, #0x10]
100008400: f9002e6c    	str	x12, [x19, #0x58]
100008404: 3c848260    	stur	q0, [x19, #0x48]
100008408: d37df12c    	lsl	x12, x9, #3
10000840c: 8b0c028d    	add	x13, x20, x12
100008410: f9400dae    	ldr	x14, [x13, #0x18]
100008414: f94001af    	ldr	x15, [x13]
100008418: eb0f01df    	cmp	x14, x15
10000841c: 1a9f37ee    	cset	w14, hs
100008420: 1a9f27ef    	cset	w15, lo
100008424: f94025b1    	ldr	x17, [x13, #0x48]
100008428: f94019a0    	ldr	x0, [x13, #0x30]
10000842c: eb00023f    	cmp	x17, x0
100008430: 9a8b3211    	csel	x17, x16, x11, lo
100008434: 8b1101b1    	add	x17, x13, x17
100008438: 9baa35ef    	umaddl	x15, w15, w10, x13
10000843c: 9baa35ca    	umaddl	x10, w14, w10, x13
100008440: 9a90316b    	csel	x11, x11, x16, lo
100008444: 8b0b01ab    	add	x11, x13, x11
100008448: f940022d    	ldr	x13, [x17]
10000844c: f94001ee    	ldr	x14, [x15]
100008450: f9400170    	ldr	x16, [x11]
100008454: f9400140    	ldr	x0, [x10]
100008458: eb00021f    	cmp	x16, x0
10000845c: 9a8a3221    	csel	x1, x17, x10, lo
100008460: eb0e01bf    	cmp	x13, x14
100008464: 9a8f322d    	csel	x13, x17, x15, lo
100008468: 9a8131ee    	csel	x14, x15, x1, lo
10000846c: 9a91314f    	csel	x15, x10, x17, lo
100008470: 8b0c026c    	add	x12, x19, x12
100008474: eb00021f    	cmp	x16, x0
100008478: 9a8b314a    	csel	x10, x10, x11, lo
10000847c: 9a8f316b    	csel	x11, x11, x15, lo
100008480: f940016f    	ldr	x15, [x11]
100008484: f94001d0    	ldr	x16, [x14]
100008488: eb1001ff    	cmp	x15, x16
10000848c: 9a8e316f    	csel	x15, x11, x14, lo
100008490: 9a8b31cb    	csel	x11, x14, x11, lo
100008494: 3dc001a0    	ldr	q0, [x13]
100008498: f94009ad    	ldr	x13, [x13, #0x10]
10000849c: f900098d    	str	x13, [x12, #0x10]
1000084a0: 3d800180    	str	q0, [x12]
1000084a4: 3dc001e0    	ldr	q0, [x15]
1000084a8: f94009ed    	ldr	x13, [x15, #0x10]
1000084ac: f900158d    	str	x13, [x12, #0x28]
1000084b0: 3c818180    	stur	q0, [x12, #0x18]
1000084b4: 3dc00160    	ldr	q0, [x11]
1000084b8: f940096b    	ldr	x11, [x11, #0x10]
1000084bc: f900218b    	str	x11, [x12, #0x40]
1000084c0: 3d800d80    	str	q0, [x12, #0x30]
1000084c4: 3dc00140    	ldr	q0, [x10]
1000084c8: f940094a    	ldr	x10, [x10, #0x10]
1000084cc: f9002d8a    	str	x10, [x12, #0x58]
1000084d0: 3c848180    	stur	q0, [x12, #0x48]
1000084d4: 5280008a    	mov	w10, #0x4               ; =4
1000084d8: cb0802ab    	sub	x11, x21, x8
1000084dc: 8b0a054c    	add	x12, x10, x10, lsl #1
1000084e0: eb08015f    	cmp	x10, x8
1000084e4: 540019e3    	b.lo	0x100008820 <__ZN4core5slice4sort6stable9quicksort9quicksort17h2755ce9b6a022da6E+0x540>
1000084e8: 140000f4    	b	0x1000088b8 <__ZN4core5slice4sort6stable9quicksort9quicksort17h2755ce9b6a022da6E+0x5d8>
1000084ec: aa0503f9    	mov	x25, x5
1000084f0: aa0403f7    	mov	x23, x4
1000084f4: d1006268    	sub	x8, x19, #0x18
1000084f8: f90007e8    	str	x8, [sp, #0x8]
1000084fc: 5280031c    	mov	w28, #0x18              ; =24
100008500: aa1503f8    	mov	x24, x21
100008504: 34001617    	cbz	w23, 0x1000087c4 <__ZN4core5slice4sort6stable9quicksort9quicksort17h2755ce9b6a022da6E+0x4e4>
100008508: d343ff03    	lsr	x3, x24, #3
10000850c: 52800c08    	mov	w8, #0x60               ; =96
100008510: 9b085061    	madd	x1, x3, x8, x20
100008514: 52801508    	mov	w8, #0xa8               ; =168
100008518: 9b085062    	madd	x2, x3, x8, x20
10000851c: f101031f    	cmp	x24, #0x40
100008520: 54000222    	b.hs	0x100008564 <__ZN4core5slice4sort6stable9quicksort9quicksort17h2755ce9b6a022da6E+0x284>
100008524: f9400288    	ldr	x8, [x20]
100008528: f9400029    	ldr	x9, [x1]
10000852c: eb09011f    	cmp	x8, x9
100008530: 1a9f27ea    	cset	w10, lo
100008534: f940004b    	ldr	x11, [x2]
100008538: eb0b011f    	cmp	x8, x11
10000853c: 1a9f27e8    	cset	w8, lo
100008540: 4a080148    	eor	w8, w10, w8
100008544: eb0b013f    	cmp	x9, x11
100008548: 1a9f27e9    	cset	w9, lo
10000854c: 4a090149    	eor	w9, w10, w9
100008550: 7100013f    	cmp	w9, #0x0
100008554: 9a811049    	csel	x9, x2, x1, ne
100008558: 7100011f    	cmp	w8, #0x0
10000855c: 9a89129a    	csel	x26, x20, x9, ne
100008560: 14000004    	b	0x100008570 <__ZN4core5slice4sort6stable9quicksort9quicksort17h2755ce9b6a022da6E+0x290>
100008564: aa1403e0    	mov	x0, x20
100008568: 97ffeb70    	bl	0x100003328 <__ZN4core5slice4sort6shared5pivot11median3_rec17hb52eafd2454ea0a8E>
10000856c: aa0003fa    	mov	x26, x0
100008570: 510006f7    	sub	w23, w23, #0x1
100008574: cb140348    	sub	x8, x26, x20
100008578: d343fd08    	lsr	x8, x8, #3
10000857c: b201f3e9    	mov	x9, #-0x5555555555555556 ; =-6148914691236517206
100008580: f2955569    	movk	x9, #0xaaab
100008584: 9b097d16    	mul	x22, x8, x9
100008588: 3dc00340    	ldr	q0, [x26]
10000858c: 3d8007e0    	str	q0, [sp, #0x10]
100008590: f9400b48    	ldr	x8, [x26, #0x10]
100008594: f90013e8    	str	x8, [sp, #0x20]
100008598: b40000b9    	cbz	x25, 0x1000085ac <__ZN4core5slice4sort6stable9quicksort9quicksort17h2755ce9b6a022da6E+0x2cc>
10000859c: f9400328    	ldr	x8, [x25]
1000085a0: f9400349    	ldr	x9, [x26]
1000085a4: eb09011f    	cmp	x8, x9
1000085a8: 540008c2    	b.hs	0x1000086c0 <__ZN4core5slice4sort6stable9quicksort9quicksort17h2755ce9b6a022da6E+0x3e0>
1000085ac: eb1b031f    	cmp	x24, x27
1000085b0: 54002748    	b.hi	0x100008a98 <__ZN4core5slice4sort6stable9quicksort9quicksort17h2755ce9b6a022da6E+0x7b8>
1000085b4: d2800015    	mov	x21, #0x0               ; =0
1000085b8: 9b1c4f08    	madd	x8, x24, x28, x19
1000085bc: aa1403e9    	mov	x9, x20
1000085c0: aa1603ea    	mov	x10, x22
1000085c4: 9b1c52cb    	madd	x11, x22, x28, x20
1000085c8: eb0b029f    	cmp	x20, x11
1000085cc: 540001e2    	b.hs	0x100008608 <__ZN4core5slice4sort6stable9quicksort9quicksort17h2755ce9b6a022da6E+0x328>
1000085d0: f940012c    	ldr	x12, [x9]
1000085d4: f940034d    	ldr	x13, [x26]
1000085d8: d1006108    	sub	x8, x8, #0x18
1000085dc: eb0d019f    	cmp	x12, x13
1000085e0: 9a88326c    	csel	x12, x19, x8, lo
1000085e4: 9b1c32ac    	madd	x12, x21, x28, x12
1000085e8: 3dc00120    	ldr	q0, [x9]
1000085ec: f940092d    	ldr	x13, [x9, #0x10]
1000085f0: f900098d    	str	x13, [x12, #0x10]
1000085f4: 3d800180    	str	q0, [x12]
1000085f8: 9a9526b5    	cinc	x21, x21, lo
1000085fc: 91006129    	add	x9, x9, #0x18
100008600: eb0b013f    	cmp	x9, x11
100008604: 54fffe63    	b.lo	0x1000085d0 <__ZN4core5slice4sort6stable9quicksort9quicksort17h2755ce9b6a022da6E+0x2f0>
100008608: eb18015f    	cmp	x10, x24
10000860c: 540001a0    	b.eq	0x100008640 <__ZN4core5slice4sort6stable9quicksort9quicksort17h2755ce9b6a022da6E+0x360>
100008610: d1006108    	sub	x8, x8, #0x18
100008614: 9b1c22aa    	madd	x10, x21, x28, x8
100008618: 3dc00120    	ldr	q0, [x9]
10000861c: 3d800140    	str	q0, [x10]
100008620: f940092b    	ldr	x11, [x9, #0x10]
100008624: f900094b    	str	x11, [x10, #0x10]
100008628: 91006129    	add	x9, x9, #0x18
10000862c: aa1803ea    	mov	x10, x24
100008630: 9b1c530b    	madd	x11, x24, x28, x20
100008634: eb0b013f    	cmp	x9, x11
100008638: 54fffcc3    	b.lo	0x1000085d0 <__ZN4core5slice4sort6stable9quicksort9quicksort17h2755ce9b6a022da6E+0x2f0>
10000863c: 17fffff3    	b	0x100008608 <__ZN4core5slice4sort6stable9quicksort9quicksort17h2755ce9b6a022da6E+0x328>
100008640: 8b1506a8    	add	x8, x21, x21, lsl #1
100008644: d37df102    	lsl	x2, x8, #3
100008648: aa1403e0    	mov	x0, x20
10000864c: aa1303e1    	mov	x1, x19
100008650: 9400b707    	bl	0x10003626c <dyld_stub_binder+0x10003626c>
100008654: eb150301    	subs	x1, x24, x21
100008658: 540001a0    	b.eq	0x10000868c <__ZN4core5slice4sort6stable9quicksort9quicksort17h2755ce9b6a022da6E+0x3ac>
10000865c: 9b1c52a8    	madd	x8, x21, x28, x20
100008660: aa0103e9    	mov	x9, x1
100008664: f94007ea    	ldr	x10, [sp, #0x8]
100008668: 9b1c2b0a    	madd	x10, x24, x28, x10
10000866c: 3dc00140    	ldr	q0, [x10]
100008670: 3d800100    	str	q0, [x8]
100008674: f940094b    	ldr	x11, [x10, #0x10]
100008678: f900090b    	str	x11, [x8, #0x10]
10000867c: 91006108    	add	x8, x8, #0x18
100008680: d100614a    	sub	x10, x10, #0x18
100008684: f1000529    	subs	x9, x9, #0x1
100008688: 54ffff21    	b.ne	0x10000866c <__ZN4core5slice4sort6stable9quicksort9quicksort17h2755ce9b6a022da6E+0x38c>
10000868c: b40001b5    	cbz	x21, 0x1000086c0 <__ZN4core5slice4sort6stable9quicksort9quicksort17h2755ce9b6a022da6E+0x3e0>
100008690: eb15031f    	cmp	x24, x21
100008694: 54001ea3    	b.lo	0x100008a68 <__ZN4core5slice4sort6stable9quicksort9quicksort17h2755ce9b6a022da6E+0x788>
100008698: 9b1c52a0    	madd	x0, x21, x28, x20
10000869c: 910043e5    	add	x5, sp, #0x10
1000086a0: aa1303e2    	mov	x2, x19
1000086a4: aa1b03e3    	mov	x3, x27
1000086a8: aa1703e4    	mov	x4, x23
1000086ac: 97ffff0d    	bl	0x1000082e0 <__ZN4core5slice4sort6stable9quicksort9quicksort17h2755ce9b6a022da6E>
1000086b0: aa1503f8    	mov	x24, x21
1000086b4: f10086bf    	cmp	x21, #0x21
1000086b8: 54fff262    	b.hs	0x100008504 <__ZN4core5slice4sort6stable9quicksort9quicksort17h2755ce9b6a022da6E+0x224>
1000086bc: 17ffff17    	b	0x100008318 <__ZN4core5slice4sort6stable9quicksort9quicksort17h2755ce9b6a022da6E+0x38>
1000086c0: eb1b031f    	cmp	x24, x27
1000086c4: 54001ea8    	b.hi	0x100008a98 <__ZN4core5slice4sort6stable9quicksort9quicksort17h2755ce9b6a022da6E+0x7b8>
1000086c8: f90003fb    	str	x27, [sp]
1000086cc: d280001b    	mov	x27, #0x0               ; =0
1000086d0: 9b1c4f08    	madd	x8, x24, x28, x19
1000086d4: aa1403e9    	mov	x9, x20
1000086d8: 9b1c52ca    	madd	x10, x22, x28, x20
1000086dc: eb0a029f    	cmp	x20, x10
1000086e0: 540001e2    	b.hs	0x10000871c <__ZN4core5slice4sort6stable9quicksort9quicksort17h2755ce9b6a022da6E+0x43c>
1000086e4: f940012b    	ldr	x11, [x9]
1000086e8: f940034c    	ldr	x12, [x26]
1000086ec: d1006108    	sub	x8, x8, #0x18
1000086f0: eb0b019f    	cmp	x12, x11
1000086f4: 9a88226b    	csel	x11, x19, x8, hs
1000086f8: 9b1c2f6b    	madd	x11, x27, x28, x11
1000086fc: 3dc00120    	ldr	q0, [x9]
100008700: f940092c    	ldr	x12, [x9, #0x10]
100008704: f900096c    	str	x12, [x11, #0x10]
100008708: 3d800160    	str	q0, [x11]
10000870c: 9a9b377b    	cinc	x27, x27, hs
100008710: 91006129    	add	x9, x9, #0x18
100008714: eb0a013f    	cmp	x9, x10
100008718: 54fffe63    	b.lo	0x1000086e4 <__ZN4core5slice4sort6stable9quicksort9quicksort17h2755ce9b6a022da6E+0x404>
10000871c: eb1802df    	cmp	x22, x24
100008720: 540001c0    	b.eq	0x100008758 <__ZN4core5slice4sort6stable9quicksort9quicksort17h2755ce9b6a022da6E+0x478>
100008724: d1006108    	sub	x8, x8, #0x18
100008728: 3dc00120    	ldr	q0, [x9]
10000872c: f940092a    	ldr	x10, [x9, #0x10]
100008730: 9b1c4f6b    	madd	x11, x27, x28, x19
100008734: f900096a    	str	x10, [x11, #0x10]
100008738: 3d800160    	str	q0, [x11]
10000873c: 9100077b    	add	x27, x27, #0x1
100008740: 91006129    	add	x9, x9, #0x18
100008744: aa1803f6    	mov	x22, x24
100008748: 9b1c530a    	madd	x10, x24, x28, x20
10000874c: eb0a013f    	cmp	x9, x10
100008750: 54fffca3    	b.lo	0x1000086e4 <__ZN4core5slice4sort6stable9quicksort9quicksort17h2755ce9b6a022da6E+0x404>
100008754: 17fffff2    	b	0x10000871c <__ZN4core5slice4sort6stable9quicksort9quicksort17h2755ce9b6a022da6E+0x43c>
100008758: 8b1b0768    	add	x8, x27, x27, lsl #1
10000875c: d37df102    	lsl	x2, x8, #3
100008760: aa1403e0    	mov	x0, x20
100008764: aa1303e1    	mov	x1, x19
100008768: 9400b6c1    	bl	0x10003626c <dyld_stub_binder+0x10003626c>
10000876c: eb1b0315    	subs	x21, x24, x27
100008770: 540001a0    	b.eq	0x1000087a4 <__ZN4core5slice4sort6stable9quicksort9quicksort17h2755ce9b6a022da6E+0x4c4>
100008774: 9b1c5368    	madd	x8, x27, x28, x20
100008778: aa1503e9    	mov	x9, x21
10000877c: f94007ea    	ldr	x10, [sp, #0x8]
100008780: 9b1c2b0a    	madd	x10, x24, x28, x10
100008784: 3dc00140    	ldr	q0, [x10]
100008788: 3d800100    	str	q0, [x8]
10000878c: f940094b    	ldr	x11, [x10, #0x10]
100008790: f900090b    	str	x11, [x8, #0x10]
100008794: 91006108    	add	x8, x8, #0x18
100008798: d100614a    	sub	x10, x10, #0x18
10000879c: f1000529    	subs	x9, x9, #0x1
1000087a0: 54ffff21    	b.ne	0x100008784 <__ZN4core5slice4sort6stable9quicksort9quicksort17h2755ce9b6a022da6E+0x4a4>
1000087a4: eb1b031f    	cmp	x24, x27
1000087a8: 540017a3    	b.lo	0x100008a9c <__ZN4core5slice4sort6stable9quicksort9quicksort17h2755ce9b6a022da6E+0x7bc>
1000087ac: d2800019    	mov	x25, #0x0               ; =0
1000087b0: 9b1c5374    	madd	x20, x27, x28, x20
1000087b4: f10086bf    	cmp	x21, #0x21
1000087b8: f94003fb    	ldr	x27, [sp]
1000087bc: 54ffea22    	b.hs	0x100008500 <__ZN4core5slice4sort6stable9quicksort9quicksort17h2755ce9b6a022da6E+0x220>
1000087c0: 17fffed6    	b	0x100008318 <__ZN4core5slice4sort6stable9quicksort9quicksort17h2755ce9b6a022da6E+0x38>
1000087c4: aa1403e0    	mov	x0, x20
1000087c8: aa1803e1    	mov	x1, x24
1000087cc: aa1303e2    	mov	x2, x19
1000087d0: aa1b03e3    	mov	x3, x27
1000087d4: 52800024    	mov	w4, #0x1                ; =1
1000087d8: 97fff986    	bl	0x100006df0 <__ZN4core5slice4sort6stable5drift4sort17hde2de3c55f28f1ccE>
1000087dc: 1400009b    	b	0x100008a48 <__ZN4core5slice4sort6stable9quicksort9quicksort17h2755ce9b6a022da6E+0x768>
1000087e0: 3dc00280    	ldr	q0, [x20]
1000087e4: f9400a8a    	ldr	x10, [x20, #0x10]
1000087e8: f9000a6a    	str	x10, [x19, #0x10]
1000087ec: 3d800260    	str	q0, [x19]
1000087f0: d37df12a    	lsl	x10, x9, #3
1000087f4: 8b0a028b    	add	x11, x20, x10
1000087f8: 8b0a026a    	add	x10, x19, x10
1000087fc: 3dc00160    	ldr	q0, [x11]
100008800: f940096b    	ldr	x11, [x11, #0x10]
100008804: f900094b    	str	x11, [x10, #0x10]
100008808: 3d800140    	str	q0, [x10]
10000880c: 5280002a    	mov	w10, #0x1               ; =1
100008810: cb0802ab    	sub	x11, x21, x8
100008814: 8b0a054c    	add	x12, x10, x10, lsl #1
100008818: eb08015f    	cmp	x10, x8
10000881c: 540004e2    	b.hs	0x1000088b8 <__ZN4core5slice4sort6stable9quicksort9quicksort17h2755ce9b6a022da6E+0x5d8>
100008820: d37df18d    	lsl	x13, x12, #3
100008824: aa0a03ee    	mov	x14, x10
100008828: 14000009    	b	0x10000884c <__ZN4core5slice4sort6stable9quicksort9quicksort17h2755ce9b6a022da6E+0x56c>
10000882c: aa1303f0    	mov	x16, x19
100008830: f900020f    	str	x15, [x16]
100008834: 3dc00fe0    	ldr	q0, [sp, #0x30]
100008838: 3c808200    	stur	q0, [x16, #0x8]
10000883c: 910005ce    	add	x14, x14, #0x1
100008840: 910061ad    	add	x13, x13, #0x18
100008844: eb0801df    	cmp	x14, x8
100008848: 54000380    	b.eq	0x1000088b8 <__ZN4core5slice4sort6stable9quicksort9quicksort17h2755ce9b6a022da6E+0x5d8>
10000884c: 8b0e05cf    	add	x15, x14, x14, lsl #1
100008850: d37df1ef    	lsl	x15, x15, #3
100008854: 8b0f0290    	add	x16, x20, x15
100008858: 8b0f0271    	add	x17, x19, x15
10000885c: f9400a0f    	ldr	x15, [x16, #0x10]
100008860: 3dc00200    	ldr	q0, [x16]
100008864: 3d800220    	str	q0, [x17]
100008868: f9000a2f    	str	x15, [x17, #0x10]
10000886c: f940022f    	ldr	x15, [x17]
100008870: f85e8231    	ldur	x17, [x17, #-0x18]
100008874: eb1101ff    	cmp	x15, x17
100008878: 54fffe22    	b.hs	0x10000883c <__ZN4core5slice4sort6stable9quicksort9quicksort17h2755ce9b6a022da6E+0x55c>
10000887c: 3cc08200    	ldur	q0, [x16, #0x8]
100008880: 3d800fe0    	str	q0, [sp, #0x30]
100008884: aa0d03f0    	mov	x16, x13
100008888: 8b100271    	add	x17, x19, x16
10000888c: 3cde8220    	ldur	q0, [x17, #-0x18]
100008890: 3d800220    	str	q0, [x17]
100008894: f85f8220    	ldur	x0, [x17, #-0x8]
100008898: f9000a20    	str	x0, [x17, #0x10]
10000889c: f1006210    	subs	x16, x16, #0x18
1000088a0: 54fffc60    	b.eq	0x10000882c <__ZN4core5slice4sort6stable9quicksort9quicksort17h2755ce9b6a022da6E+0x54c>
1000088a4: f85d0231    	ldur	x17, [x17, #-0x30]
1000088a8: eb1101ff    	cmp	x15, x17
1000088ac: 54fffee3    	b.lo	0x100008888 <__ZN4core5slice4sort6stable9quicksort9quicksort17h2755ce9b6a022da6E+0x5a8>
1000088b0: 8b100270    	add	x16, x19, x16
1000088b4: 17ffffdf    	b	0x100008830 <__ZN4core5slice4sort6stable9quicksort9quicksort17h2755ce9b6a022da6E+0x550>
1000088b8: d37df12d    	lsl	x13, x9, #3
1000088bc: 8b0d0269    	add	x9, x19, x13
1000088c0: eb0b015f    	cmp	x10, x11
1000088c4: 540005a2    	b.hs	0x100008978 <__ZN4core5slice4sort6stable9quicksort9quicksort17h2755ce9b6a022da6E+0x698>
1000088c8: 8b0d028d    	add	x13, x20, x13
1000088cc: d37df18c    	lsl	x12, x12, #3
1000088d0: 5280030e    	mov	w14, #0x18              ; =24
1000088d4: aa0903ef    	mov	x15, x9
1000088d8: 1400000a    	b	0x100008900 <__ZN4core5slice4sort6stable9quicksort9quicksort17h2755ce9b6a022da6E+0x620>
1000088dc: aa0903f1    	mov	x17, x9
1000088e0: f9000230    	str	x16, [x17]
1000088e4: 3dc00fe0    	ldr	q0, [sp, #0x30]
1000088e8: 3c808220    	stur	q0, [x17, #0x8]
1000088ec: 9100054a    	add	x10, x10, #0x1
1000088f0: 910061ef    	add	x15, x15, #0x18
1000088f4: d10061ce    	sub	x14, x14, #0x18
1000088f8: eb0b015f    	cmp	x10, x11
1000088fc: 540003e0    	b.eq	0x100008978 <__ZN4core5slice4sort6stable9quicksort9quicksort17h2755ce9b6a022da6E+0x698>
100008900: 8b0a0550    	add	x16, x10, x10, lsl #1
100008904: d37df210    	lsl	x16, x16, #3
100008908: 8b1001b1    	add	x17, x13, x16
10000890c: 8b100120    	add	x0, x9, x16
100008910: f9400a30    	ldr	x16, [x17, #0x10]
100008914: 3dc00220    	ldr	q0, [x17]
100008918: 3d800000    	str	q0, [x0]
10000891c: f9000810    	str	x16, [x0, #0x10]
100008920: f9400010    	ldr	x16, [x0]
100008924: f85e8000    	ldur	x0, [x0, #-0x18]
100008928: eb00021f    	cmp	x16, x0
10000892c: 54fffe02    	b.hs	0x1000088ec <__ZN4core5slice4sort6stable9quicksort9quicksort17h2755ce9b6a022da6E+0x60c>
100008930: 3cc08220    	ldur	q0, [x17, #0x8]
100008934: 3d800fe0    	str	q0, [sp, #0x30]
100008938: aa0e03e0    	mov	x0, x14
10000893c: aa0f03f1    	mov	x17, x15
100008940: 8b0c0221    	add	x1, x17, x12
100008944: 3cde8020    	ldur	q0, [x1, #-0x18]
100008948: 3d800020    	str	q0, [x1]
10000894c: f85f8022    	ldur	x2, [x1, #-0x8]
100008950: f9000822    	str	x2, [x1, #0x10]
100008954: eb00019f    	cmp	x12, x0
100008958: 54fffc20    	b.eq	0x1000088dc <__ZN4core5slice4sort6stable9quicksort9quicksort17h2755ce9b6a022da6E+0x5fc>
10000895c: f85d0021    	ldur	x1, [x1, #-0x30]
100008960: d1006231    	sub	x17, x17, #0x18
100008964: 91006000    	add	x0, x0, #0x18
100008968: eb01021f    	cmp	x16, x1
10000896c: 54fffea3    	b.lo	0x100008940 <__ZN4core5slice4sort6stable9quicksort9quicksort17h2755ce9b6a022da6E+0x660>
100008970: 8b0c0231    	add	x17, x17, x12
100008974: 17ffffdb    	b	0x1000088e0 <__ZN4core5slice4sort6stable9quicksort9quicksort17h2755ce9b6a022da6E+0x600>
100008978: d100612c    	sub	x12, x9, #0x18
10000897c: 5280030d    	mov	w13, #0x18              ; =24
100008980: 928002ea    	mov	x10, #-0x18             ; =-24
100008984: 9b0d2aaf    	madd	x15, x21, x13, x10
100008988: 8b0f026e    	add	x14, x19, x15
10000898c: aa1303ea    	mov	x10, x19
100008990: aa1403eb    	mov	x11, x20
100008994: 8b0f0290    	add	x16, x20, x15
100008998: f9400131    	ldr	x17, [x9]
10000899c: f9400140    	ldr	x0, [x10]
1000089a0: eb00023f    	cmp	x17, x0
1000089a4: 9a8a3131    	csel	x17, x9, x10, lo
1000089a8: 1a9f37e0    	cset	w0, hs
1000089ac: 1a9f27e1    	cset	w1, lo
1000089b0: 3dc00220    	ldr	q0, [x17]
1000089b4: f9400a31    	ldr	x17, [x17, #0x10]
1000089b8: f9000971    	str	x17, [x11, #0x10]
1000089bc: 3c818560    	str	q0, [x11], #0x18
1000089c0: 9bad2429    	umaddl	x9, w1, w13, x9
1000089c4: 9bad280a    	umaddl	x10, w0, w13, x10
1000089c8: f94001d1    	ldr	x17, [x14]
1000089cc: f9400180    	ldr	x0, [x12]
1000089d0: eb00023f    	cmp	x17, x0
1000089d4: 9a8e3191    	csel	x17, x12, x14, lo
1000089d8: 3dc00220    	ldr	q0, [x17]
1000089dc: f9400a31    	ldr	x17, [x17, #0x10]
1000089e0: f9000a11    	str	x17, [x16, #0x10]
1000089e4: 3d800200    	str	q0, [x16]
1000089e8: da9f33f0    	csetm	x16, hs
1000089ec: 9b0d3a0e    	madd	x14, x16, x13, x14
1000089f0: da9f23f0    	csetm	x16, lo
1000089f4: 9b0d320c    	madd	x12, x16, x13, x12
1000089f8: d10061ef    	sub	x15, x15, #0x18
1000089fc: f1000508    	subs	x8, x8, #0x1
100008a00: 54fffca1    	b.ne	0x100008994 <__ZN4core5slice4sort6stable9quicksort9quicksort17h2755ce9b6a022da6E+0x6b4>
100008a04: 91006188    	add	x8, x12, #0x18
100008a08: 910061cc    	add	x12, x14, #0x18
100008a0c: 36000195    	tbz	w21, #0x0, 0x100008a3c <__ZN4core5slice4sort6stable9quicksort9quicksort17h2755ce9b6a022da6E+0x75c>
100008a10: eb08015f    	cmp	x10, x8
100008a14: 9a89314d    	csel	x13, x10, x9, lo
100008a18: 1a9f37ee    	cset	w14, hs
100008a1c: 1a9f27ef    	cset	w15, lo
100008a20: 3dc001a0    	ldr	q0, [x13]
100008a24: f94009ad    	ldr	x13, [x13, #0x10]
100008a28: f900096d    	str	x13, [x11, #0x10]
100008a2c: 3d800160    	str	q0, [x11]
100008a30: 5280030b    	mov	w11, #0x18              ; =24
100008a34: 9bab29ea    	umaddl	x10, w15, w11, x10
100008a38: 9bab25c9    	umaddl	x9, w14, w11, x9
100008a3c: eb08015f    	cmp	x10, x8
100008a40: fa4c0120    	ccmp	x9, x12, #0x0, eq
100008a44: 54000281    	b.ne	0x100008a94 <__ZN4core5slice4sort6stable9quicksort9quicksort17h2755ce9b6a022da6E+0x7b4>
100008a48: a94b7bfd    	ldp	x29, x30, [sp, #0xb0]
100008a4c: a94a4ff4    	ldp	x20, x19, [sp, #0xa0]
100008a50: a94957f6    	ldp	x22, x21, [sp, #0x90]
100008a54: a9485ff8    	ldp	x24, x23, [sp, #0x80]
100008a58: a94767fa    	ldp	x26, x25, [sp, #0x70]
100008a5c: a9466ffc    	ldp	x28, x27, [sp, #0x60]
100008a60: 910303ff    	add	sp, sp, #0xc0
100008a64: d65f03c0    	ret
100008a68: 900001e8    	adrp	x8, 0x100044000 <dyld_stub_binder+0x100044000>
100008a6c: 91036108    	add	x8, x8, #0xd8
100008a70: 52800029    	mov	w9, #0x1                ; =1
100008a74: a90327e8    	stp	x8, x9, [sp, #0x30]
100008a78: 52800108    	mov	w8, #0x8                ; =8
100008a7c: a904ffff    	stp	xzr, xzr, [sp, #0x48]
100008a80: f90023e8    	str	x8, [sp, #0x40]
100008a84: 900001e1    	adrp	x1, 0x100044000 <dyld_stub_binder+0x100044000>
100008a88: 9103a021    	add	x1, x1, #0xe8
100008a8c: 9100c3e0    	add	x0, sp, #0x30
100008a90: 9400b492    	bl	0x100035cd8 <__ZN4core9panicking9panic_fmt17ha0f8363f677e0181E>
100008a94: 9400b54c    	bl	0x100035fc4 <__ZN4core5slice4sort6shared9smallsort22panic_on_ord_violation17hde5e51e040c58445E>
100008a98: d4200020    	brk	#0x1
100008a9c: 900001e2    	adrp	x2, 0x100044000 <dyld_stub_binder+0x100044000>
100008aa0: 91040042    	add	x2, x2, #0x100
100008aa4: aa1b03e0    	mov	x0, x27
100008aa8: aa1803e1    	mov	x1, x24
100008aac: 9400b554    	bl	0x100035ffc <__ZN4core5slice5index26slice_start_index_len_fail17hb941cdec3696e1afE>
100008ab0: aa0003f6    	mov	x22, x0
100008ab4: 8b1506a8    	add	x8, x21, x21, lsl #1
100008ab8: d37df102    	lsl	x2, x8, #3
100008abc: aa1403e0    	mov	x0, x20
100008ac0: aa1303e1    	mov	x1, x19
100008ac4: 9400b5ea    	bl	0x10003626c <dyld_stub_binder+0x10003626c>
100008ac8: aa1603e0    	mov	x0, x22
100008acc: 9400b59a    	bl	0x100036134 <dyld_stub_binder+0x100036134>

0000000100008ad0 <__ZN4core5slice4sort6stable9quicksort9quicksort17h4313d4c7b4ad0ab9E>:
100008ad0: d10303ff    	sub	sp, sp, #0xc0
100008ad4: a9066ffc    	stp	x28, x27, [sp, #0x60]
100008ad8: a90767fa    	stp	x26, x25, [sp, #0x70]
100008adc: a9085ff8    	stp	x24, x23, [sp, #0x80]
100008ae0: a90957f6    	stp	x22, x21, [sp, #0x90]
100008ae4: a90a4ff4    	stp	x20, x19, [sp, #0xa0]
100008ae8: a90b7bfd    	stp	x29, x30, [sp, #0xb0]
100008aec: 9102c3fd    	add	x29, sp, #0xb0
100008af0: aa0303f6    	mov	x22, x3
100008af4: aa0203f3    	mov	x19, x2
100008af8: aa0103f5    	mov	x21, x1
100008afc: aa0003f4    	mov	x20, x0
100008b00: f100843f    	cmp	x1, #0x21
100008b04: 54000302    	b.hs	0x100008b64 <__ZN4core5slice4sort6stable9quicksort9quicksort17h4313d4c7b4ad0ab9E+0x94>
100008b08: f1000abf    	cmp	x21, #0x2
100008b0c: 54003383    	b.lo	0x10000917c <__ZN4core5slice4sort6stable9quicksort9quicksort17h4313d4c7b4ad0ab9E+0x6ac>
100008b10: 910042a8    	add	x8, x21, #0x10
100008b14: eb16011f    	cmp	x8, x22
100008b18: 540035a8    	b.hi	0x1000091cc <__ZN4core5slice4sort6stable9quicksort9quicksort17h4313d4c7b4ad0ab9E+0x6fc>
100008b1c: d341feb8    	lsr	x24, x21, #1
100008b20: d37beb08    	lsl	x8, x24, #5
100008b24: 8b080297    	add	x23, x20, x8
